TMS320C2000 Assembler PC v22.6.1 Thu Mar 28 17:35:23 2024

Copyright (c) 1996-2018 Texas Instruments Incorporated
llc.asm                                                              PAGE    1

       1              ;***************************************************************
       2              ;* TMS320C2000 G3 C/C++ Codegen                               PC v22.6.1.LTS *
       3              ;* Date/Time created: Thu Mar 28 17:35:22 2024                 *
       4              ;***************************************************************
       5                      .compiler_opts --abi=eabi --cla_support=cla2 --diag_wrap=off --float_support=fpu32 --hll_source=on --
       6                      .asg    XAR2, FP
       7              
       8              $C$DW$CU        .dwtag  DW_TAG_compile_unit
       9                      .dwattr $C$DW$CU, DW_AT_name("../llc.c")
      10                      .dwattr $C$DW$CU, DW_AT_producer("TI TMS320C2000 G3 C/C++ Codegen PC v22.6.1.LTS Copyright (c) 1996-2
      11                      .dwattr $C$DW$CU, DW_AT_TI_version(0x01)
      12                      .dwattr $C$DW$CU, DW_AT_comp_dir("C:\Users\Joel9\Downloads\llc_capstone_F28003\llc_capstone_F28003x\R
      13              
      14              $C$DW$1 .dwtag  DW_TAG_subprogram
      15                      .dwattr $C$DW$1, DW_AT_name("SysCtl_delay")
      16                      .dwattr $C$DW$1, DW_AT_linkage_name("SysCtl_delay")
      17                      .dwattr $C$DW$1, DW_AT_declaration
      18                      .dwattr $C$DW$1, DW_AT_external
      19                      .dwattr $C$DW$1, DW_AT_decl_file("C:\Users\Joel9\Downloads\llc_capstone_F28003\llc_capstone_F28003x\d
      20                      .dwattr $C$DW$1, DW_AT_decl_line(0xe33)
      21                      .dwattr $C$DW$1, DW_AT_decl_column(0x01)
      22              $C$DW$2 .dwtag  DW_TAG_formal_parameter
      23                      .dwattr $C$DW$2, DW_AT_type(*$C$DW$T$33)
      24              
      25                      .dwendtag $C$DW$1
      26              
      27              
      28              $C$DW$3 .dwtag  DW_TAG_subprogram
      29                      .dwattr $C$DW$3, DW_AT_name("LLC_HAL_clearTripZoneFlags")
      30                      .dwattr $C$DW$3, DW_AT_linkage_name("LLC_HAL_clearTripZoneFlags")
      31                      .dwattr $C$DW$3, DW_AT_declaration
      32                      .dwattr $C$DW$3, DW_AT_external
      33                      .dwattr $C$DW$3, DW_AT_decl_file("..\llc_hal.h")
      34                      .dwattr $C$DW$3, DW_AT_decl_line(0x57)
      35                      .dwattr $C$DW$3, DW_AT_decl_column(0x06)
      36                      .dwendtag $C$DW$3
      37              
      38              
      39              $C$DW$4 .dwtag  DW_TAG_subprogram
      40                      .dwattr $C$DW$4, DW_AT_name("FSI_executeTxFlushSequence")
      41                      .dwattr $C$DW$4, DW_AT_linkage_name("FSI_executeTxFlushSequence")
      42                      .dwattr $C$DW$4, DW_AT_declaration
      43                      .dwattr $C$DW$4, DW_AT_external
      44                      .dwattr $C$DW$4, DW_AT_decl_file("C:/Users/Joel9/Downloads/llc_capstone_F28003/llc_capstone_F28003x/d
      45                      .dwattr $C$DW$4, DW_AT_decl_line(0xcba)
      46                      .dwattr $C$DW$4, DW_AT_decl_column(0x01)
      47              $C$DW$5 .dwtag  DW_TAG_formal_parameter
      48                      .dwattr $C$DW$5, DW_AT_type(*$C$DW$T$33)
      49              
      50              $C$DW$6 .dwtag  DW_TAG_formal_parameter
      51                      .dwattr $C$DW$6, DW_AT_type(*$C$DW$T$72)
      52              
      53                      .dwendtag $C$DW$4
      54              
      55                      .global ||LLC_PWMDbRedPri||
TMS320C2000 Assembler PC v22.6.1 Thu Mar 28 17:35:23 2024

Copyright (c) 1996-2018 Texas Instruments Incorporated
llc.asm                                                              PAGE    2

      56 00000000               .sect   "controlVariables:init", RW
      57                      .align  1
      58                      .elfsym ||LLC_PWMDbRedPri||,SYM_SIZE(1),SYM_BLOCKED(1)
      59 00000000       ||LLC_PWMDbRedPri||:
      60 00000000 0032          .bits           0x32,16
      61                                      ; LLC_PWMDbRedPri @ 0
      62              
      63              $C$DW$7 .dwtag  DW_TAG_variable
      64                      .dwattr $C$DW$7, DW_AT_name("LLC_PWMDbRedPri")
      65                      .dwattr $C$DW$7, DW_AT_linkage_name("LLC_PWMDbRedPri")
      66                      .dwattr $C$DW$7, DW_AT_location[DW_OP_addr ||LLC_PWMDbRedPri||]
      67                      .dwattr $C$DW$7, DW_AT_type(*$C$DW$T$72)
      68                      .dwattr $C$DW$7, DW_AT_external
      69                      .dwattr $C$DW$7, DW_AT_decl_file("../llc.c")
      70                      .dwattr $C$DW$7, DW_AT_decl_line(0x39)
      71                      .dwattr $C$DW$7, DW_AT_decl_column(0x0b)
      72              
      73                      .global ||LLC_PWMDbFedPri||
      74 00000001               .sect   "controlVariables:init", RW
      75                      .align  1
      76                      .elfsym ||LLC_PWMDbFedPri||,SYM_SIZE(1),SYM_BLOCKED(1)
      77 00000001       ||LLC_PWMDbFedPri||:
      78 00000001 0032          .bits           0x32,16
      79                                      ; LLC_PWMDbFedPri @ 0
      80              
      81              $C$DW$8 .dwtag  DW_TAG_variable
      82                      .dwattr $C$DW$8, DW_AT_name("LLC_PWMDbFedPri")
      83                      .dwattr $C$DW$8, DW_AT_linkage_name("LLC_PWMDbFedPri")
      84                      .dwattr $C$DW$8, DW_AT_location[DW_OP_addr ||LLC_PWMDbFedPri||]
      85                      .dwattr $C$DW$8, DW_AT_type(*$C$DW$T$72)
      86                      .dwattr $C$DW$8, DW_AT_external
      87                      .dwattr $C$DW$8, DW_AT_decl_file("../llc.c")
      88                      .dwattr $C$DW$8, DW_AT_decl_line(0x3a)
      89                      .dwattr $C$DW$8, DW_AT_decl_column(0x0b)
      90              
      91                      .global ||LLC_enable||
      92 00000002               .sect   "controlVariables:init", RW
      93                      .align  1
      94                      .elfsym ||LLC_enable||,SYM_SIZE(1),SYM_BLOCKED(1)
      95 00000002       ||LLC_enable||:
      96 00000002 0000          .bits           0,16
      97                                      ; LLC_enable @ 0
      98              
      99              $C$DW$9 .dwtag  DW_TAG_variable
     100                      .dwattr $C$DW$9, DW_AT_name("LLC_enable")
     101                      .dwattr $C$DW$9, DW_AT_linkage_name("LLC_enable")
     102                      .dwattr $C$DW$9, DW_AT_location[DW_OP_addr ||LLC_enable||]
     103                      .dwattr $C$DW$9, DW_AT_type(*$C$DW$T$72)
     104                      .dwattr $C$DW$9, DW_AT_external
     105                      .dwattr $C$DW$9, DW_AT_decl_file("../llc.c")
     106                      .dwattr $C$DW$9, DW_AT_decl_line(0x5f)
     107                      .dwattr $C$DW$9, DW_AT_decl_column(0x0b)
     108              
     109                      .global ||LLC_startupDutySlewFlag||
     110 00000003               .sect   "controlVariables:init", RW
TMS320C2000 Assembler PC v22.6.1 Thu Mar 28 17:35:23 2024

Copyright (c) 1996-2018 Texas Instruments Incorporated
llc.asm                                                              PAGE    3

     111                      .align  1
     112                      .elfsym ||LLC_startupDutySlewFlag||,SYM_SIZE(1),SYM_BLOCKED(1)
     113 00000003       ||LLC_startupDutySlewFlag||:
     114 00000003 0000          .bits           0,16
     115                                      ; LLC_startupDutySlewFlag @ 0
     116              
     117              $C$DW$10        .dwtag  DW_TAG_variable
     118                      .dwattr $C$DW$10, DW_AT_name("LLC_startupDutySlewFlag")
     119                      .dwattr $C$DW$10, DW_AT_linkage_name("LLC_startupDutySlewFlag")
     120                      .dwattr $C$DW$10, DW_AT_location[DW_OP_addr ||LLC_startupDutySlewFlag||]
     121                      .dwattr $C$DW$10, DW_AT_type(*$C$DW$T$72)
     122                      .dwattr $C$DW$10, DW_AT_external
     123                      .dwattr $C$DW$10, DW_AT_decl_file("../llc.c")
     124                      .dwattr $C$DW$10, DW_AT_decl_line(0x60)
     125                      .dwattr $C$DW$10, DW_AT_decl_column(0x0b)
     126              
     127                      .global ||LLC_SRenable||
     128 00000004               .sect   "controlVariables:init", RW
     129                      .align  1
     130                      .elfsym ||LLC_SRenable||,SYM_SIZE(1),SYM_BLOCKED(1)
     131 00000004       ||LLC_SRenable||:
     132 00000004 0001          .bits           0x1,16
     133                                      ; LLC_SRenable @ 0
     134              
     135              $C$DW$11        .dwtag  DW_TAG_variable
     136                      .dwattr $C$DW$11, DW_AT_name("LLC_SRenable")
     137                      .dwattr $C$DW$11, DW_AT_linkage_name("LLC_SRenable")
     138                      .dwattr $C$DW$11, DW_AT_location[DW_OP_addr ||LLC_SRenable||]
     139                      .dwattr $C$DW$11, DW_AT_type(*$C$DW$T$72)
     140                      .dwattr $C$DW$11, DW_AT_external
     141                      .dwattr $C$DW$11, DW_AT_decl_file("../llc.c")
     142                      .dwattr $C$DW$11, DW_AT_decl_line(0x61)
     143                      .dwattr $C$DW$11, DW_AT_decl_column(0x0b)
     144              
     145                      .global ||LLC_txEventSts||
     146 00000005               .sect   "controlVariables:init", RW
     147                      .align  1
     148                      .elfsym ||LLC_txEventSts||,SYM_SIZE(1),SYM_BLOCKED(1)
     149 00000005       ||LLC_txEventSts||:
     150 00000005 0000          .bits           0,16
     151                                      ; LLC_txEventSts @ 0
     152              
     153              $C$DW$12        .dwtag  DW_TAG_variable
     154                      .dwattr $C$DW$12, DW_AT_name("LLC_txEventSts")
     155                      .dwattr $C$DW$12, DW_AT_linkage_name("LLC_txEventSts")
     156                      .dwattr $C$DW$12, DW_AT_location[DW_OP_addr ||LLC_txEventSts||]
     157                      .dwattr $C$DW$12, DW_AT_type(*$C$DW$T$72)
     158                      .dwattr $C$DW$12, DW_AT_external
     159                      .dwattr $C$DW$12, DW_AT_decl_file("../llc.c")
     160                      .dwattr $C$DW$12, DW_AT_decl_line(0x66)
     161                      .dwattr $C$DW$12, DW_AT_decl_column(0x0a)
     162              
     163                      .global ||LLC_rxEventSts||
     164 00000006               .sect   "controlVariables:init", RW
     165                      .align  1
TMS320C2000 Assembler PC v22.6.1 Thu Mar 28 17:35:23 2024

Copyright (c) 1996-2018 Texas Instruments Incorporated
llc.asm                                                              PAGE    4

     166                      .elfsym ||LLC_rxEventSts||,SYM_SIZE(1),SYM_BLOCKED(1)
     167 00000006       ||LLC_rxEventSts||:
     168 00000006 0000          .bits           0,16
     169                                      ; LLC_rxEventSts @ 0
     170              
     171              $C$DW$13        .dwtag  DW_TAG_variable
     172                      .dwattr $C$DW$13, DW_AT_name("LLC_rxEventSts")
     173                      .dwattr $C$DW$13, DW_AT_linkage_name("LLC_rxEventSts")
     174                      .dwattr $C$DW$13, DW_AT_location[DW_OP_addr ||LLC_rxEventSts||]
     175                      .dwattr $C$DW$13, DW_AT_type(*$C$DW$T$72)
     176                      .dwattr $C$DW$13, DW_AT_external
     177                      .dwattr $C$DW$13, DW_AT_decl_file("../llc.c")
     178                      .dwattr $C$DW$13, DW_AT_decl_line(0x67)
     179                      .dwattr $C$DW$13, DW_AT_decl_column(0x0a)
     180              
     181                      .global ||LLC_buildLevel||
     182 00000007               .sect   "controlVariables:init"
     183                      .align  1
     184                      .elfsym ||LLC_buildLevel||,SYM_SIZE(1),SYM_BLOCKED(1)
     185 00000007       ||LLC_buildLevel||:
     186 00000007 0001          .bits           0x1,16
     187                                      ; LLC_buildLevel @ 0
     188              
     189              $C$DW$14        .dwtag  DW_TAG_variable
     190                      .dwattr $C$DW$14, DW_AT_name("LLC_buildLevel")
     191                      .dwattr $C$DW$14, DW_AT_linkage_name("LLC_buildLevel")
     192                      .dwattr $C$DW$14, DW_AT_location[DW_OP_addr ||LLC_buildLevel||]
     193                      .dwattr $C$DW$14, DW_AT_type(*$C$DW$T$92)
     194                      .dwattr $C$DW$14, DW_AT_external
     195                      .dwattr $C$DW$14, DW_AT_decl_file("../llc.c")
     196                      .dwattr $C$DW$14, DW_AT_decl_line(0x74)
     197                      .dwattr $C$DW$14, DW_AT_decl_column(0x1c)
     198              
     199                      .global ||LLC_startFlag||
     200 00000008               .sect   "controlVariables:init", RW
     201                      .align  1
     202                      .elfsym ||LLC_startFlag||,SYM_SIZE(1),SYM_BLOCKED(1)
     203 00000008       ||LLC_startFlag||:
     204 00000008 0000          .bits           0,16
     205                                      ; LLC_startFlag @ 0
     206              
     207              $C$DW$15        .dwtag  DW_TAG_variable
     208                      .dwattr $C$DW$15, DW_AT_name("LLC_startFlag")
     209                      .dwattr $C$DW$15, DW_AT_linkage_name("LLC_startFlag")
     210                      .dwattr $C$DW$15, DW_AT_location[DW_OP_addr ||LLC_startFlag||]
     211                      .dwattr $C$DW$15, DW_AT_type(*$C$DW$T$93)
     212                      .dwattr $C$DW$15, DW_AT_external
     213                      .dwattr $C$DW$15, DW_AT_decl_file("../llc.c")
     214                      .dwattr $C$DW$15, DW_AT_decl_line(0x77)
     215                      .dwattr $C$DW$15, DW_AT_decl_column(0x13)
     216              
     217                      .global ||LLC_faultFlag||
     218 00000009               .sect   "controlVariables:init", RW
     219                      .align  1
     220                      .elfsym ||LLC_faultFlag||,SYM_SIZE(1),SYM_BLOCKED(1)
TMS320C2000 Assembler PC v22.6.1 Thu Mar 28 17:35:23 2024

Copyright (c) 1996-2018 Texas Instruments Incorporated
llc.asm                                                              PAGE    5

     221 00000009       ||LLC_faultFlag||:
     222 00000009 0000          .bits           0,16
     223                                      ; LLC_faultFlag @ 0
     224              
     225              $C$DW$16        .dwtag  DW_TAG_variable
     226                      .dwattr $C$DW$16, DW_AT_name("LLC_faultFlag")
     227                      .dwattr $C$DW$16, DW_AT_linkage_name("LLC_faultFlag")
     228                      .dwattr $C$DW$16, DW_AT_location[DW_OP_addr ||LLC_faultFlag||]
     229                      .dwattr $C$DW$16, DW_AT_type(*$C$DW$T$93)
     230                      .dwattr $C$DW$16, DW_AT_external
     231                      .dwattr $C$DW$16, DW_AT_decl_file("../llc.c")
     232                      .dwattr $C$DW$16, DW_AT_decl_line(0x7d)
     233                      .dwattr $C$DW$16, DW_AT_decl_column(0x13)
     234              
     235              
     236              $C$DW$17        .dwtag  DW_TAG_subprogram
     237                      .dwattr $C$DW$17, DW_AT_name("DCL_runClamp_C1")
     238                      .dwattr $C$DW$17, DW_AT_linkage_name("DCL_runClamp_C1")
     239                      .dwattr $C$DW$17, DW_AT_type(*$C$DW$T$85)
     240                      .dwattr $C$DW$17, DW_AT_declaration
     241                      .dwattr $C$DW$17, DW_AT_external
     242                      .dwattr $C$DW$17, DW_AT_decl_file("C:/Users/Joel9/Downloads/llc_capstone_F28003/llc_capstone_F28003x/
     243                      .dwattr $C$DW$17, DW_AT_decl_line(0x6b7)
     244                      .dwattr $C$DW$17, DW_AT_decl_column(0x10)
     245              $C$DW$18        .dwtag  DW_TAG_formal_parameter
     246                      .dwattr $C$DW$18, DW_AT_type(*$C$DW$T$76)
     247              
     248              $C$DW$19        .dwtag  DW_TAG_formal_parameter
     249                      .dwattr $C$DW$19, DW_AT_type(*$C$DW$T$31)
     250              
     251              $C$DW$20        .dwtag  DW_TAG_formal_parameter
     252                      .dwattr $C$DW$20, DW_AT_type(*$C$DW$T$31)
     253              
     254                      .dwendtag $C$DW$17
     255              
     256 00000000               .data
     257                      .align  1
     258                      .elfsym ||range$1||,SYM_SIZE(1),SYM_BLOCKED(1)
     259 00000000       ||range$1||:
     260 00000000 0000          .bits           0,16
     261                                      ; range$1 @ 0
     262              
     263                      .global ||LLC_board_Status||
     264 00000000       ||LLC_board_Status||:   .usect  "controlVariables:uninit",2,1,1
     265              $C$DW$21        .dwtag  DW_TAG_variable
     266                      .dwattr $C$DW$21, DW_AT_name("LLC_board_Status")
     267                      .dwattr $C$DW$21, DW_AT_linkage_name("LLC_board_Status")
     268                      .dwattr $C$DW$21, DW_AT_location[DW_OP_addr ||LLC_board_Status||]
     269                      .dwattr $C$DW$21, DW_AT_type(*$C$DW$T$59)
     270                      .dwattr $C$DW$21, DW_AT_external
     271                      .dwattr $C$DW$21, DW_AT_decl_file("../llc.c")
     272                      .dwattr $C$DW$21, DW_AT_decl_line(0x2a)
     273                      .dwattr $C$DW$21, DW_AT_decl_column(0x11)
     274              
     275                      .global ||LLC_vSec_pu||
TMS320C2000 Assembler PC v22.6.1 Thu Mar 28 17:35:23 2024

Copyright (c) 1996-2018 Texas Instruments Incorporated
llc.asm                                                              PAGE    6

     276 0000000a               .sect   "controlVariables:init", RW
     277                      .align  2
     278                      .elfsym ||LLC_vSec_pu||,SYM_SIZE(2),SYM_BLOCKED(1)
     279 0000000a       ||LLC_vSec_pu||:
     280 0000000a 0000          .xfloat $strtod("0x0p+0")               ; LLC_vSec_pu @ 0
         0000000b 0000 
     281              
     282              $C$DW$22        .dwtag  DW_TAG_variable
     283                      .dwattr $C$DW$22, DW_AT_name("LLC_vSec_pu")
     284                      .dwattr $C$DW$22, DW_AT_linkage_name("LLC_vSec_pu")
     285                      .dwattr $C$DW$22, DW_AT_location[DW_OP_addr ||LLC_vSec_pu||]
     286                      .dwattr $C$DW$22, DW_AT_type(*$C$DW$T$31)
     287                      .dwattr $C$DW$22, DW_AT_external
     288                      .dwattr $C$DW$22, DW_AT_decl_file("../llc.c")
     289                      .dwattr $C$DW$22, DW_AT_decl_line(0x2c)
     290                      .dwattr $C$DW$22, DW_AT_decl_column(0x0b)
     291              
     292                      .global ||LLC_iPriReso_pu||
     293 0000000c               .sect   "controlVariables:init", RW
     294                      .align  2
     295                      .elfsym ||LLC_iPriReso_pu||,SYM_SIZE(2),SYM_BLOCKED(1)
     296 0000000c       ||LLC_iPriReso_pu||:
     297 0000000c 0000          .xfloat $strtod("0x0p+0")               ; LLC_iPriReso_pu @ 0
         0000000d 0000 
     298              
     299              $C$DW$23        .dwtag  DW_TAG_variable
     300                      .dwattr $C$DW$23, DW_AT_name("LLC_iPriReso_pu")
     301                      .dwattr $C$DW$23, DW_AT_linkage_name("LLC_iPriReso_pu")
     302                      .dwattr $C$DW$23, DW_AT_location[DW_OP_addr ||LLC_iPriReso_pu||]
     303                      .dwattr $C$DW$23, DW_AT_type(*$C$DW$T$31)
     304                      .dwattr $C$DW$23, DW_AT_external
     305                      .dwattr $C$DW$23, DW_AT_decl_file("../llc.c")
     306                      .dwattr $C$DW$23, DW_AT_decl_line(0x2d)
     307                      .dwattr $C$DW$23, DW_AT_decl_column(0x0b)
     308              
     309                      .global ||LLC_iSec_pu||
     310 0000000e               .sect   "controlVariables:init", RW
     311                      .align  2
     312                      .elfsym ||LLC_iSec_pu||,SYM_SIZE(2),SYM_BLOCKED(1)
     313 0000000e       ||LLC_iSec_pu||:
     314 0000000e 0000          .xfloat $strtod("0x0p+0")               ; LLC_iSec_pu @ 0
         0000000f 0000 
     315              
     316              $C$DW$24        .dwtag  DW_TAG_variable
     317                      .dwattr $C$DW$24, DW_AT_name("LLC_iSec_pu")
     318                      .dwattr $C$DW$24, DW_AT_linkage_name("LLC_iSec_pu")
     319                      .dwattr $C$DW$24, DW_AT_location[DW_OP_addr ||LLC_iSec_pu||]
     320                      .dwattr $C$DW$24, DW_AT_type(*$C$DW$T$31)
     321                      .dwattr $C$DW$24, DW_AT_external
     322                      .dwattr $C$DW$24, DW_AT_decl_file("../llc.c")
     323                      .dwattr $C$DW$24, DW_AT_decl_line(0x2e)
     324                      .dwattr $C$DW$24, DW_AT_decl_column(0x0b)
     325              
     326                      .global ||LLC_vSecSet_pu||
     327 00000010               .sect   "controlVariables:init", RW
TMS320C2000 Assembler PC v22.6.1 Thu Mar 28 17:35:23 2024

Copyright (c) 1996-2018 Texas Instruments Incorporated
llc.asm                                                              PAGE    7

     328                      .align  2
     329                      .elfsym ||LLC_vSecSet_pu||,SYM_SIZE(2),SYM_BLOCKED(1)
     330 00000010       ||LLC_vSecSet_pu||:
     331 00000010 0000          .xfloat $strtod("0x0p+0")               ; LLC_vSecSet_pu @ 0
         00000011 0000 
     332              
     333              $C$DW$25        .dwtag  DW_TAG_variable
     334                      .dwattr $C$DW$25, DW_AT_name("LLC_vSecSet_pu")
     335                      .dwattr $C$DW$25, DW_AT_linkage_name("LLC_vSecSet_pu")
     336                      .dwattr $C$DW$25, DW_AT_location[DW_OP_addr ||LLC_vSecSet_pu||]
     337                      .dwattr $C$DW$25, DW_AT_type(*$C$DW$T$31)
     338                      .dwattr $C$DW$25, DW_AT_external
     339                      .dwattr $C$DW$25, DW_AT_decl_file("../llc.c")
     340                      .dwattr $C$DW$25, DW_AT_decl_line(0x30)
     341                      .dwattr $C$DW$25, DW_AT_decl_column(0x0b)
     342              
     343                      .global ||LLC_periodSet_pu||
     344 00000012               .sect   "controlVariables:init", RW
     345                      .align  2
     346                      .elfsym ||LLC_periodSet_pu||,SYM_SIZE(2),SYM_BLOCKED(1)
     347 00000012       ||LLC_periodSet_pu||:
     348 00000012 0000          .xfloat $strtod("0x0p+0")               ; LLC_periodSet_pu @ 0
         00000013 0000 
     349              
     350              $C$DW$26        .dwtag  DW_TAG_variable
     351                      .dwattr $C$DW$26, DW_AT_name("LLC_periodSet_pu")
     352                      .dwattr $C$DW$26, DW_AT_linkage_name("LLC_periodSet_pu")
     353                      .dwattr $C$DW$26, DW_AT_location[DW_OP_addr ||LLC_periodSet_pu||]
     354                      .dwattr $C$DW$26, DW_AT_type(*$C$DW$T$31)
     355                      .dwattr $C$DW$26, DW_AT_external
     356                      .dwattr $C$DW$26, DW_AT_decl_file("../llc.c")
     357                      .dwattr $C$DW$26, DW_AT_decl_line(0x31)
     358                      .dwattr $C$DW$26, DW_AT_decl_column(0x0b)
     359              
     360                      .global ||LLC_vSecSetSlewed_pu||
     361 00000014               .sect   "controlVariables:init", RW
     362                      .align  2
     363                      .elfsym ||LLC_vSecSetSlewed_pu||,SYM_SIZE(2),SYM_BLOCKED(1)
     364 00000014       ||LLC_vSecSetSlewed_pu||:
     365 00000014 0000          .xfloat $strtod("0x0p+0")               ; LLC_vSecSetSlewed_pu @ 0
         00000015 0000 
     366              
     367              $C$DW$27        .dwtag  DW_TAG_variable
     368                      .dwattr $C$DW$27, DW_AT_name("LLC_vSecSetSlewed_pu")
     369                      .dwattr $C$DW$27, DW_AT_linkage_name("LLC_vSecSetSlewed_pu")
     370                      .dwattr $C$DW$27, DW_AT_location[DW_OP_addr ||LLC_vSecSetSlewed_pu||]
     371                      .dwattr $C$DW$27, DW_AT_type(*$C$DW$T$31)
     372                      .dwattr $C$DW$27, DW_AT_external
     373                      .dwattr $C$DW$27, DW_AT_decl_file("../llc.c")
     374                      .dwattr $C$DW$27, DW_AT_decl_line(0x33)
     375                      .dwattr $C$DW$27, DW_AT_decl_column(0x0b)
     376              
     377                      .global ||LLC_periodSetSlewed_pu||
     378 00000016               .sect   "controlVariables:init", RW
     379                      .align  2
TMS320C2000 Assembler PC v22.6.1 Thu Mar 28 17:35:23 2024

Copyright (c) 1996-2018 Texas Instruments Incorporated
llc.asm                                                              PAGE    8

     380                      .elfsym ||LLC_periodSetSlewed_pu||,SYM_SIZE(2),SYM_BLOCKED(1)
     381 00000016       ||LLC_periodSetSlewed_pu||:
     382 00000016 0000          .xfloat $strtod("0x0p+0")               ; LLC_periodSetSlewed_pu @ 0
         00000017 0000 
     383              
     384              $C$DW$28        .dwtag  DW_TAG_variable
     385                      .dwattr $C$DW$28, DW_AT_name("LLC_periodSetSlewed_pu")
     386                      .dwattr $C$DW$28, DW_AT_linkage_name("LLC_periodSetSlewed_pu")
     387                      .dwattr $C$DW$28, DW_AT_location[DW_OP_addr ||LLC_periodSetSlewed_pu||]
     388                      .dwattr $C$DW$28, DW_AT_type(*$C$DW$T$31)
     389                      .dwattr $C$DW$28, DW_AT_external
     390                      .dwattr $C$DW$28, DW_AT_decl_file("../llc.c")
     391                      .dwattr $C$DW$28, DW_AT_decl_line(0x34)
     392                      .dwattr $C$DW$28, DW_AT_decl_column(0x0b)
     393              
     394                      .global ||LLC_vSecRef_pu||
     395 00000018               .sect   "controlVariables:init", RW
     396                      .align  2
     397                      .elfsym ||LLC_vSecRef_pu||,SYM_SIZE(2),SYM_BLOCKED(1)
     398 00000018       ||LLC_vSecRef_pu||:
     399 00000018 0000          .xfloat $strtod("0x0p+0")               ; LLC_vSecRef_pu @ 0
         00000019 0000 
     400              
     401              $C$DW$29        .dwtag  DW_TAG_variable
     402                      .dwattr $C$DW$29, DW_AT_name("LLC_vSecRef_pu")
     403                      .dwattr $C$DW$29, DW_AT_linkage_name("LLC_vSecRef_pu")
     404                      .dwattr $C$DW$29, DW_AT_location[DW_OP_addr ||LLC_vSecRef_pu||]
     405                      .dwattr $C$DW$29, DW_AT_type(*$C$DW$T$31)
     406                      .dwattr $C$DW$29, DW_AT_external
     407                      .dwattr $C$DW$29, DW_AT_decl_file("../llc.c")
     408                      .dwattr $C$DW$29, DW_AT_decl_line(0x36)
     409                      .dwattr $C$DW$29, DW_AT_decl_column(0x0b)
     410              
     411                      .global ||LLC_periodRef_pu||
     412 0000001a               .sect   "controlVariables:init", RW
     413                      .align  2
     414                      .elfsym ||LLC_periodRef_pu||,SYM_SIZE(2),SYM_BLOCKED(1)
     415 0000001a       ||LLC_periodRef_pu||:
     416 0000001a 0000          .xfloat $strtod("0x0p+0")               ; LLC_periodRef_pu @ 0
         0000001b 0000 
     417              
     418              $C$DW$30        .dwtag  DW_TAG_variable
     419                      .dwattr $C$DW$30, DW_AT_name("LLC_periodRef_pu")
     420                      .dwattr $C$DW$30, DW_AT_linkage_name("LLC_periodRef_pu")
     421                      .dwattr $C$DW$30, DW_AT_location[DW_OP_addr ||LLC_periodRef_pu||]
     422                      .dwattr $C$DW$30, DW_AT_type(*$C$DW$T$31)
     423                      .dwattr $C$DW$30, DW_AT_external
     424                      .dwattr $C$DW$30, DW_AT_decl_file("../llc.c")
     425                      .dwattr $C$DW$30, DW_AT_decl_line(0x37)
     426                      .dwattr $C$DW$30, DW_AT_decl_column(0x0b)
     427              
     428                      .global ||LLC_dutySet_pu||
     429 0000001c               .sect   "controlVariables:init", RW
     430                      .align  2
     431                      .elfsym ||LLC_dutySet_pu||,SYM_SIZE(2),SYM_BLOCKED(1)
TMS320C2000 Assembler PC v22.6.1 Thu Mar 28 17:35:23 2024

Copyright (c) 1996-2018 Texas Instruments Incorporated
llc.asm                                                              PAGE    9

     432 0000001c       ||LLC_dutySet_pu||:
     433 0000001c 0000          .xfloat $strtod("0x0p+0")               ; LLC_dutySet_pu @ 0
         0000001d 0000 
     434              
     435              $C$DW$31        .dwtag  DW_TAG_variable
     436                      .dwattr $C$DW$31, DW_AT_name("LLC_dutySet_pu")
     437                      .dwattr $C$DW$31, DW_AT_linkage_name("LLC_dutySet_pu")
     438                      .dwattr $C$DW$31, DW_AT_location[DW_OP_addr ||LLC_dutySet_pu||]
     439                      .dwattr $C$DW$31, DW_AT_type(*$C$DW$T$31)
     440                      .dwattr $C$DW$31, DW_AT_external
     441                      .dwattr $C$DW$31, DW_AT_decl_file("../llc.c")
     442                      .dwattr $C$DW$31, DW_AT_decl_line(0x3c)
     443                      .dwattr $C$DW$31, DW_AT_decl_column(0x0b)
     444              
     445                      .global ||LLC_dutyBase_pu||
     446 0000001e               .sect   "controlVariables:init", RW
     447                      .align  2
     448                      .elfsym ||LLC_dutyBase_pu||,SYM_SIZE(2),SYM_BLOCKED(1)
     449 0000001e       ||LLC_dutyBase_pu||:
     450 0000001e 0000          .xfloat $strtod("0x0p+0")               ; LLC_dutyBase_pu @ 0
         0000001f 0000 
     451              
     452              $C$DW$32        .dwtag  DW_TAG_variable
     453                      .dwattr $C$DW$32, DW_AT_name("LLC_dutyBase_pu")
     454                      .dwattr $C$DW$32, DW_AT_linkage_name("LLC_dutyBase_pu")
     455                      .dwattr $C$DW$32, DW_AT_location[DW_OP_addr ||LLC_dutyBase_pu||]
     456                      .dwattr $C$DW$32, DW_AT_type(*$C$DW$T$31)
     457                      .dwattr $C$DW$32, DW_AT_external
     458                      .dwattr $C$DW$32, DW_AT_decl_file("../llc.c")
     459                      .dwattr $C$DW$32, DW_AT_decl_line(0x3d)
     460                      .dwattr $C$DW$32, DW_AT_decl_column(0x0b)
     461              
     462                      .global ||clamp_duty||
     463 00000002       ||clamp_duty||: .usect  "controlVariables:uninit",2,1,1
     464              $C$DW$33        .dwtag  DW_TAG_variable
     465                      .dwattr $C$DW$33, DW_AT_name("clamp_duty")
     466                      .dwattr $C$DW$33, DW_AT_linkage_name("clamp_duty")
     467                      .dwattr $C$DW$33, DW_AT_location[DW_OP_addr ||clamp_duty||]
     468                      .dwattr $C$DW$33, DW_AT_type(*$C$DW$T$31)
     469                      .dwattr $C$DW$33, DW_AT_external
     470                      .dwattr $C$DW$33, DW_AT_decl_file("../llc.c")
     471                      .dwattr $C$DW$33, DW_AT_decl_line(0x40)
     472                      .dwattr $C$DW$33, DW_AT_decl_column(0x0b)
     473              
     474                      .global ||SR_deadtime||
     475 00000004       ||SR_deadtime||:        .usect  "controlVariables:uninit",2,1,1
     476              $C$DW$34        .dwtag  DW_TAG_variable
     477                      .dwattr $C$DW$34, DW_AT_name("SR_deadtime")
     478                      .dwattr $C$DW$34, DW_AT_linkage_name("SR_deadtime")
     479                      .dwattr $C$DW$34, DW_AT_location[DW_OP_addr ||SR_deadtime||]
     480                      .dwattr $C$DW$34, DW_AT_type(*$C$DW$T$31)
     481                      .dwattr $C$DW$34, DW_AT_external
     482                      .dwattr $C$DW$34, DW_AT_decl_file("../llc.c")
     483                      .dwattr $C$DW$34, DW_AT_decl_line(0x41)
     484                      .dwattr $C$DW$34, DW_AT_decl_column(0x0b)
TMS320C2000 Assembler PC v22.6.1 Thu Mar 28 17:35:23 2024

Copyright (c) 1996-2018 Texas Instruments Incorporated
llc.asm                                                              PAGE   10

     485              
     486                      .global ||uk||
     487 00000006       ||uk||: .usect  "controlVariables:uninit",2,1,1
     488              $C$DW$35        .dwtag  DW_TAG_variable
     489                      .dwattr $C$DW$35, DW_AT_name("uk")
     490                      .dwattr $C$DW$35, DW_AT_linkage_name("uk")
     491                      .dwattr $C$DW$35, DW_AT_location[DW_OP_addr ||uk||]
     492                      .dwattr $C$DW$35, DW_AT_type(*$C$DW$T$31)
     493                      .dwattr $C$DW$35, DW_AT_external
     494                      .dwattr $C$DW$35, DW_AT_decl_file("../llc.c")
     495                      .dwattr $C$DW$35, DW_AT_decl_line(0x45)
     496                      .dwattr $C$DW$35, DW_AT_decl_column(0x0b)
     497              
     498                      .global ||ek||
     499 00000008       ||ek||: .usect  "controlVariables:uninit",2,1,1
     500              $C$DW$36        .dwtag  DW_TAG_variable
     501                      .dwattr $C$DW$36, DW_AT_name("ek")
     502                      .dwattr $C$DW$36, DW_AT_linkage_name("ek")
     503                      .dwattr $C$DW$36, DW_AT_location[DW_OP_addr ||ek||]
     504                      .dwattr $C$DW$36, DW_AT_type(*$C$DW$T$31)
     505                      .dwattr $C$DW$36, DW_AT_external
     506                      .dwattr $C$DW$36, DW_AT_decl_file("../llc.c")
     507                      .dwattr $C$DW$36, DW_AT_decl_line(0x45)
     508                      .dwattr $C$DW$36, DW_AT_decl_column(0x0f)
     509              
     510                      .global ||LLC_fsiTxInt1Received||
     511 00000020               .sect   "controlVariables:init", RW
     512                      .align  2
     513                      .elfsym ||LLC_fsiTxInt1Received||,SYM_SIZE(2),SYM_BLOCKED(1)
     514 00000020       ||LLC_fsiTxInt1Received||:
     515 00000020 0000          .bits           0,32
         00000021 0000 
     516                                      ; LLC_fsiTxInt1Received @ 0
     517              
     518              $C$DW$37        .dwtag  DW_TAG_variable
     519                      .dwattr $C$DW$37, DW_AT_name("LLC_fsiTxInt1Received")
     520                      .dwattr $C$DW$37, DW_AT_linkage_name("LLC_fsiTxInt1Received")
     521                      .dwattr $C$DW$37, DW_AT_location[DW_OP_addr ||LLC_fsiTxInt1Received||]
     522                      .dwattr $C$DW$37, DW_AT_type(*$C$DW$T$95)
     523                      .dwattr $C$DW$37, DW_AT_external
     524                      .dwattr $C$DW$37, DW_AT_decl_file("../llc.c")
     525                      .dwattr $C$DW$37, DW_AT_decl_line(0x59)
     526                      .dwattr $C$DW$37, DW_AT_decl_column(0x13)
     527              
     528                      .global ||LLC_fsiTxInt2Received||
     529 00000022               .sect   "controlVariables:init", RW
     530                      .align  2
     531                      .elfsym ||LLC_fsiTxInt2Received||,SYM_SIZE(2),SYM_BLOCKED(1)
     532 00000022       ||LLC_fsiTxInt2Received||:
     533 00000022 0000          .bits           0,32
         00000023 0000 
     534                                      ; LLC_fsiTxInt2Received @ 0
     535              
     536              $C$DW$38        .dwtag  DW_TAG_variable
     537                      .dwattr $C$DW$38, DW_AT_name("LLC_fsiTxInt2Received")
TMS320C2000 Assembler PC v22.6.1 Thu Mar 28 17:35:23 2024

Copyright (c) 1996-2018 Texas Instruments Incorporated
llc.asm                                                              PAGE   11

     538                      .dwattr $C$DW$38, DW_AT_linkage_name("LLC_fsiTxInt2Received")
     539                      .dwattr $C$DW$38, DW_AT_location[DW_OP_addr ||LLC_fsiTxInt2Received||]
     540                      .dwattr $C$DW$38, DW_AT_type(*$C$DW$T$95)
     541                      .dwattr $C$DW$38, DW_AT_external
     542                      .dwattr $C$DW$38, DW_AT_decl_file("../llc.c")
     543                      .dwattr $C$DW$38, DW_AT_decl_line(0x5a)
     544                      .dwattr $C$DW$38, DW_AT_decl_column(0x13)
     545              
     546                      .global ||LLC_fsiRxInt1Received||
     547 00000024               .sect   "controlVariables:init", RW
     548                      .align  2
     549                      .elfsym ||LLC_fsiRxInt1Received||,SYM_SIZE(2),SYM_BLOCKED(1)
     550 00000024       ||LLC_fsiRxInt1Received||:
     551 00000024 0000          .bits           0,32
         00000025 0000 
     552                                      ; LLC_fsiRxInt1Received @ 0
     553              
     554              $C$DW$39        .dwtag  DW_TAG_variable
     555                      .dwattr $C$DW$39, DW_AT_name("LLC_fsiRxInt1Received")
     556                      .dwattr $C$DW$39, DW_AT_linkage_name("LLC_fsiRxInt1Received")
     557                      .dwattr $C$DW$39, DW_AT_location[DW_OP_addr ||LLC_fsiRxInt1Received||]
     558                      .dwattr $C$DW$39, DW_AT_type(*$C$DW$T$95)
     559                      .dwattr $C$DW$39, DW_AT_external
     560                      .dwattr $C$DW$39, DW_AT_decl_file("../llc.c")
     561                      .dwattr $C$DW$39, DW_AT_decl_line(0x5b)
     562                      .dwattr $C$DW$39, DW_AT_decl_column(0x13)
     563              
     564                      .global ||LLC_fsiRxInt2Received||
     565 00000026               .sect   "controlVariables:init", RW
     566                      .align  2
     567                      .elfsym ||LLC_fsiRxInt2Received||,SYM_SIZE(2),SYM_BLOCKED(1)
     568 00000026       ||LLC_fsiRxInt2Received||:
     569 00000026 0000          .bits           0,32
         00000027 0000 
     570                                      ; LLC_fsiRxInt2Received @ 0
     571              
     572              $C$DW$40        .dwtag  DW_TAG_variable
     573                      .dwattr $C$DW$40, DW_AT_name("LLC_fsiRxInt2Received")
     574                      .dwattr $C$DW$40, DW_AT_linkage_name("LLC_fsiRxInt2Received")
     575                      .dwattr $C$DW$40, DW_AT_location[DW_OP_addr ||LLC_fsiRxInt2Received||]
     576                      .dwattr $C$DW$40, DW_AT_type(*$C$DW$T$95)
     577                      .dwattr $C$DW$40, DW_AT_external
     578                      .dwattr $C$DW$40, DW_AT_decl_file("../llc.c")
     579                      .dwattr $C$DW$40, DW_AT_decl_line(0x5c)
     580                      .dwattr $C$DW$40, DW_AT_decl_column(0x13)
     581              
     582                      .global ||LLC_vSec_Volts||
     583 00000028               .sect   "controlVariables:init", RW
     584                      .align  2
     585                      .elfsym ||LLC_vSec_Volts||,SYM_SIZE(2),SYM_BLOCKED(1)
     586 00000028       ||LLC_vSec_Volts||:
     587 00000028 0000          .xfloat $strtod("0x0p+0")               ; LLC_vSec_Volts @ 0
         00000029 0000 
     588              
     589              $C$DW$41        .dwtag  DW_TAG_variable
TMS320C2000 Assembler PC v22.6.1 Thu Mar 28 17:35:23 2024

Copyright (c) 1996-2018 Texas Instruments Incorporated
llc.asm                                                              PAGE   12

     590                      .dwattr $C$DW$41, DW_AT_name("LLC_vSec_Volts")
     591                      .dwattr $C$DW$41, DW_AT_linkage_name("LLC_vSec_Volts")
     592                      .dwattr $C$DW$41, DW_AT_location[DW_OP_addr ||LLC_vSec_Volts||]
     593                      .dwattr $C$DW$41, DW_AT_type(*$C$DW$T$31)
     594                      .dwattr $C$DW$41, DW_AT_external
     595                      .dwattr $C$DW$41, DW_AT_decl_file("../llc.c")
     596                      .dwattr $C$DW$41, DW_AT_decl_line(0x7f)
     597                      .dwattr $C$DW$41, DW_AT_decl_column(0x0b)
     598              
     599                      .global ||LLC_iPriReso_Amps||
     600 0000002a               .sect   "controlVariables:init", RW
     601                      .align  2
     602                      .elfsym ||LLC_iPriReso_Amps||,SYM_SIZE(2),SYM_BLOCKED(1)
     603 0000002a       ||LLC_iPriReso_Amps||:
     604 0000002a 0000          .xfloat $strtod("0x0p+0")               ; LLC_iPriReso_Amps @ 0
         0000002b 0000 
     605              
     606              $C$DW$42        .dwtag  DW_TAG_variable
     607                      .dwattr $C$DW$42, DW_AT_name("LLC_iPriReso_Amps")
     608                      .dwattr $C$DW$42, DW_AT_linkage_name("LLC_iPriReso_Amps")
     609                      .dwattr $C$DW$42, DW_AT_location[DW_OP_addr ||LLC_iPriReso_Amps||]
     610                      .dwattr $C$DW$42, DW_AT_type(*$C$DW$T$31)
     611                      .dwattr $C$DW$42, DW_AT_external
     612                      .dwattr $C$DW$42, DW_AT_decl_file("../llc.c")
     613                      .dwattr $C$DW$42, DW_AT_decl_line(0x80)
     614                      .dwattr $C$DW$42, DW_AT_decl_column(0x0b)
     615              
     616                      .global ||LLC_iSec_Amps||
     617 0000002c               .sect   "controlVariables:init", RW
     618                      .align  2
     619                      .elfsym ||LLC_iSec_Amps||,SYM_SIZE(2),SYM_BLOCKED(1)
     620 0000002c       ||LLC_iSec_Amps||:
     621 0000002c 0000          .xfloat $strtod("0x0p+0")               ; LLC_iSec_Amps @ 0
         0000002d 0000 
     622              
     623              $C$DW$43        .dwtag  DW_TAG_variable
     624                      .dwattr $C$DW$43, DW_AT_name("LLC_iSec_Amps")
     625                      .dwattr $C$DW$43, DW_AT_linkage_name("LLC_iSec_Amps")
     626                      .dwattr $C$DW$43, DW_AT_location[DW_OP_addr ||LLC_iSec_Amps||]
     627                      .dwattr $C$DW$43, DW_AT_type(*$C$DW$T$31)
     628                      .dwattr $C$DW$43, DW_AT_external
     629                      .dwattr $C$DW$43, DW_AT_decl_file("../llc.c")
     630                      .dwattr $C$DW$43, DW_AT_decl_line(0x81)
     631                      .dwattr $C$DW$43, DW_AT_decl_column(0x0b)
     632              
     633                      .global ||LLC_periodRef_debug_pu||
     634 0000002e               .sect   "controlVariables:init", RW
     635                      .align  2
     636                      .elfsym ||LLC_periodRef_debug_pu||,SYM_SIZE(2),SYM_BLOCKED(1)
     637 0000002e       ||LLC_periodRef_debug_pu||:
     638 0000002e 0000          .xfloat $strtod("0x0p+0")               ; LLC_periodRef_debug_pu @ 0
         0000002f 0000 
     639              
     640              $C$DW$44        .dwtag  DW_TAG_variable
     641                      .dwattr $C$DW$44, DW_AT_name("LLC_periodRef_debug_pu")
TMS320C2000 Assembler PC v22.6.1 Thu Mar 28 17:35:23 2024

Copyright (c) 1996-2018 Texas Instruments Incorporated
llc.asm                                                              PAGE   13

     642                      .dwattr $C$DW$44, DW_AT_linkage_name("LLC_periodRef_debug_pu")
     643                      .dwattr $C$DW$44, DW_AT_location[DW_OP_addr ||LLC_periodRef_debug_pu||]
     644                      .dwattr $C$DW$44, DW_AT_type(*$C$DW$T$105)
     645                      .dwattr $C$DW$44, DW_AT_external
     646                      .dwattr $C$DW$44, DW_AT_decl_file("../llc.c")
     647                      .dwattr $C$DW$44, DW_AT_decl_line(0x86)
     648                      .dwattr $C$DW$44, DW_AT_decl_column(0x14)
     649              
     650                      .global ||LLC_dutySet_debug_pu||
     651 00000030               .sect   "controlVariables:init", RW
     652                      .align  2
     653                      .elfsym ||LLC_dutySet_debug_pu||,SYM_SIZE(2),SYM_BLOCKED(1)
     654 00000030       ||LLC_dutySet_debug_pu||:
     655 00000030 0000          .xfloat $strtod("0x0p+0")               ; LLC_dutySet_debug_pu @ 0
         00000031 0000 
     656              
     657              $C$DW$45        .dwtag  DW_TAG_variable
     658                      .dwattr $C$DW$45, DW_AT_name("LLC_dutySet_debug_pu")
     659                      .dwattr $C$DW$45, DW_AT_linkage_name("LLC_dutySet_debug_pu")
     660                      .dwattr $C$DW$45, DW_AT_location[DW_OP_addr ||LLC_dutySet_debug_pu||]
     661                      .dwattr $C$DW$45, DW_AT_type(*$C$DW$T$105)
     662                      .dwattr $C$DW$45, DW_AT_external
     663                      .dwattr $C$DW$45, DW_AT_decl_file("../llc.c")
     664                      .dwattr $C$DW$45, DW_AT_decl_line(0x87)
     665                      .dwattr $C$DW$45, DW_AT_decl_column(0x14)
     666              
     667                      .global ||LLC_vSecRef_debug_Volts||
     668 00000032               .sect   "controlVariables:init", RW
     669                      .align  2
     670                      .elfsym ||LLC_vSecRef_debug_Volts||,SYM_SIZE(2),SYM_BLOCKED(1)
     671 00000032       ||LLC_vSecRef_debug_Volts||:
     672 00000032 0000          .xfloat $strtod("0x0p+0")               ; LLC_vSecRef_debug_Volts @ 0
         00000033 0000 
     673              
     674              $C$DW$46        .dwtag  DW_TAG_variable
     675                      .dwattr $C$DW$46, DW_AT_name("LLC_vSecRef_debug_Volts")
     676                      .dwattr $C$DW$46, DW_AT_linkage_name("LLC_vSecRef_debug_Volts")
     677                      .dwattr $C$DW$46, DW_AT_location[DW_OP_addr ||LLC_vSecRef_debug_Volts||]
     678                      .dwattr $C$DW$46, DW_AT_type(*$C$DW$T$105)
     679                      .dwattr $C$DW$46, DW_AT_external
     680                      .dwattr $C$DW$46, DW_AT_decl_file("../llc.c")
     681                      .dwattr $C$DW$46, DW_AT_decl_line(0x8c)
     682                      .dwattr $C$DW$46, DW_AT_decl_column(0x14)
     683              
     684 00000001               .data
     685                      .align  2
     686                      .elfsym ||diff$2||,SYM_SIZE(2),SYM_BLOCKED(1)
     687 00000002       ||diff$2||:
     688 00000002 0000          .xfloat $strtod("0x0p+0")               ; diff$2 @ 0
         00000003 0000 
     689              
     690              
     691              $C$DW$47        .dwtag  DW_TAG_subprogram
     692                      .dwattr $C$DW$47, DW_AT_name("__eallow")
     693                      .dwattr $C$DW$47, DW_AT_linkage_name("__eallow")
TMS320C2000 Assembler PC v22.6.1 Thu Mar 28 17:35:23 2024

Copyright (c) 1996-2018 Texas Instruments Incorporated
llc.asm                                                              PAGE   14

     694                      .dwattr $C$DW$47, DW_AT_declaration
     695                      .dwattr $C$DW$47, DW_AT_external
     696                      .dwendtag $C$DW$47
     697              
     698              
     699              $C$DW$48        .dwtag  DW_TAG_subprogram
     700                      .dwattr $C$DW$48, DW_AT_name("__edis")
     701                      .dwattr $C$DW$48, DW_AT_linkage_name("__edis")
     702                      .dwattr $C$DW$48, DW_AT_declaration
     703                      .dwattr $C$DW$48, DW_AT_external
     704                      .dwendtag $C$DW$48
     705              
     706                      .global ||LLC_ctrl_DF22||
     707 00000034               .sect   "controlVariables:init", RW
     708                      .align  2
     709                      .elfsym ||LLC_ctrl_DF22||,SYM_SIZE(18),SYM_BLOCKED(1)
     710 00000040       ||LLC_ctrl_DF22||:
     711 00000040 0000          .xfloat $strtod("0x1p+0")               ; LLC_ctrl_DF22.b0 @ 0
         00000041 3F80 
     712 00000042 0000          .xfloat $strtod("0x0p+0")               ; LLC_ctrl_DF22.b1 @ 32
         00000043 0000 
     713 00000044 0000          .xfloat $strtod("0x0p+0")               ; LLC_ctrl_DF22.b2 @ 64
         00000045 0000 
     714 00000046 0000          .xfloat $strtod("0x0p+0")               ; LLC_ctrl_DF22.a1 @ 96
         00000047 0000 
     715 00000048 0000          .xfloat $strtod("0x0p+0")               ; LLC_ctrl_DF22.a2 @ 128
         00000049 0000 
     716 0000004a 0000          .xfloat $strtod("0x0p+0")               ; LLC_ctrl_DF22.x1 @ 160
         0000004b 0000 
     717 0000004c 0000          .xfloat $strtod("0x0p+0")               ; LLC_ctrl_DF22.x2 @ 192
         0000004d 0000 
     718 0000004e 0000          .bits           0,32
         0000004f 0000 
     719                                      ; LLC_ctrl_DF22.sps @ 224
     720 00000050 0000          .bits           0,32
         00000051 0000 
     721                                      ; LLC_ctrl_DF22.css @ 256
     722              
     723              $C$DW$49        .dwtag  DW_TAG_variable
     724                      .dwattr $C$DW$49, DW_AT_name("LLC_ctrl_DF22")
     725                      .dwattr $C$DW$49, DW_AT_linkage_name("LLC_ctrl_DF22")
     726                      .dwattr $C$DW$49, DW_AT_location[DW_OP_addr ||LLC_ctrl_DF22||]
     727                      .dwattr $C$DW$49, DW_AT_type(*$C$DW$T$114)
     728                      .dwattr $C$DW$49, DW_AT_external
     729                      .dwattr $C$DW$49, DW_AT_decl_file("../llc.c")
     730                      .dwattr $C$DW$49, DW_AT_decl_line(0x53)
     731                      .dwattr $C$DW$49, DW_AT_decl_column(0x13)
     732              
     733                      .global ||LLC_ctrl_PID||
     734 00000052               .sect   "controlVariables:init", RW
     735                      .align  2
     736                      .elfsym ||LLC_ctrl_PID||,SYM_SIZE(28),SYM_BLOCKED(1)
     737 00000052       ||LLC_ctrl_PID||:
     738 00000052 0000          .xfloat $strtod("0x1p+0")               ; LLC_ctrl_PID.Kp @ 0
         00000053 3F80 
TMS320C2000 Assembler PC v22.6.1 Thu Mar 28 17:35:23 2024

Copyright (c) 1996-2018 Texas Instruments Incorporated
llc.asm                                                              PAGE   15

     739 00000054 0000          .xfloat $strtod("0x0p+0")               ; LLC_ctrl_PID.Ki @ 32
         00000055 0000 
     740 00000056 0000          .xfloat $strtod("0x0p+0")               ; LLC_ctrl_PID.Kd @ 64
         00000057 0000 
     741 00000058 0000          .xfloat $strtod("0x1p+0")               ; LLC_ctrl_PID.Kr @ 96
         00000059 3F80 
     742 0000005a 0000          .xfloat $strtod("0x1p+0")               ; LLC_ctrl_PID.c1 @ 128
         0000005b 3F80 
     743 0000005c 0000          .xfloat $strtod("0x0p+0")               ; LLC_ctrl_PID.c2 @ 160
         0000005d 0000 
     744 0000005e 0000          .xfloat $strtod("0x0p+0")               ; LLC_ctrl_PID.d2 @ 192
         0000005f 0000 
     745 00000060 0000          .xfloat $strtod("0x0p+0")               ; LLC_ctrl_PID.d3 @ 224
         00000061 0000 
     746 00000062 0000          .xfloat $strtod("0x0p+0")               ; LLC_ctrl_PID.i10 @ 256
         00000063 0000 
     747 00000064 0000          .xfloat $strtod("0x1p+0")               ; LLC_ctrl_PID.i14 @ 288
         00000065 3F80 
     748 00000066 0000          .xfloat $strtod("0x1p+0")               ; LLC_ctrl_PID.Umax @ 320
         00000067 3F80 
     749 00000068 0000          .xfloat $strtod("-0x1p+0")              ; LLC_ctrl_PID.Umin @ 352
         00000069 BF80 
     750 0000006a 0000          .bits           0,32
         0000006b 0000 
     751                                      ; LLC_ctrl_PID.sps @ 384
     752 0000006c 0000          .bits           0,32
         0000006d 0000 
     753                                      ; LLC_ctrl_PID.css @ 416
     754              
     755              $C$DW$50        .dwtag  DW_TAG_variable
     756                      .dwattr $C$DW$50, DW_AT_name("LLC_ctrl_PID")
     757                      .dwattr $C$DW$50, DW_AT_linkage_name("LLC_ctrl_PID")
     758                      .dwattr $C$DW$50, DW_AT_location[DW_OP_addr ||LLC_ctrl_PID||]
     759                      .dwattr $C$DW$50, DW_AT_type(*$C$DW$T$117)
     760                      .dwattr $C$DW$50, DW_AT_external
     761                      .dwattr $C$DW$50, DW_AT_decl_file("../llc.c")
     762                      .dwattr $C$DW$50, DW_AT_decl_line(0x4c)
     763                      .dwattr $C$DW$50, DW_AT_decl_column(0x13)
     764              
     765                      .sblock ".data"
     766                      .sblock "controlVariables:init"
     767                      .sblock "controlVariables:uninit"
     768              ;       C:\ti\ccs1250\ccs\tools\compiler\ti-cgt-c2000_22.6.1.LTS\bin\opt2000.exe C:\\Users\\Joel9\\AppData\\L
     769              ;       C:\ti\ccs1250\ccs\tools\compiler\ti-cgt-c2000_22.6.1.LTS\bin\acia2000.exe -@C:\\Users\\Joel9\\AppData
     770 00000000               .sect   ".text:__signbitl"
     771                      .clink
     772                      .global ||__signbitl||
     773              
     774              $C$DW$51        .dwtag  DW_TAG_subprogram
     775                      .dwattr $C$DW$51, DW_AT_name("__signbitl")
     776                      .dwattr $C$DW$51, DW_AT_low_pc(||__signbitl||)
     777                      .dwattr $C$DW$51, DW_AT_high_pc(0x00)
     778                      .dwattr $C$DW$51, DW_AT_linkage_name("__signbitl")
     779                      .dwattr $C$DW$51, DW_AT_external
     780                      .dwattr $C$DW$51, DW_AT_type(*$C$DW$T$10)
TMS320C2000 Assembler PC v22.6.1 Thu Mar 28 17:35:23 2024

Copyright (c) 1996-2018 Texas Instruments Incorporated
llc.asm                                                              PAGE   16

     781                      .dwattr $C$DW$51, DW_AT_decl_file("C:/ti/ccs1250/ccs/tools/compiler/ti-cgt-c2000_22.6.1.LTS/include/_
     782                      .dwattr $C$DW$51, DW_AT_decl_line(0x16f)
     783                      .dwattr $C$DW$51, DW_AT_decl_column(0x18)
     784                      .dwattr $C$DW$51, DW_AT_TI_max_frame_size(-6)
     785                      .dwpsn  file "C:/ti/ccs1250/ccs/tools/compiler/ti-cgt-c2000_22.6.1.LTS/include/_defs.h",line 368,colu
     786              
     787                      .dwfde $C$DW$CIE, ||__signbitl||
     788              $C$DW$52        .dwtag  DW_TAG_formal_parameter
     789                      .dwattr $C$DW$52, DW_AT_name("e")
     790                      .dwattr $C$DW$52, DW_AT_type(*$C$DW$T$110)
     791                      .dwattr $C$DW$52, DW_AT_location[DW_OP_reg12]
     792              
     793              
     794              ;***************************************************************
     795              ;* FNAME: __signbitl                    FR SIZE:   4           *
     796              ;*                                                             *
     797              ;* FUNCTION ENVIRONMENT                                        *
     798              ;*                                                             *
     799              ;* FUNCTION PROPERTIES                                         *
     800              ;*                            4 Parameter,  0 Auto,  0 SOE     *
     801              ;***************************************************************
     802              
     803              ||__signbitl||:
     804              ;* AR4   assigned to e
     805              $C$DW$53        .dwtag  DW_TAG_variable
     806                      .dwattr $C$DW$53, DW_AT_name("e")
     807                      .dwattr $C$DW$53, DW_AT_type(*$C$DW$T$111)
     808                      .dwattr $C$DW$53, DW_AT_location[DW_OP_reg12]
     809              
     810                      .dwcfi  cfa_offset, -2
     811                      .dwcfi  save_reg_to_mem, 26, 0
     812 00000000 FE04          ADDB      SP,#4                 ; [CPU_ARAU] 
     813                      .dwcfi  cfa_offset, -6
     814                      .dwpsn  file "C:/ti/ccs1250/ccs/tools/compiler/ti-cgt-c2000_22.6.1.LTS/include/_defs.h",line 368,colu
     815 00000001 0200          MOVB      ACC,#0                ; [CPU_ALU] |368| 
     816 00000002 1E44          MOVL      *-SP[4],ACC           ; [CPU_ALU] |368| 
     817 00000003 2B42          MOV       *-SP[2],#0            ; [CPU_ALU] |368| 
     818 00000004 2B41          MOV       *-SP[1],#0            ; [CPU_ALU] |368| 
     819 00000005 A3C4          MOVL      P,*+XAR4[0]           ; [CPU_ALU] |368| 
     820 00000006 06D4          MOVL      ACC,*+XAR4[2]         ; [CPU_ALU] |368| 
     821 00000007 18AB          AND       PL,#0                 ; [CPU_ALU] |368| 
         00000008 0000 
     822 00000009 18AA          AND       PH,#0                 ; [CPU_ALU] |368| 
         0000000a 0000 
     823 0000000b 9000          ANDB      AL,#0                 ; [CPU_ALU] |368| 
     824 0000000c 18A8          AND       AH,#32768             ; [CPU_ALU] |368| 
         0000000d 8000 
     825              $C$DW$54        .dwtag  DW_TAG_TI_branch
     826                      .dwattr $C$DW$54, DW_AT_low_pc(0x00)
     827                      .dwattr $C$DW$54, DW_AT_name("__c28xabi_cmpull")
     828                      .dwattr $C$DW$54, DW_AT_TI_call
     829              
     830 0000000e 7640!         LCR       #||__c28xabi_cmpull|| ; [CPU_ALU] |368| 
         0000000f 0000 
     831                      ; call occurs [#||__c28xabi_cmpull||] ; [] |368| 
TMS320C2000 Assembler PC v22.6.1 Thu Mar 28 17:35:23 2024

Copyright (c) 1996-2018 Texas Instruments Incorporated
llc.asm                                                              PAGE   17

     832 00000010 9B00          MOVB      AH,#0                 ; [CPU_ALU] |368| 
     833 00000011 5200          CMPB      AL,#0                 ; [CPU_ALU] |368| 
     834 00000012 56B0          MOVB      AH,#1,NEQ             ; [CPU_ALU] |368| 
         00000013 01A8 
     835 00000014 92A8          MOV       AL,AH                 ; [CPU_ALU] |368| 
     836 00000015 FE84          SUBB      SP,#4                 ; [CPU_ARAU] 
     837                      .dwcfi  cfa_offset, -2
     838              $C$DW$55        .dwtag  DW_TAG_TI_branch
     839                      .dwattr $C$DW$55, DW_AT_low_pc(0x00)
     840                      .dwattr $C$DW$55, DW_AT_TI_return
     841              
     842 00000016 0006          LRETR     ; [CPU_ALU] 
     843                      ; return occurs ; [] 
     844                      .dwattr $C$DW$51, DW_AT_TI_end_file("C:/ti/ccs1250/ccs/tools/compiler/ti-cgt-c2000_22.6.1.LTS/include
     845                      .dwattr $C$DW$51, DW_AT_TI_end_line(0x170)
     846                      .dwattr $C$DW$51, DW_AT_TI_end_column(0x2b)
     847                      .dwendentry
     848                      .dwendtag $C$DW$51
     849              
     850 00000000               .sect   ".text:__signbitf"
     851                      .clink
     852                      .global ||__signbitf||
     853              
     854              $C$DW$56        .dwtag  DW_TAG_subprogram
     855                      .dwattr $C$DW$56, DW_AT_name("__signbitf")
     856                      .dwattr $C$DW$56, DW_AT_low_pc(||__signbitf||)
     857                      .dwattr $C$DW$56, DW_AT_high_pc(0x00)
     858                      .dwattr $C$DW$56, DW_AT_linkage_name("__signbitf")
     859                      .dwattr $C$DW$56, DW_AT_external
     860                      .dwattr $C$DW$56, DW_AT_type(*$C$DW$T$10)
     861                      .dwattr $C$DW$56, DW_AT_decl_file("C:/ti/ccs1250/ccs/tools/compiler/ti-cgt-c2000_22.6.1.LTS/include/_
     862                      .dwattr $C$DW$56, DW_AT_decl_line(0x16d)
     863                      .dwattr $C$DW$56, DW_AT_decl_column(0x18)
     864                      .dwattr $C$DW$56, DW_AT_TI_max_frame_size(-2)
     865                      .dwpsn  file "C:/ti/ccs1250/ccs/tools/compiler/ti-cgt-c2000_22.6.1.LTS/include/_defs.h",line 366,colu
     866              
     867                      .dwfde $C$DW$CIE, ||__signbitf||
     868              $C$DW$57        .dwtag  DW_TAG_formal_parameter
     869                      .dwattr $C$DW$57, DW_AT_name("f")
     870                      .dwattr $C$DW$57, DW_AT_type(*$C$DW$T$16)
     871                      .dwattr $C$DW$57, DW_AT_location[DW_OP_regx 0x2b]
     872              
     873              
     874              ;***************************************************************
     875              ;* FNAME: __signbitf                    FR SIZE:   0           *
     876              ;*                                                             *
     877              ;* FUNCTION ENVIRONMENT                                        *
     878              ;*                                                             *
     879              ;* FUNCTION PROPERTIES                                         *
     880              ;*                            0 Parameter,  0 Auto,  0 SOE     *
     881              ;***************************************************************
     882              
     883              ||__signbitf||:
     884              ;* R0    assigned to f
     885              $C$DW$58        .dwtag  DW_TAG_variable
TMS320C2000 Assembler PC v22.6.1 Thu Mar 28 17:35:23 2024

Copyright (c) 1996-2018 Texas Instruments Incorporated
llc.asm                                                              PAGE   18

     886                      .dwattr $C$DW$58, DW_AT_name("f")
     887                      .dwattr $C$DW$58, DW_AT_type(*$C$DW$T$102)
     888                      .dwattr $C$DW$58, DW_AT_location[DW_OP_regx 0x2b]
     889              
     890                      .dwcfi  cfa_offset, -2
     891                      .dwcfi  save_reg_to_mem, 26, 0
     892                      .dwpsn  file "C:/ti/ccs1250/ccs/tools/compiler/ti-cgt-c2000_22.6.1.LTS/include/_defs.h",line 366,colu
     893 00000000 BFA9          MOV32     ACC,R0H               ; [CPU_FPU] |366| 
         00000001 0F12 
     894 00000002 BE00          MOVB      XAR6,#0               ; [CPU_ALU] |366| 
     895 00000003 9000          ANDB      AL,#0                 ; [CPU_ALU] |366| 
     896 00000004 18A8          AND       AH,#32768             ; [CPU_ALU] |366| 
         00000005 8000 
     897 00000006 FF58          TEST      ACC                   ; [CPU_ALU] |366| 
     898 00000007 56B0          MOVB      XAR6,#1,NEQ           ; [CPU_ALU] |366| 
         00000008 01A6 
     899 00000009 92A6          MOV       AL,AR6                ; [CPU_ALU] |366| 
     900              $C$DW$59        .dwtag  DW_TAG_TI_branch
     901                      .dwattr $C$DW$59, DW_AT_low_pc(0x00)
     902                      .dwattr $C$DW$59, DW_AT_TI_return
     903              
     904 0000000a 0006          LRETR     ; [CPU_ALU] 
     905                      ; return occurs ; [] 
     906                      .dwattr $C$DW$56, DW_AT_TI_end_file("C:/ti/ccs1250/ccs/tools/compiler/ti-cgt-c2000_22.6.1.LTS/include
     907                      .dwattr $C$DW$56, DW_AT_TI_end_line(0x16e)
     908                      .dwattr $C$DW$56, DW_AT_TI_end_column(0x29)
     909                      .dwendentry
     910                      .dwendtag $C$DW$56
     911              
     912 00000000               .sect   ".text:__signbit"
     913                      .clink
     914                      .global ||__signbit||
     915              
     916              $C$DW$60        .dwtag  DW_TAG_subprogram
     917                      .dwattr $C$DW$60, DW_AT_name("__signbit")
     918                      .dwattr $C$DW$60, DW_AT_low_pc(||__signbit||)
     919                      .dwattr $C$DW$60, DW_AT_high_pc(0x00)
     920                      .dwattr $C$DW$60, DW_AT_linkage_name("__signbit")
     921                      .dwattr $C$DW$60, DW_AT_external
     922                      .dwattr $C$DW$60, DW_AT_type(*$C$DW$T$10)
     923                      .dwattr $C$DW$60, DW_AT_decl_file("C:/ti/ccs1250/ccs/tools/compiler/ti-cgt-c2000_22.6.1.LTS/include/_
     924                      .dwattr $C$DW$60, DW_AT_decl_line(0x16b)
     925                      .dwattr $C$DW$60, DW_AT_decl_column(0x18)
     926                      .dwattr $C$DW$60, DW_AT_TI_max_frame_size(-6)
     927                      .dwpsn  file "C:/ti/ccs1250/ccs/tools/compiler/ti-cgt-c2000_22.6.1.LTS/include/_defs.h",line 364,colu
     928              
     929                      .dwfde $C$DW$CIE, ||__signbit||
     930              $C$DW$61        .dwtag  DW_TAG_formal_parameter
     931                      .dwattr $C$DW$61, DW_AT_name("d")
     932                      .dwattr $C$DW$61, DW_AT_type(*$C$DW$T$107)
     933                      .dwattr $C$DW$61, DW_AT_location[DW_OP_reg12]
     934              
     935              
     936              ;***************************************************************
     937              ;* FNAME: __signbit                     FR SIZE:   4           *
TMS320C2000 Assembler PC v22.6.1 Thu Mar 28 17:35:23 2024

Copyright (c) 1996-2018 Texas Instruments Incorporated
llc.asm                                                              PAGE   19

     938              ;*                                                             *
     939              ;* FUNCTION ENVIRONMENT                                        *
     940              ;*                                                             *
     941              ;* FUNCTION PROPERTIES                                         *
     942              ;*                            4 Parameter,  0 Auto,  0 SOE     *
     943              ;***************************************************************
     944              
     945              ||__signbit||:
     946              ;* AR4   assigned to d
     947              $C$DW$62        .dwtag  DW_TAG_variable
     948                      .dwattr $C$DW$62, DW_AT_name("d")
     949                      .dwattr $C$DW$62, DW_AT_type(*$C$DW$T$108)
     950                      .dwattr $C$DW$62, DW_AT_location[DW_OP_reg12]
     951              
     952                      .dwcfi  cfa_offset, -2
     953                      .dwcfi  save_reg_to_mem, 26, 0
     954 00000000 FE04          ADDB      SP,#4                 ; [CPU_ARAU] 
     955                      .dwcfi  cfa_offset, -6
     956                      .dwpsn  file "C:/ti/ccs1250/ccs/tools/compiler/ti-cgt-c2000_22.6.1.LTS/include/_defs.h",line 364,colu
     957 00000001 0200          MOVB      ACC,#0                ; [CPU_ALU] |364| 
     958 00000002 1E44          MOVL      *-SP[4],ACC           ; [CPU_ALU] |364| 
     959 00000003 2B42          MOV       *-SP[2],#0            ; [CPU_ALU] |364| 
     960 00000004 2B41          MOV       *-SP[1],#0            ; [CPU_ALU] |364| 
     961 00000005 A3C4          MOVL      P,*+XAR4[0]           ; [CPU_ALU] |364| 
     962 00000006 06D4          MOVL      ACC,*+XAR4[2]         ; [CPU_ALU] |364| 
     963 00000007 18AB          AND       PL,#0                 ; [CPU_ALU] |364| 
         00000008 0000 
     964 00000009 18AA          AND       PH,#0                 ; [CPU_ALU] |364| 
         0000000a 0000 
     965 0000000b 9000          ANDB      AL,#0                 ; [CPU_ALU] |364| 
     966 0000000c 18A8          AND       AH,#32768             ; [CPU_ALU] |364| 
         0000000d 8000 
     967              $C$DW$63        .dwtag  DW_TAG_TI_branch
     968                      .dwattr $C$DW$63, DW_AT_low_pc(0x00)
     969                      .dwattr $C$DW$63, DW_AT_name("__c28xabi_cmpull")
     970                      .dwattr $C$DW$63, DW_AT_TI_call
     971              
     972 0000000e 7640!         LCR       #||__c28xabi_cmpull|| ; [CPU_ALU] |364| 
         0000000f 0000 
     973                      ; call occurs [#||__c28xabi_cmpull||] ; [] |364| 
     974 00000010 9B00          MOVB      AH,#0                 ; [CPU_ALU] |364| 
     975 00000011 5200          CMPB      AL,#0                 ; [CPU_ALU] |364| 
     976 00000012 56B0          MOVB      AH,#1,NEQ             ; [CPU_ALU] |364| 
         00000013 01A8 
     977 00000014 92A8          MOV       AL,AH                 ; [CPU_ALU] |364| 
     978 00000015 FE84          SUBB      SP,#4                 ; [CPU_ARAU] 
     979                      .dwcfi  cfa_offset, -2
     980              $C$DW$64        .dwtag  DW_TAG_TI_branch
     981                      .dwattr $C$DW$64, DW_AT_low_pc(0x00)
     982                      .dwattr $C$DW$64, DW_AT_TI_return
     983              
     984 00000016 0006          LRETR     ; [CPU_ALU] 
     985                      ; return occurs ; [] 
     986                      .dwattr $C$DW$60, DW_AT_TI_end_file("C:/ti/ccs1250/ccs/tools/compiler/ti-cgt-c2000_22.6.1.LTS/include
     987                      .dwattr $C$DW$60, DW_AT_TI_end_line(0x16c)
TMS320C2000 Assembler PC v22.6.1 Thu Mar 28 17:35:23 2024

Copyright (c) 1996-2018 Texas Instruments Incorporated
llc.asm                                                              PAGE   20

     988                      .dwattr $C$DW$60, DW_AT_TI_end_column(0x2a)
     989                      .dwendentry
     990                      .dwendtag $C$DW$60
     991              
     992 00000000               .sect   ".text:__relaxed_sqrtf"
     993                      .clink
     994                      .global ||__relaxed_sqrtf||
     995              
     996              $C$DW$65        .dwtag  DW_TAG_subprogram
     997                      .dwattr $C$DW$65, DW_AT_name("__relaxed_sqrtf")
     998                      .dwattr $C$DW$65, DW_AT_low_pc(||__relaxed_sqrtf||)
     999                      .dwattr $C$DW$65, DW_AT_high_pc(0x00)
    1000                      .dwattr $C$DW$65, DW_AT_linkage_name("__relaxed_sqrtf")
    1001                      .dwattr $C$DW$65, DW_AT_external
    1002                      .dwattr $C$DW$65, DW_AT_type(*$C$DW$T$16)
    1003                      .dwattr $C$DW$65, DW_AT_decl_file("C:/ti/ccs1250/ccs/tools/compiler/ti-cgt-c2000_22.6.1.LTS/include/m
    1004                      .dwattr $C$DW$65, DW_AT_decl_line(0x103)
    1005                      .dwattr $C$DW$65, DW_AT_decl_column(0x10)
    1006                      .dwattr $C$DW$65, DW_AT_TI_max_frame_size(-2)
    1007                      .dwpsn  file "C:/ti/ccs1250/ccs/tools/compiler/ti-cgt-c2000_22.6.1.LTS/include/math.h",line 260,colum
    1008              
    1009                      .dwfde $C$DW$CIE, ||__relaxed_sqrtf||
    1010              $C$DW$66        .dwtag  DW_TAG_formal_parameter
    1011                      .dwattr $C$DW$66, DW_AT_name("x")
    1012                      .dwattr $C$DW$66, DW_AT_type(*$C$DW$T$16)
    1013                      .dwattr $C$DW$66, DW_AT_location[DW_OP_regx 0x2b]
    1014              
    1015              
    1016              ;***************************************************************
    1017              ;* FNAME: __relaxed_sqrtf               FR SIZE:   0           *
    1018              ;*                                                             *
    1019              ;* FUNCTION ENVIRONMENT                                        *
    1020              ;*                                                             *
    1021              ;* FUNCTION PROPERTIES                                         *
    1022              ;*                            0 Parameter,  0 Auto,  0 SOE     *
    1023              ;***************************************************************
    1024              
    1025              ||__relaxed_sqrtf||:
    1026              ;* R0    assigned to x
    1027              $C$DW$67        .dwtag  DW_TAG_variable
    1028                      .dwattr $C$DW$67, DW_AT_name("x")
    1029                      .dwattr $C$DW$67, DW_AT_type(*$C$DW$T$102)
    1030                      .dwattr $C$DW$67, DW_AT_location[DW_OP_regx 0x2b]
    1031              
    1032                      .dwcfi  cfa_offset, -2
    1033                      .dwcfi  save_reg_to_mem, 26, 0
    1034                      .dwpsn  file "C:/ti/ccs1250/ccs/tools/compiler/ti-cgt-c2000_22.6.1.LTS/include/math.h",line 261,colum
    1035 00000000 E277          SQRTF32   R0H,R0H               ; [CPU_FPU] |261| 
         00000001 0000 
    1036 00000002 7700          NOP       ; [CPU_ALU] 
    1037 00000003 7700          NOP       ; [CPU_ALU] 
    1038 00000004 7700          NOP       ; [CPU_ALU] 
    1039              $C$DW$68        .dwtag  DW_TAG_TI_branch
    1040                      .dwattr $C$DW$68, DW_AT_low_pc(0x00)
    1041                      .dwattr $C$DW$68, DW_AT_TI_return
TMS320C2000 Assembler PC v22.6.1 Thu Mar 28 17:35:23 2024

Copyright (c) 1996-2018 Texas Instruments Incorporated
llc.asm                                                              PAGE   21

    1042              
    1043 00000005 0006          LRETR     ; [CPU_ALU] 
    1044                      ; return occurs ; [] 
    1045                      .dwattr $C$DW$65, DW_AT_TI_end_file("C:/ti/ccs1250/ccs/tools/compiler/ti-cgt-c2000_22.6.1.LTS/include
    1046                      .dwattr $C$DW$65, DW_AT_TI_end_line(0x106)
    1047                      .dwattr $C$DW$65, DW_AT_TI_end_column(0x01)
    1048                      .dwendentry
    1049                      .dwendtag $C$DW$65
    1050              
    1051 00000000               .sect   ".text:__relaxed_sinf"
    1052                      .clink
    1053                      .global ||__relaxed_sinf||
    1054              
    1055              $C$DW$69        .dwtag  DW_TAG_subprogram
    1056                      .dwattr $C$DW$69, DW_AT_name("__relaxed_sinf")
    1057                      .dwattr $C$DW$69, DW_AT_low_pc(||__relaxed_sinf||)
    1058                      .dwattr $C$DW$69, DW_AT_high_pc(0x00)
    1059                      .dwattr $C$DW$69, DW_AT_linkage_name("__relaxed_sinf")
    1060                      .dwattr $C$DW$69, DW_AT_external
    1061                      .dwattr $C$DW$69, DW_AT_type(*$C$DW$T$16)
    1062                      .dwattr $C$DW$69, DW_AT_decl_file("C:/ti/ccs1250/ccs/tools/compiler/ti-cgt-c2000_22.6.1.LTS/include/m
    1063                      .dwattr $C$DW$69, DW_AT_decl_line(0x108)
    1064                      .dwattr $C$DW$69, DW_AT_decl_column(0x10)
    1065                      .dwattr $C$DW$69, DW_AT_TI_max_frame_size(-2)
    1066                      .dwpsn  file "C:/ti/ccs1250/ccs/tools/compiler/ti-cgt-c2000_22.6.1.LTS/include/math.h",line 265,colum
    1067              
    1068                      .dwfde $C$DW$CIE, ||__relaxed_sinf||
    1069              $C$DW$70        .dwtag  DW_TAG_formal_parameter
    1070                      .dwattr $C$DW$70, DW_AT_name("x")
    1071                      .dwattr $C$DW$70, DW_AT_type(*$C$DW$T$16)
    1072                      .dwattr $C$DW$70, DW_AT_location[DW_OP_regx 0x2b]
    1073              
    1074              
    1075              ;***************************************************************
    1076              ;* FNAME: __relaxed_sinf                FR SIZE:   0           *
    1077              ;*                                                             *
    1078              ;* FUNCTION ENVIRONMENT                                        *
    1079              ;*                                                             *
    1080              ;* FUNCTION PROPERTIES                                         *
    1081              ;*                            0 Parameter,  0 Auto,  0 SOE     *
    1082              ;***************************************************************
    1083              
    1084              ||__relaxed_sinf||:
    1085              ;* R0    assigned to x
    1086              $C$DW$71        .dwtag  DW_TAG_variable
    1087                      .dwattr $C$DW$71, DW_AT_name("x")
    1088                      .dwattr $C$DW$71, DW_AT_type(*$C$DW$T$102)
    1089                      .dwattr $C$DW$71, DW_AT_location[DW_OP_regx 0x2b]
    1090              
    1091                      .dwcfi  cfa_offset, -2
    1092                      .dwcfi  save_reg_to_mem, 26, 0
    1093                      .dwpsn  file "C:/ti/ccs1250/ccs/tools/compiler/ti-cgt-c2000_22.6.1.LTS/include/math.h",line 266,colum
    1094 00000000 E271          DIV2PIF32 R0H,R0H               ; [CPU_FPU] |266| 
         00000001 0000 
    1095 00000002 7700          NOP       ; [CPU_ALU] 
TMS320C2000 Assembler PC v22.6.1 Thu Mar 28 17:35:23 2024

Copyright (c) 1996-2018 Texas Instruments Incorporated
llc.asm                                                              PAGE   22

    1096 00000003 E278          SINPUF32  R0H,R0H               ; [CPU_FPU] |266| 
         00000004 0000 
    1097 00000005 7700          NOP       ; [CPU_ALU] 
    1098 00000006 7700          NOP       ; [CPU_ALU] 
    1099              $C$DW$72        .dwtag  DW_TAG_TI_branch
    1100                      .dwattr $C$DW$72, DW_AT_low_pc(0x00)
    1101                      .dwattr $C$DW$72, DW_AT_TI_return
    1102              
    1103 00000007 0006          LRETR     ; [CPU_ALU] 
    1104                      ; return occurs ; [] 
    1105                      .dwattr $C$DW$69, DW_AT_TI_end_file("C:/ti/ccs1250/ccs/tools/compiler/ti-cgt-c2000_22.6.1.LTS/include
    1106                      .dwattr $C$DW$69, DW_AT_TI_end_line(0x10b)
    1107                      .dwattr $C$DW$69, DW_AT_TI_end_column(0x01)
    1108                      .dwendentry
    1109                      .dwendtag $C$DW$69
    1110              
    1111 00000000               .sect   ".text:__relaxed_powf"
    1112                      .clink
    1113                      .global ||__relaxed_powf||
    1114              
    1115              $C$DW$73        .dwtag  DW_TAG_subprogram
    1116                      .dwattr $C$DW$73, DW_AT_name("__relaxed_powf")
    1117                      .dwattr $C$DW$73, DW_AT_low_pc(||__relaxed_powf||)
    1118                      .dwattr $C$DW$73, DW_AT_high_pc(0x00)
    1119                      .dwattr $C$DW$73, DW_AT_linkage_name("__relaxed_powf")
    1120                      .dwattr $C$DW$73, DW_AT_external
    1121                      .dwattr $C$DW$73, DW_AT_type(*$C$DW$T$16)
    1122                      .dwattr $C$DW$73, DW_AT_decl_file("C:/ti/ccs1250/ccs/tools/compiler/ti-cgt-c2000_22.6.1.LTS/include/m
    1123                      .dwattr $C$DW$73, DW_AT_decl_line(0x139)
    1124                      .dwattr $C$DW$73, DW_AT_decl_column(0x10)
    1125                      .dwattr $C$DW$73, DW_AT_TI_max_frame_size(-4)
    1126                      .dwpsn  file "C:/ti/ccs1250/ccs/tools/compiler/ti-cgt-c2000_22.6.1.LTS/include/math.h",line 314,colum
    1127              
    1128                      .dwfde $C$DW$CIE, ||__relaxed_powf||
    1129              $C$DW$74        .dwtag  DW_TAG_formal_parameter
    1130                      .dwattr $C$DW$74, DW_AT_name("x")
    1131                      .dwattr $C$DW$74, DW_AT_type(*$C$DW$T$16)
    1132                      .dwattr $C$DW$74, DW_AT_location[DW_OP_regx 0x2b]
    1133              
    1134              $C$DW$75        .dwtag  DW_TAG_formal_parameter
    1135                      .dwattr $C$DW$75, DW_AT_name("y")
    1136                      .dwattr $C$DW$75, DW_AT_type(*$C$DW$T$16)
    1137                      .dwattr $C$DW$75, DW_AT_location[DW_OP_regx 0x2f]
    1138              
    1139              
    1140              ;***************************************************************
    1141              ;* FNAME: __relaxed_powf                FR SIZE:   2           *
    1142              ;*                                                             *
    1143              ;* FUNCTION ENVIRONMENT                                        *
    1144              ;*                                                             *
    1145              ;* FUNCTION PROPERTIES                                         *
    1146              ;*                            2 Parameter,  0 Auto,  0 SOE     *
    1147              ;***************************************************************
    1148              
    1149              ||__relaxed_powf||:
TMS320C2000 Assembler PC v22.6.1 Thu Mar 28 17:35:23 2024

Copyright (c) 1996-2018 Texas Instruments Incorporated
llc.asm                                                              PAGE   23

    1150              ;* R1    assigned to $O$C1
    1151              ;* R0    assigned to $O$K6
    1152              ;* R0    assigned to x
    1153              $C$DW$76        .dwtag  DW_TAG_variable
    1154                      .dwattr $C$DW$76, DW_AT_name("x")
    1155                      .dwattr $C$DW$76, DW_AT_type(*$C$DW$T$102)
    1156                      .dwattr $C$DW$76, DW_AT_location[DW_OP_regx 0x2b]
    1157              
    1158              ;* R1    assigned to y
    1159              $C$DW$77        .dwtag  DW_TAG_variable
    1160                      .dwattr $C$DW$77, DW_AT_name("y")
    1161                      .dwattr $C$DW$77, DW_AT_type(*$C$DW$T$102)
    1162                      .dwattr $C$DW$77, DW_AT_location[DW_OP_regx 0x2f]
    1163              
    1164              ;* R0    assigned to exp2foflog2ofxtimesy
    1165              $C$DW$78        .dwtag  DW_TAG_variable
    1166                      .dwattr $C$DW$78, DW_AT_name("exp2foflog2ofxtimesy")
    1167                      .dwattr $C$DW$78, DW_AT_type(*$C$DW$T$16)
    1168                      .dwattr $C$DW$78, DW_AT_location[DW_OP_regx 0x2b]
    1169              
    1170                      .dwcfi  cfa_offset, -2
    1171                      .dwcfi  save_reg_to_mem, 26, 0
    1172 00000000 FE02          ADDB      SP,#2                 ; [CPU_ARAU] 
    1173                      .dwcfi  cfa_offset, -4
    1174                      .dwpsn  file "C:/ti/ccs1250/ccs/tools/compiler/ti-cgt-c2000_22.6.1.LTS/include/math.h",line 298,colum
    1175 00000001 E272          LOG2F32   R0H,R0H               ; [CPU_FPU] |298| 
         00000002 0000 
    1176 00000003 7700          NOP       ; [CPU_ALU] 
    1177 00000004 7700          NOP       ; [CPU_ALU] 
    1178 00000005 7700          NOP       ; [CPU_ALU] 
    1179 00000006 E700          MPYF32    R1H,R1H,R0H           ; [CPU_FPU] |298| 
         00000007 0009 
    1180 00000008 7700          NOP       ; [CPU_ALU] 
    1181 00000009 7700          NOP       ; [CPU_ALU] 
    1182 0000000a E273          IEXP2F32  R0H,R1H               ; [CPU_FPU] |298| 
         0000000b 0008 
    1183 0000000c E801          MOVIZ     R2H,#16256            ; [CPU_FPU] |298| 
         0000000d FC02 
    1184                      .dwpsn  file "C:/ti/ccs1250/ccs/tools/compiler/ti-cgt-c2000_22.6.1.LTS/include/math.h",line 320,colum
    1185 0000000e E5A1          CMPF32    R1H,#0                ; [CPU_FPU] |320| 
    1186 0000000f AD14          MOVST0    ZF, NF                ; [CPU_FPU] |320| 
    1187                      .dwpsn  file "C:/ti/ccs1250/ccs/tools/compiler/ti-cgt-c2000_22.6.1.LTS/include/math.h",line 298,colum
    1188 00000010 E274          DIVF32    R0H,R2H,R0H           ; [CPU_FPU] |298| 
         00000011 0010 
    1189                      .dwpsn  file "C:/ti/ccs1250/ccs/tools/compiler/ti-cgt-c2000_22.6.1.LTS/include/math.h",line 320,colum
    1190 00000012 6207          B         ||$C$L1||,GT          ; [CPU_ALU] |320| 
    1191                      ; branchcc occurs ; [] |320| 
    1192 00000013 E801          MOVIZ     R1H,#16256            ; [CPU_FPU] |320| 
         00000014 FC01 
    1193 00000015 E274          DIVF32    R0H,R1H,R0H           ; [CPU_FPU] |320| 
         00000016 0008 
    1194 00000017 7700          NOP       ; [CPU_ALU] 
    1195 00000018 7700          NOP       ; [CPU_ALU] 
    1196 00000019       ||$C$L1||:    
    1197 00000019 FE82          SUBB      SP,#2                 ; [CPU_ARAU] 
TMS320C2000 Assembler PC v22.6.1 Thu Mar 28 17:35:23 2024

Copyright (c) 1996-2018 Texas Instruments Incorporated
llc.asm                                                              PAGE   24

    1198                      .dwcfi  cfa_offset, -2
    1199              $C$DW$79        .dwtag  DW_TAG_TI_branch
    1200                      .dwattr $C$DW$79, DW_AT_low_pc(0x00)
    1201                      .dwattr $C$DW$79, DW_AT_TI_return
    1202              
    1203 0000001a 0006          LRETR     ; [CPU_ALU] 
    1204                      ; return occurs ; [] 
    1205                      .dwattr $C$DW$73, DW_AT_TI_end_file("C:/ti/ccs1250/ccs/tools/compiler/ti-cgt-c2000_22.6.1.LTS/include
    1206                      .dwattr $C$DW$73, DW_AT_TI_end_line(0x141)
    1207                      .dwattr $C$DW$73, DW_AT_TI_end_column(0x01)
    1208                      .dwendentry
    1209                      .dwendtag $C$DW$73
    1210              
    1211 00000000               .sect   ".text:__relaxed_logf"
    1212                      .clink
    1213                      .global ||__relaxed_logf||
    1214              
    1215              $C$DW$80        .dwtag  DW_TAG_subprogram
    1216                      .dwattr $C$DW$80, DW_AT_name("__relaxed_logf")
    1217                      .dwattr $C$DW$80, DW_AT_low_pc(||__relaxed_logf||)
    1218                      .dwattr $C$DW$80, DW_AT_high_pc(0x00)
    1219                      .dwattr $C$DW$80, DW_AT_linkage_name("__relaxed_logf")
    1220                      .dwattr $C$DW$80, DW_AT_external
    1221                      .dwattr $C$DW$80, DW_AT_type(*$C$DW$T$16)
    1222                      .dwattr $C$DW$80, DW_AT_decl_file("C:/ti/ccs1250/ccs/tools/compiler/ti-cgt-c2000_22.6.1.LTS/include/m
    1223                      .dwattr $C$DW$80, DW_AT_decl_line(0x133)
    1224                      .dwattr $C$DW$80, DW_AT_decl_column(0x10)
    1225                      .dwattr $C$DW$80, DW_AT_TI_max_frame_size(-2)
    1226                      .dwpsn  file "C:/ti/ccs1250/ccs/tools/compiler/ti-cgt-c2000_22.6.1.LTS/include/math.h",line 308,colum
    1227              
    1228                      .dwfde $C$DW$CIE, ||__relaxed_logf||
    1229              $C$DW$81        .dwtag  DW_TAG_formal_parameter
    1230                      .dwattr $C$DW$81, DW_AT_name("x")
    1231                      .dwattr $C$DW$81, DW_AT_type(*$C$DW$T$16)
    1232                      .dwattr $C$DW$81, DW_AT_location[DW_OP_regx 0x2b]
    1233              
    1234              
    1235              ;***************************************************************
    1236              ;* FNAME: __relaxed_logf                FR SIZE:   0           *
    1237              ;*                                                             *
    1238              ;* FUNCTION ENVIRONMENT                                        *
    1239              ;*                                                             *
    1240              ;* FUNCTION PROPERTIES                                         *
    1241              ;*                            0 Parameter,  0 Auto,  0 SOE     *
    1242              ;***************************************************************
    1243              
    1244              ||__relaxed_logf||:
    1245              ;* R0    assigned to x
    1246              $C$DW$82        .dwtag  DW_TAG_variable
    1247                      .dwattr $C$DW$82, DW_AT_name("x")
    1248                      .dwattr $C$DW$82, DW_AT_type(*$C$DW$T$102)
    1249                      .dwattr $C$DW$82, DW_AT_location[DW_OP_regx 0x2b]
    1250              
    1251                      .dwcfi  cfa_offset, -2
    1252                      .dwcfi  save_reg_to_mem, 26, 0
TMS320C2000 Assembler PC v22.6.1 Thu Mar 28 17:35:23 2024

Copyright (c) 1996-2018 Texas Instruments Incorporated
llc.asm                                                              PAGE   25

    1253                      .dwpsn  file "C:/ti/ccs1250/ccs/tools/compiler/ti-cgt-c2000_22.6.1.LTS/include/math.h",line 310,colum
    1254 00000000 E272          LOG2F32   R1H,R0H               ; [CPU_FPU] |310| 
         00000001 0001 
    1255 00000002 7700          NOP       ; [CPU_ALU] 
    1256 00000003 E801          MOVIZ     R0H,#16177            ; [CPU_FPU] |310| 
         00000004 F988 
    1257 00000005 E80B          MOVXI     R0H,#29205            ; [CPU_FPU] |310| 
         00000006 90A8 
    1258 00000007 E700          MPYF32    R0H,R0H,R1H           ; [CPU_FPU] |310| 
         00000008 0040 
    1259              $C$DW$83        .dwtag  DW_TAG_TI_branch
    1260                      .dwattr $C$DW$83, DW_AT_low_pc(0x00)
    1261                      .dwattr $C$DW$83, DW_AT_TI_return
    1262              
    1263 00000009 0006          LRETR     ; [CPU_ALU] 
    1264                      ; return occurs ; [] 
    1265                      .dwattr $C$DW$80, DW_AT_TI_end_file("C:/ti/ccs1250/ccs/tools/compiler/ti-cgt-c2000_22.6.1.LTS/include
    1266                      .dwattr $C$DW$80, DW_AT_TI_end_line(0x137)
    1267                      .dwattr $C$DW$80, DW_AT_TI_end_column(0x01)
    1268                      .dwendentry
    1269                      .dwendtag $C$DW$80
    1270              
    1271 00000000               .sect   ".text:__relaxed_log2f"
    1272                      .clink
    1273                      .global ||__relaxed_log2f||
    1274              
    1275              $C$DW$84        .dwtag  DW_TAG_subprogram
    1276                      .dwattr $C$DW$84, DW_AT_name("__relaxed_log2f")
    1277                      .dwattr $C$DW$84, DW_AT_low_pc(||__relaxed_log2f||)
    1278                      .dwattr $C$DW$84, DW_AT_high_pc(0x00)
    1279                      .dwattr $C$DW$84, DW_AT_linkage_name("__relaxed_log2f")
    1280                      .dwattr $C$DW$84, DW_AT_external
    1281                      .dwattr $C$DW$84, DW_AT_type(*$C$DW$T$16)
    1282                      .dwattr $C$DW$84, DW_AT_decl_file("C:/ti/ccs1250/ccs/tools/compiler/ti-cgt-c2000_22.6.1.LTS/include/m
    1283                      .dwattr $C$DW$84, DW_AT_decl_line(0x123)
    1284                      .dwattr $C$DW$84, DW_AT_decl_column(0x10)
    1285                      .dwattr $C$DW$84, DW_AT_TI_max_frame_size(-2)
    1286                      .dwpsn  file "C:/ti/ccs1250/ccs/tools/compiler/ti-cgt-c2000_22.6.1.LTS/include/math.h",line 292,colum
    1287              
    1288                      .dwfde $C$DW$CIE, ||__relaxed_log2f||
    1289              $C$DW$85        .dwtag  DW_TAG_formal_parameter
    1290                      .dwattr $C$DW$85, DW_AT_name("x")
    1291                      .dwattr $C$DW$85, DW_AT_type(*$C$DW$T$16)
    1292                      .dwattr $C$DW$85, DW_AT_location[DW_OP_regx 0x2b]
    1293              
    1294              
    1295              ;***************************************************************
    1296              ;* FNAME: __relaxed_log2f               FR SIZE:   0           *
    1297              ;*                                                             *
    1298              ;* FUNCTION ENVIRONMENT                                        *
    1299              ;*                                                             *
    1300              ;* FUNCTION PROPERTIES                                         *
    1301              ;*                            0 Parameter,  0 Auto,  0 SOE     *
    1302              ;***************************************************************
    1303              
TMS320C2000 Assembler PC v22.6.1 Thu Mar 28 17:35:23 2024

Copyright (c) 1996-2018 Texas Instruments Incorporated
llc.asm                                                              PAGE   26

    1304              ||__relaxed_log2f||:
    1305              ;* R0    assigned to x
    1306              $C$DW$86        .dwtag  DW_TAG_variable
    1307                      .dwattr $C$DW$86, DW_AT_name("x")
    1308                      .dwattr $C$DW$86, DW_AT_type(*$C$DW$T$102)
    1309                      .dwattr $C$DW$86, DW_AT_location[DW_OP_regx 0x2b]
    1310              
    1311                      .dwcfi  cfa_offset, -2
    1312                      .dwcfi  save_reg_to_mem, 26, 0
    1313                      .dwpsn  file "C:/ti/ccs1250/ccs/tools/compiler/ti-cgt-c2000_22.6.1.LTS/include/math.h",line 293,colum
    1314 00000000 E272          LOG2F32   R0H,R0H               ; [CPU_FPU] |293| 
         00000001 0000 
    1315 00000002 7700          NOP       ; [CPU_ALU] 
    1316 00000003 7700          NOP       ; [CPU_ALU] 
    1317              $C$DW$87        .dwtag  DW_TAG_TI_branch
    1318                      .dwattr $C$DW$87, DW_AT_low_pc(0x00)
    1319                      .dwattr $C$DW$87, DW_AT_TI_return
    1320              
    1321 00000004 0006          LRETR     ; [CPU_ALU] 
    1322                      ; return occurs ; [] 
    1323                      .dwattr $C$DW$84, DW_AT_TI_end_file("C:/ti/ccs1250/ccs/tools/compiler/ti-cgt-c2000_22.6.1.LTS/include
    1324                      .dwattr $C$DW$84, DW_AT_TI_end_line(0x126)
    1325                      .dwattr $C$DW$84, DW_AT_TI_end_column(0x01)
    1326                      .dwendentry
    1327                      .dwendtag $C$DW$84
    1328              
    1329 00000000               .sect   ".text:__relaxed_fmodf"
    1330                      .clink
    1331                      .global ||__relaxed_fmodf||
    1332              
    1333              $C$DW$88        .dwtag  DW_TAG_subprogram
    1334                      .dwattr $C$DW$88, DW_AT_name("__relaxed_fmodf")
    1335                      .dwattr $C$DW$88, DW_AT_low_pc(||__relaxed_fmodf||)
    1336                      .dwattr $C$DW$88, DW_AT_high_pc(0x00)
    1337                      .dwattr $C$DW$88, DW_AT_linkage_name("__relaxed_fmodf")
    1338                      .dwattr $C$DW$88, DW_AT_external
    1339                      .dwattr $C$DW$88, DW_AT_type(*$C$DW$T$16)
    1340                      .dwattr $C$DW$88, DW_AT_decl_file("C:/ti/ccs1250/ccs/tools/compiler/ti-cgt-c2000_22.6.1.LTS/include/m
    1341                      .dwattr $C$DW$88, DW_AT_decl_line(0x11c)
    1342                      .dwattr $C$DW$88, DW_AT_decl_column(0x10)
    1343                      .dwattr $C$DW$88, DW_AT_TI_max_frame_size(-2)
    1344                      .dwpsn  file "C:/ti/ccs1250/ccs/tools/compiler/ti-cgt-c2000_22.6.1.LTS/include/math.h",line 285,colum
    1345              
    1346                      .dwfde $C$DW$CIE, ||__relaxed_fmodf||
    1347              $C$DW$89        .dwtag  DW_TAG_formal_parameter
    1348                      .dwattr $C$DW$89, DW_AT_name("y")
    1349                      .dwattr $C$DW$89, DW_AT_type(*$C$DW$T$16)
    1350                      .dwattr $C$DW$89, DW_AT_location[DW_OP_regx 0x2b]
    1351              
    1352              $C$DW$90        .dwtag  DW_TAG_formal_parameter
    1353                      .dwattr $C$DW$90, DW_AT_name("x")
    1354                      .dwattr $C$DW$90, DW_AT_type(*$C$DW$T$16)
    1355                      .dwattr $C$DW$90, DW_AT_location[DW_OP_regx 0x2f]
    1356              
    1357              
TMS320C2000 Assembler PC v22.6.1 Thu Mar 28 17:35:23 2024

Copyright (c) 1996-2018 Texas Instruments Incorporated
llc.asm                                                              PAGE   27

    1358              ;***************************************************************
    1359              ;* FNAME: __relaxed_fmodf               FR SIZE:   0           *
    1360              ;*                                                             *
    1361              ;* FUNCTION ENVIRONMENT                                        *
    1362              ;*                                                             *
    1363              ;* FUNCTION PROPERTIES                                         *
    1364              ;*                            0 Parameter,  0 Auto,  0 SOE     *
    1365              ;***************************************************************
    1366              
    1367              ||__relaxed_fmodf||:
    1368              ;* R0    assigned to y
    1369              $C$DW$91        .dwtag  DW_TAG_variable
    1370                      .dwattr $C$DW$91, DW_AT_name("y")
    1371                      .dwattr $C$DW$91, DW_AT_type(*$C$DW$T$102)
    1372                      .dwattr $C$DW$91, DW_AT_location[DW_OP_regx 0x2b]
    1373              
    1374              ;* R1    assigned to x
    1375              $C$DW$92        .dwtag  DW_TAG_variable
    1376                      .dwattr $C$DW$92, DW_AT_name("x")
    1377                      .dwattr $C$DW$92, DW_AT_type(*$C$DW$T$102)
    1378                      .dwattr $C$DW$92, DW_AT_location[DW_OP_regx 0x2f]
    1379              
    1380                      .dwcfi  cfa_offset, -2
    1381                      .dwcfi  save_reg_to_mem, 26, 0
    1382                      .dwpsn  file "C:/ti/ccs1250/ccs/tools/compiler/ti-cgt-c2000_22.6.1.LTS/include/math.h",line 286,colum
    1383 00000000 E274          DIVF32    R2H,R0H,R1H           ; [CPU_FPU] |286| 
         00000001 0042 
    1384 00000002 7700          NOP       ; [CPU_ALU] 
    1385 00000003 7700          NOP       ; [CPU_ALU] 
    1386 00000004 7700          NOP       ; [CPU_ALU] 
    1387 00000005 7700          NOP       ; [CPU_ALU] 
    1388 00000006 E688          F32TOI32  R2H,R2H               ; [CPU_FPU] |286| 
         00000007 0012 
    1389 00000008 7700          NOP       ; [CPU_ALU] 
    1390 00000009 E689          I32TOF32  R2H,R2H               ; [CPU_FPU] |286| 
         0000000a 0012 
    1391 0000000b 7700          NOP       ; [CPU_ALU] 
    1392 0000000c E700          MPYF32    R1H,R1H,R2H           ; [CPU_FPU] |286| 
         0000000d 0089 
    1393 0000000e 7700          NOP       ; [CPU_ALU] 
    1394 0000000f E720          SUBF32    R0H,R0H,R1H           ; [CPU_FPU] |286| 
         00000010 0040 
    1395              $C$DW$93        .dwtag  DW_TAG_TI_branch
    1396                      .dwattr $C$DW$93, DW_AT_low_pc(0x00)
    1397                      .dwattr $C$DW$93, DW_AT_TI_return
    1398              
    1399 00000011 0006          LRETR     ; [CPU_ALU] 
    1400                      ; return occurs ; [] 
    1401                      .dwattr $C$DW$88, DW_AT_TI_end_file("C:/ti/ccs1250/ccs/tools/compiler/ti-cgt-c2000_22.6.1.LTS/include
    1402                      .dwattr $C$DW$88, DW_AT_TI_end_line(0x11f)
    1403                      .dwattr $C$DW$88, DW_AT_TI_end_column(0x01)
    1404                      .dwendentry
    1405                      .dwendtag $C$DW$88
    1406              
    1407 00000000               .sect   ".text:__relaxed_fminf"
TMS320C2000 Assembler PC v22.6.1 Thu Mar 28 17:35:23 2024

Copyright (c) 1996-2018 Texas Instruments Incorporated
llc.asm                                                              PAGE   28

    1408                      .clink
    1409                      .global ||__relaxed_fminf||
    1410              
    1411              $C$DW$94        .dwtag  DW_TAG_subprogram
    1412                      .dwattr $C$DW$94, DW_AT_name("__relaxed_fminf")
    1413                      .dwattr $C$DW$94, DW_AT_low_pc(||__relaxed_fminf||)
    1414                      .dwattr $C$DW$94, DW_AT_high_pc(0x00)
    1415                      .dwattr $C$DW$94, DW_AT_linkage_name("__relaxed_fminf")
    1416                      .dwattr $C$DW$94, DW_AT_external
    1417                      .dwattr $C$DW$94, DW_AT_type(*$C$DW$T$16)
    1418                      .dwattr $C$DW$94, DW_AT_decl_file("C:/ti/ccs1250/ccs/tools/compiler/ti-cgt-c2000_22.6.1.LTS/include/m
    1419                      .dwattr $C$DW$94, DW_AT_decl_line(0xee)
    1420                      .dwattr $C$DW$94, DW_AT_decl_column(0x10)
    1421                      .dwattr $C$DW$94, DW_AT_TI_max_frame_size(-2)
    1422                      .dwpsn  file "C:/ti/ccs1250/ccs/tools/compiler/ti-cgt-c2000_22.6.1.LTS/include/math.h",line 239,colum
    1423              
    1424                      .dwfde $C$DW$CIE, ||__relaxed_fminf||
    1425              $C$DW$95        .dwtag  DW_TAG_formal_parameter
    1426                      .dwattr $C$DW$95, DW_AT_name("x")
    1427                      .dwattr $C$DW$95, DW_AT_type(*$C$DW$T$16)
    1428                      .dwattr $C$DW$95, DW_AT_location[DW_OP_regx 0x2b]
    1429              
    1430              $C$DW$96        .dwtag  DW_TAG_formal_parameter
    1431                      .dwattr $C$DW$96, DW_AT_name("y")
    1432                      .dwattr $C$DW$96, DW_AT_type(*$C$DW$T$16)
    1433                      .dwattr $C$DW$96, DW_AT_location[DW_OP_regx 0x2f]
    1434              
    1435              
    1436              ;***************************************************************
    1437              ;* FNAME: __relaxed_fminf               FR SIZE:   0           *
    1438              ;*                                                             *
    1439              ;* FUNCTION ENVIRONMENT                                        *
    1440              ;*                                                             *
    1441              ;* FUNCTION PROPERTIES                                         *
    1442              ;*                            0 Parameter,  0 Auto,  0 SOE     *
    1443              ;***************************************************************
    1444              
    1445              ||__relaxed_fminf||:
    1446              ;* R1    assigned to y
    1447              $C$DW$97        .dwtag  DW_TAG_variable
    1448                      .dwattr $C$DW$97, DW_AT_name("y")
    1449                      .dwattr $C$DW$97, DW_AT_type(*$C$DW$T$102)
    1450                      .dwattr $C$DW$97, DW_AT_location[DW_OP_regx 0x2f]
    1451              
    1452                      .dwcfi  cfa_offset, -2
    1453                      .dwcfi  save_reg_to_mem, 26, 0
    1454                      .dwpsn  file "C:/ti/ccs1250/ccs/tools/compiler/ti-cgt-c2000_22.6.1.LTS/include/math.h",line 240,colum
    1455 00000000 E697          MINF32    R0H,R1H               ; [CPU_FPU] |240| 
         00000001 0008 
    1456              $C$DW$98        .dwtag  DW_TAG_TI_branch
    1457                      .dwattr $C$DW$98, DW_AT_low_pc(0x00)
    1458                      .dwattr $C$DW$98, DW_AT_TI_return
    1459              
    1460 00000002 0006          LRETR     ; [CPU_ALU] 
    1461                      ; return occurs ; [] 
TMS320C2000 Assembler PC v22.6.1 Thu Mar 28 17:35:23 2024

Copyright (c) 1996-2018 Texas Instruments Incorporated
llc.asm                                                              PAGE   29

    1462                      .dwattr $C$DW$94, DW_AT_TI_end_file("C:/ti/ccs1250/ccs/tools/compiler/ti-cgt-c2000_22.6.1.LTS/include
    1463                      .dwattr $C$DW$94, DW_AT_TI_end_line(0xf1)
    1464                      .dwattr $C$DW$94, DW_AT_TI_end_column(0x01)
    1465                      .dwendentry
    1466                      .dwendtag $C$DW$94
    1467              
    1468 00000000               .sect   ".text:__relaxed_fmaxf"
    1469                      .clink
    1470                      .global ||__relaxed_fmaxf||
    1471              
    1472              $C$DW$99        .dwtag  DW_TAG_subprogram
    1473                      .dwattr $C$DW$99, DW_AT_name("__relaxed_fmaxf")
    1474                      .dwattr $C$DW$99, DW_AT_low_pc(||__relaxed_fmaxf||)
    1475                      .dwattr $C$DW$99, DW_AT_high_pc(0x00)
    1476                      .dwattr $C$DW$99, DW_AT_linkage_name("__relaxed_fmaxf")
    1477                      .dwattr $C$DW$99, DW_AT_external
    1478                      .dwattr $C$DW$99, DW_AT_type(*$C$DW$T$16)
    1479                      .dwattr $C$DW$99, DW_AT_decl_file("C:/ti/ccs1250/ccs/tools/compiler/ti-cgt-c2000_22.6.1.LTS/include/m
    1480                      .dwattr $C$DW$99, DW_AT_decl_line(0xe8)
    1481                      .dwattr $C$DW$99, DW_AT_decl_column(0x10)
    1482                      .dwattr $C$DW$99, DW_AT_TI_max_frame_size(-2)
    1483                      .dwpsn  file "C:/ti/ccs1250/ccs/tools/compiler/ti-cgt-c2000_22.6.1.LTS/include/math.h",line 233,colum
    1484              
    1485                      .dwfde $C$DW$CIE, ||__relaxed_fmaxf||
    1486              $C$DW$100       .dwtag  DW_TAG_formal_parameter
    1487                      .dwattr $C$DW$100, DW_AT_name("x")
    1488                      .dwattr $C$DW$100, DW_AT_type(*$C$DW$T$16)
    1489                      .dwattr $C$DW$100, DW_AT_location[DW_OP_regx 0x2b]
    1490              
    1491              $C$DW$101       .dwtag  DW_TAG_formal_parameter
    1492                      .dwattr $C$DW$101, DW_AT_name("y")
    1493                      .dwattr $C$DW$101, DW_AT_type(*$C$DW$T$16)
    1494                      .dwattr $C$DW$101, DW_AT_location[DW_OP_regx 0x2f]
    1495              
    1496              
    1497              ;***************************************************************
    1498              ;* FNAME: __relaxed_fmaxf               FR SIZE:   0           *
    1499              ;*                                                             *
    1500              ;* FUNCTION ENVIRONMENT                                        *
    1501              ;*                                                             *
    1502              ;* FUNCTION PROPERTIES                                         *
    1503              ;*                            0 Parameter,  0 Auto,  0 SOE     *
    1504              ;***************************************************************
    1505              
    1506              ||__relaxed_fmaxf||:
    1507              ;* R1    assigned to y
    1508              $C$DW$102       .dwtag  DW_TAG_variable
    1509                      .dwattr $C$DW$102, DW_AT_name("y")
    1510                      .dwattr $C$DW$102, DW_AT_type(*$C$DW$T$102)
    1511                      .dwattr $C$DW$102, DW_AT_location[DW_OP_regx 0x2f]
    1512              
    1513                      .dwcfi  cfa_offset, -2
    1514                      .dwcfi  save_reg_to_mem, 26, 0
    1515                      .dwpsn  file "C:/ti/ccs1250/ccs/tools/compiler/ti-cgt-c2000_22.6.1.LTS/include/math.h",line 234,colum
    1516 00000000 E696          MAXF32    R0H,R1H               ; [CPU_FPU] |234| 
TMS320C2000 Assembler PC v22.6.1 Thu Mar 28 17:35:23 2024

Copyright (c) 1996-2018 Texas Instruments Incorporated
llc.asm                                                              PAGE   30

         00000001 0008 
    1517              $C$DW$103       .dwtag  DW_TAG_TI_branch
    1518                      .dwattr $C$DW$103, DW_AT_low_pc(0x00)
    1519                      .dwattr $C$DW$103, DW_AT_TI_return
    1520              
    1521 00000002 0006          LRETR     ; [CPU_ALU] 
    1522                      ; return occurs ; [] 
    1523                      .dwattr $C$DW$99, DW_AT_TI_end_file("C:/ti/ccs1250/ccs/tools/compiler/ti-cgt-c2000_22.6.1.LTS/include
    1524                      .dwattr $C$DW$99, DW_AT_TI_end_line(0xeb)
    1525                      .dwattr $C$DW$99, DW_AT_TI_end_column(0x01)
    1526                      .dwendentry
    1527                      .dwendtag $C$DW$99
    1528              
    1529 00000000               .sect   ".text:__relaxed_expf"
    1530                      .clink
    1531                      .global ||__relaxed_expf||
    1532              
    1533              $C$DW$104       .dwtag  DW_TAG_subprogram
    1534                      .dwattr $C$DW$104, DW_AT_name("__relaxed_expf")
    1535                      .dwattr $C$DW$104, DW_AT_low_pc(||__relaxed_expf||)
    1536                      .dwattr $C$DW$104, DW_AT_high_pc(0x00)
    1537                      .dwattr $C$DW$104, DW_AT_linkage_name("__relaxed_expf")
    1538                      .dwattr $C$DW$104, DW_AT_external
    1539                      .dwattr $C$DW$104, DW_AT_type(*$C$DW$T$16)
    1540                      .dwattr $C$DW$104, DW_AT_decl_file("C:/ti/ccs1250/ccs/tools/compiler/ti-cgt-c2000_22.6.1.LTS/include/
    1541                      .dwattr $C$DW$104, DW_AT_decl_line(0x12d)
    1542                      .dwattr $C$DW$104, DW_AT_decl_column(0x10)
    1543                      .dwattr $C$DW$104, DW_AT_TI_max_frame_size(-2)
    1544                      .dwpsn  file "C:/ti/ccs1250/ccs/tools/compiler/ti-cgt-c2000_22.6.1.LTS/include/math.h",line 302,colum
    1545              
    1546                      .dwfde $C$DW$CIE, ||__relaxed_expf||
    1547              $C$DW$105       .dwtag  DW_TAG_formal_parameter
    1548                      .dwattr $C$DW$105, DW_AT_name("x")
    1549                      .dwattr $C$DW$105, DW_AT_type(*$C$DW$T$16)
    1550                      .dwattr $C$DW$105, DW_AT_location[DW_OP_regx 0x2b]
    1551              
    1552              
    1553              ;***************************************************************
    1554              ;* FNAME: __relaxed_expf                FR SIZE:   0           *
    1555              ;*                                                             *
    1556              ;* FUNCTION ENVIRONMENT                                        *
    1557              ;*                                                             *
    1558              ;* FUNCTION PROPERTIES                                         *
    1559              ;*                            0 Parameter,  0 Auto,  0 SOE     *
    1560              ;***************************************************************
    1561              
    1562              ||__relaxed_expf||:
    1563              ;* R0    assigned to x
    1564              $C$DW$106       .dwtag  DW_TAG_variable
    1565                      .dwattr $C$DW$106, DW_AT_name("x")
    1566                      .dwattr $C$DW$106, DW_AT_type(*$C$DW$T$102)
    1567                      .dwattr $C$DW$106, DW_AT_location[DW_OP_regx 0x2b]
    1568              
    1569                      .dwcfi  cfa_offset, -2
    1570                      .dwcfi  save_reg_to_mem, 26, 0
TMS320C2000 Assembler PC v22.6.1 Thu Mar 28 17:35:23 2024

Copyright (c) 1996-2018 Texas Instruments Incorporated
llc.asm                                                              PAGE   31

    1571                      .dwpsn  file "C:/ti/ccs1250/ccs/tools/compiler/ti-cgt-c2000_22.6.1.LTS/include/math.h",line 298,colum
    1572 00000000 E801          MOVIZ     R1H,#16312            ; [CPU_FPU] |298| 
         00000001 FDC1 
    1573 00000002 E80D          MOVXI     R1H,#43537            ; [CPU_FPU] |298| 
         00000003 5089 
    1574 00000004 E700          MPYF32    R0H,R1H,R0H           ; [CPU_FPU] |298| 
         00000005 0008 
    1575 00000006 7700          NOP       ; [CPU_ALU] 
    1576 00000007 7700          NOP       ; [CPU_ALU] 
    1577 00000008 E273          IEXP2F32  R0H,R0H               ; [CPU_FPU] |298| 
         00000009 0000 
    1578 0000000a 7700          NOP       ; [CPU_ALU] 
    1579 0000000b 7700          NOP       ; [CPU_ALU] 
    1580 0000000c E801          MOVIZ     R1H,#16256            ; [CPU_FPU] |298| 
         0000000d FC01 
    1581 0000000e E274          DIVF32    R0H,R1H,R0H           ; [CPU_FPU] |298| 
         0000000f 0008 
    1582 00000010 7700          NOP       ; [CPU_ALU] 
    1583 00000011 7700          NOP       ; [CPU_ALU] 
    1584 00000012 7700          NOP       ; [CPU_ALU] 
    1585              $C$DW$107       .dwtag  DW_TAG_TI_branch
    1586                      .dwattr $C$DW$107, DW_AT_low_pc(0x00)
    1587                      .dwattr $C$DW$107, DW_AT_TI_return
    1588              
    1589 00000013 0006          LRETR     ; [CPU_ALU] 
    1590                      ; return occurs ; [] 
    1591                      .dwattr $C$DW$104, DW_AT_TI_end_file("C:/ti/ccs1250/ccs/tools/compiler/ti-cgt-c2000_22.6.1.LTS/includ
    1592                      .dwattr $C$DW$104, DW_AT_TI_end_line(0x131)
    1593                      .dwattr $C$DW$104, DW_AT_TI_end_column(0x01)
    1594                      .dwendentry
    1595                      .dwendtag $C$DW$104
    1596              
    1597 00000000               .sect   ".text:__relaxed_cosf"
    1598                      .clink
    1599                      .global ||__relaxed_cosf||
    1600              
    1601              $C$DW$108       .dwtag  DW_TAG_subprogram
    1602                      .dwattr $C$DW$108, DW_AT_name("__relaxed_cosf")
    1603                      .dwattr $C$DW$108, DW_AT_low_pc(||__relaxed_cosf||)
    1604                      .dwattr $C$DW$108, DW_AT_high_pc(0x00)
    1605                      .dwattr $C$DW$108, DW_AT_linkage_name("__relaxed_cosf")
    1606                      .dwattr $C$DW$108, DW_AT_external
    1607                      .dwattr $C$DW$108, DW_AT_type(*$C$DW$T$16)
    1608                      .dwattr $C$DW$108, DW_AT_decl_file("C:/ti/ccs1250/ccs/tools/compiler/ti-cgt-c2000_22.6.1.LTS/include/
    1609                      .dwattr $C$DW$108, DW_AT_decl_line(0x10d)
    1610                      .dwattr $C$DW$108, DW_AT_decl_column(0x10)
    1611                      .dwattr $C$DW$108, DW_AT_TI_max_frame_size(-2)
    1612                      .dwpsn  file "C:/ti/ccs1250/ccs/tools/compiler/ti-cgt-c2000_22.6.1.LTS/include/math.h",line 270,colum
    1613              
    1614                      .dwfde $C$DW$CIE, ||__relaxed_cosf||
    1615              $C$DW$109       .dwtag  DW_TAG_formal_parameter
    1616                      .dwattr $C$DW$109, DW_AT_name("x")
    1617                      .dwattr $C$DW$109, DW_AT_type(*$C$DW$T$16)
    1618                      .dwattr $C$DW$109, DW_AT_location[DW_OP_regx 0x2b]
    1619              
TMS320C2000 Assembler PC v22.6.1 Thu Mar 28 17:35:23 2024

Copyright (c) 1996-2018 Texas Instruments Incorporated
llc.asm                                                              PAGE   32

    1620              
    1621              ;***************************************************************
    1622              ;* FNAME: __relaxed_cosf                FR SIZE:   0           *
    1623              ;*                                                             *
    1624              ;* FUNCTION ENVIRONMENT                                        *
    1625              ;*                                                             *
    1626              ;* FUNCTION PROPERTIES                                         *
    1627              ;*                            0 Parameter,  0 Auto,  0 SOE     *
    1628              ;***************************************************************
    1629              
    1630              ||__relaxed_cosf||:
    1631              ;* R0    assigned to x
    1632              $C$DW$110       .dwtag  DW_TAG_variable
    1633                      .dwattr $C$DW$110, DW_AT_name("x")
    1634                      .dwattr $C$DW$110, DW_AT_type(*$C$DW$T$102)
    1635                      .dwattr $C$DW$110, DW_AT_location[DW_OP_regx 0x2b]
    1636              
    1637                      .dwcfi  cfa_offset, -2
    1638                      .dwcfi  save_reg_to_mem, 26, 0
    1639                      .dwpsn  file "C:/ti/ccs1250/ccs/tools/compiler/ti-cgt-c2000_22.6.1.LTS/include/math.h",line 271,colum
    1640 00000000 E271          DIV2PIF32 R0H,R0H               ; [CPU_FPU] |271| 
         00000001 0000 
    1641 00000002 7700          NOP       ; [CPU_ALU] 
    1642 00000003 E279          COSPUF32  R0H,R0H               ; [CPU_FPU] |271| 
         00000004 0000 
    1643 00000005 7700          NOP       ; [CPU_ALU] 
    1644 00000006 7700          NOP       ; [CPU_ALU] 
    1645              $C$DW$111       .dwtag  DW_TAG_TI_branch
    1646                      .dwattr $C$DW$111, DW_AT_low_pc(0x00)
    1647                      .dwattr $C$DW$111, DW_AT_TI_return
    1648              
    1649 00000007 0006          LRETR     ; [CPU_ALU] 
    1650                      ; return occurs ; [] 
    1651                      .dwattr $C$DW$108, DW_AT_TI_end_file("C:/ti/ccs1250/ccs/tools/compiler/ti-cgt-c2000_22.6.1.LTS/includ
    1652                      .dwattr $C$DW$108, DW_AT_TI_end_line(0x110)
    1653                      .dwattr $C$DW$108, DW_AT_TI_end_column(0x01)
    1654                      .dwendentry
    1655                      .dwendtag $C$DW$108
    1656              
    1657 00000000               .sect   ".text:__relaxed_atanf"
    1658                      .clink
    1659                      .global ||__relaxed_atanf||
    1660              
    1661              $C$DW$112       .dwtag  DW_TAG_subprogram
    1662                      .dwattr $C$DW$112, DW_AT_name("__relaxed_atanf")
    1663                      .dwattr $C$DW$112, DW_AT_low_pc(||__relaxed_atanf||)
    1664                      .dwattr $C$DW$112, DW_AT_high_pc(0x00)
    1665                      .dwattr $C$DW$112, DW_AT_linkage_name("__relaxed_atanf")
    1666                      .dwattr $C$DW$112, DW_AT_external
    1667                      .dwattr $C$DW$112, DW_AT_type(*$C$DW$T$16)
    1668                      .dwattr $C$DW$112, DW_AT_decl_file("C:/ti/ccs1250/ccs/tools/compiler/ti-cgt-c2000_22.6.1.LTS/include/
    1669                      .dwattr $C$DW$112, DW_AT_decl_line(0x112)
    1670                      .dwattr $C$DW$112, DW_AT_decl_column(0x10)
    1671                      .dwattr $C$DW$112, DW_AT_TI_max_frame_size(-2)
    1672                      .dwpsn  file "C:/ti/ccs1250/ccs/tools/compiler/ti-cgt-c2000_22.6.1.LTS/include/math.h",line 275,colum
TMS320C2000 Assembler PC v22.6.1 Thu Mar 28 17:35:23 2024

Copyright (c) 1996-2018 Texas Instruments Incorporated
llc.asm                                                              PAGE   33

    1673              
    1674                      .dwfde $C$DW$CIE, ||__relaxed_atanf||
    1675              $C$DW$113       .dwtag  DW_TAG_formal_parameter
    1676                      .dwattr $C$DW$113, DW_AT_name("x")
    1677                      .dwattr $C$DW$113, DW_AT_type(*$C$DW$T$16)
    1678                      .dwattr $C$DW$113, DW_AT_location[DW_OP_regx 0x2b]
    1679              
    1680              
    1681              ;***************************************************************
    1682              ;* FNAME: __relaxed_atanf               FR SIZE:   0           *
    1683              ;*                                                             *
    1684              ;* FUNCTION ENVIRONMENT                                        *
    1685              ;*                                                             *
    1686              ;* FUNCTION PROPERTIES                                         *
    1687              ;*                            0 Parameter,  0 Auto,  0 SOE     *
    1688              ;***************************************************************
    1689              
    1690              ||__relaxed_atanf||:
    1691              ;* R0    assigned to x
    1692              $C$DW$114       .dwtag  DW_TAG_variable
    1693                      .dwattr $C$DW$114, DW_AT_name("x")
    1694                      .dwattr $C$DW$114, DW_AT_type(*$C$DW$T$102)
    1695                      .dwattr $C$DW$114, DW_AT_location[DW_OP_regx 0x2b]
    1696              
    1697                      .dwcfi  cfa_offset, -2
    1698                      .dwcfi  save_reg_to_mem, 26, 0
    1699                      .dwpsn  file "C:/ti/ccs1250/ccs/tools/compiler/ti-cgt-c2000_22.6.1.LTS/include/math.h",line 276,colum
    1700 00000000 E801          MOVIZ     R1H,#16256            ; [CPU_FPU] |276| 
         00000001 FC01 
    1701 00000002 E27C          QUADF32   R1H,R0H,R0H,R1H       ; [CPU_FPU] |276| 
         00000003 0201 
    1702 00000004 7700          NOP       ; [CPU_ALU] 
    1703 00000005 7700          NOP       ; [CPU_ALU] 
    1704 00000006 7700          NOP       ; [CPU_ALU] 
    1705 00000007 7700          NOP       ; [CPU_ALU] 
    1706 00000008 E27A          ATANPUF32 R0H,R0H               ; [CPU_FPU] |276| 
         00000009 0000 
    1707 0000000a 7700          NOP       ; [CPU_ALU] 
    1708 0000000b 7700          NOP       ; [CPU_ALU] 
    1709 0000000c 7700          NOP       ; [CPU_ALU] 
    1710 0000000d E710          ADDF32    R0H,R0H,R1H           ; [CPU_FPU] |276| 
         0000000e 0040 
    1711 0000000f 7700          NOP       ; [CPU_ALU] 
    1712 00000010 7700          NOP       ; [CPU_ALU] 
    1713 00000011 E270          MPY2PIF32 R0H,R0H               ; [CPU_FPU] |276| 
         00000012 0000 
    1714 00000013 7700          NOP       ; [CPU_ALU] 
    1715              $C$DW$115       .dwtag  DW_TAG_TI_branch
    1716                      .dwattr $C$DW$115, DW_AT_low_pc(0x00)
    1717                      .dwattr $C$DW$115, DW_AT_TI_return
    1718              
    1719 00000014 0006          LRETR     ; [CPU_ALU] 
    1720                      ; return occurs ; [] 
    1721                      .dwattr $C$DW$112, DW_AT_TI_end_file("C:/ti/ccs1250/ccs/tools/compiler/ti-cgt-c2000_22.6.1.LTS/includ
    1722                      .dwattr $C$DW$112, DW_AT_TI_end_line(0x115)
TMS320C2000 Assembler PC v22.6.1 Thu Mar 28 17:35:23 2024

Copyright (c) 1996-2018 Texas Instruments Incorporated
llc.asm                                                              PAGE   34

    1723                      .dwattr $C$DW$112, DW_AT_TI_end_column(0x01)
    1724                      .dwendentry
    1725                      .dwendtag $C$DW$112
    1726              
    1727 00000000               .sect   ".text:__relaxed_atan2f"
    1728                      .clink
    1729                      .global ||__relaxed_atan2f||
    1730              
    1731              $C$DW$116       .dwtag  DW_TAG_subprogram
    1732                      .dwattr $C$DW$116, DW_AT_name("__relaxed_atan2f")
    1733                      .dwattr $C$DW$116, DW_AT_low_pc(||__relaxed_atan2f||)
    1734                      .dwattr $C$DW$116, DW_AT_high_pc(0x00)
    1735                      .dwattr $C$DW$116, DW_AT_linkage_name("__relaxed_atan2f")
    1736                      .dwattr $C$DW$116, DW_AT_external
    1737                      .dwattr $C$DW$116, DW_AT_type(*$C$DW$T$16)
    1738                      .dwattr $C$DW$116, DW_AT_decl_file("C:/ti/ccs1250/ccs/tools/compiler/ti-cgt-c2000_22.6.1.LTS/include/
    1739                      .dwattr $C$DW$116, DW_AT_decl_line(0x117)
    1740                      .dwattr $C$DW$116, DW_AT_decl_column(0x10)
    1741                      .dwattr $C$DW$116, DW_AT_TI_max_frame_size(-2)
    1742                      .dwpsn  file "C:/ti/ccs1250/ccs/tools/compiler/ti-cgt-c2000_22.6.1.LTS/include/math.h",line 280,colum
    1743              
    1744                      .dwfde $C$DW$CIE, ||__relaxed_atan2f||
    1745              $C$DW$117       .dwtag  DW_TAG_formal_parameter
    1746                      .dwattr $C$DW$117, DW_AT_name("y")
    1747                      .dwattr $C$DW$117, DW_AT_type(*$C$DW$T$16)
    1748                      .dwattr $C$DW$117, DW_AT_location[DW_OP_regx 0x2b]
    1749              
    1750              $C$DW$118       .dwtag  DW_TAG_formal_parameter
    1751                      .dwattr $C$DW$118, DW_AT_name("x")
    1752                      .dwattr $C$DW$118, DW_AT_type(*$C$DW$T$16)
    1753                      .dwattr $C$DW$118, DW_AT_location[DW_OP_regx 0x2f]
    1754              
    1755              
    1756              ;***************************************************************
    1757              ;* FNAME: __relaxed_atan2f              FR SIZE:   0           *
    1758              ;*                                                             *
    1759              ;* FUNCTION ENVIRONMENT                                        *
    1760              ;*                                                             *
    1761              ;* FUNCTION PROPERTIES                                         *
    1762              ;*                            0 Parameter,  0 Auto,  0 SOE     *
    1763              ;***************************************************************
    1764              
    1765              ||__relaxed_atan2f||:
    1766              ;* R0    assigned to y
    1767              $C$DW$119       .dwtag  DW_TAG_variable
    1768                      .dwattr $C$DW$119, DW_AT_name("y")
    1769                      .dwattr $C$DW$119, DW_AT_type(*$C$DW$T$102)
    1770                      .dwattr $C$DW$119, DW_AT_location[DW_OP_regx 0x2b]
    1771              
    1772              ;* R1    assigned to x
    1773              $C$DW$120       .dwtag  DW_TAG_variable
    1774                      .dwattr $C$DW$120, DW_AT_name("x")
    1775                      .dwattr $C$DW$120, DW_AT_type(*$C$DW$T$102)
    1776                      .dwattr $C$DW$120, DW_AT_location[DW_OP_regx 0x2f]
    1777              
TMS320C2000 Assembler PC v22.6.1 Thu Mar 28 17:35:23 2024

Copyright (c) 1996-2018 Texas Instruments Incorporated
llc.asm                                                              PAGE   35

    1778                      .dwcfi  cfa_offset, -2
    1779                      .dwcfi  save_reg_to_mem, 26, 0
    1780                      .dwpsn  file "C:/ti/ccs1250/ccs/tools/compiler/ti-cgt-c2000_22.6.1.LTS/include/math.h",line 281,colum
    1781 00000000 E27C          QUADF32   R1H,R0H,R0H,R1H       ; [CPU_FPU] |281| 
         00000001 0201 
    1782 00000002 7700          NOP       ; [CPU_ALU] 
    1783 00000003 7700          NOP       ; [CPU_ALU] 
    1784 00000004 7700          NOP       ; [CPU_ALU] 
    1785 00000005 7700          NOP       ; [CPU_ALU] 
    1786 00000006 E27A          ATANPUF32 R0H,R0H               ; [CPU_FPU] |281| 
         00000007 0000 
    1787 00000008 7700          NOP       ; [CPU_ALU] 
    1788 00000009 7700          NOP       ; [CPU_ALU] 
    1789 0000000a 7700          NOP       ; [CPU_ALU] 
    1790 0000000b E710          ADDF32    R0H,R0H,R1H           ; [CPU_FPU] |281| 
         0000000c 0040 
    1791 0000000d 7700          NOP       ; [CPU_ALU] 
    1792 0000000e 7700          NOP       ; [CPU_ALU] 
    1793 0000000f E270          MPY2PIF32 R0H,R0H               ; [CPU_FPU] |281| 
         00000010 0000 
    1794 00000011 7700          NOP       ; [CPU_ALU] 
    1795              $C$DW$121       .dwtag  DW_TAG_TI_branch
    1796                      .dwattr $C$DW$121, DW_AT_low_pc(0x00)
    1797                      .dwattr $C$DW$121, DW_AT_TI_return
    1798              
    1799 00000012 0006          LRETR     ; [CPU_ALU] 
    1800                      ; return occurs ; [] 
    1801                      .dwattr $C$DW$116, DW_AT_TI_end_file("C:/ti/ccs1250/ccs/tools/compiler/ti-cgt-c2000_22.6.1.LTS/includ
    1802                      .dwattr $C$DW$116, DW_AT_TI_end_line(0x11a)
    1803                      .dwattr $C$DW$116, DW_AT_TI_end_column(0x01)
    1804                      .dwendentry
    1805                      .dwendtag $C$DW$116
    1806              
    1807 00000000               .sect   ".text:__isnormall"
    1808                      .clink
    1809                      .global ||__isnormall||
    1810              
    1811              $C$DW$122       .dwtag  DW_TAG_subprogram
    1812                      .dwattr $C$DW$122, DW_AT_name("__isnormall")
    1813                      .dwattr $C$DW$122, DW_AT_low_pc(||__isnormall||)
    1814                      .dwattr $C$DW$122, DW_AT_high_pc(0x00)
    1815                      .dwattr $C$DW$122, DW_AT_linkage_name("__isnormall")
    1816                      .dwattr $C$DW$122, DW_AT_external
    1817                      .dwattr $C$DW$122, DW_AT_type(*$C$DW$T$10)
    1818                      .dwattr $C$DW$122, DW_AT_decl_file("C:/ti/ccs1250/ccs/tools/compiler/ti-cgt-c2000_22.6.1.LTS/include/
    1819                      .dwattr $C$DW$122, DW_AT_decl_line(0x167)
    1820                      .dwattr $C$DW$122, DW_AT_decl_column(0x18)
    1821                      .dwattr $C$DW$122, DW_AT_TI_max_frame_size(-6)
    1822                      .dwpsn  file "C:/ti/ccs1250/ccs/tools/compiler/ti-cgt-c2000_22.6.1.LTS/include/_defs.h",line 360,colu
    1823              
    1824                      .dwfde $C$DW$CIE, ||__isnormall||
    1825              $C$DW$123       .dwtag  DW_TAG_formal_parameter
    1826                      .dwattr $C$DW$123, DW_AT_name("e")
    1827                      .dwattr $C$DW$123, DW_AT_type(*$C$DW$T$110)
    1828                      .dwattr $C$DW$123, DW_AT_location[DW_OP_reg12]
TMS320C2000 Assembler PC v22.6.1 Thu Mar 28 17:35:23 2024

Copyright (c) 1996-2018 Texas Instruments Incorporated
llc.asm                                                              PAGE   36

    1829              
    1830              
    1831              ;***************************************************************
    1832              ;* FNAME: __isnormall                   FR SIZE:   4           *
    1833              ;*                                                             *
    1834              ;* FUNCTION ENVIRONMENT                                        *
    1835              ;*                                                             *
    1836              ;* FUNCTION PROPERTIES                                         *
    1837              ;*                            4 Parameter,  0 Auto,  0 SOE     *
    1838              ;***************************************************************
    1839              
    1840              ||__isnormall||:
    1841              ;* AR5   assigned to $O$C2
    1842              ;* AR6   assigned to $O$S1
    1843              ;* AR4   assigned to e
    1844              $C$DW$124       .dwtag  DW_TAG_variable
    1845                      .dwattr $C$DW$124, DW_AT_name("e")
    1846                      .dwattr $C$DW$124, DW_AT_type(*$C$DW$T$111)
    1847                      .dwattr $C$DW$124, DW_AT_location[DW_OP_reg12]
    1848              
    1849                      .dwcfi  cfa_offset, -2
    1850                      .dwcfi  save_reg_to_mem, 26, 0
    1851 00000000 FE04          ADDB      SP,#4                 ; [CPU_ARAU] 
    1852                      .dwcfi  cfa_offset, -6
    1853                      .dwpsn  file "C:/ti/ccs1250/ccs/tools/compiler/ti-cgt-c2000_22.6.1.LTS/include/_defs.h",line 360,colu
    1854 00000001 83C4          MOVL      XAR5,*+XAR4[0]        ; [CPU_ALU] |360| 
    1855 00000002 8AD4          MOVL      XAR4,*+XAR4[2]        ; [CPU_ALU] |360| 
    1856 00000003 BE00          MOVB      XAR6,#0               ; [CPU_ALU] |360| 
    1857 00000004 28AC          MOV       T,#52                 ; [CPU_ALU] |360| 
         00000005 0034 
    1858 00000006 A0AB          MOVL      P,XAR5                ; [CPU_ALU] |360| 
    1859 00000007 A8A9          MOVL      ACC,XAR4              ; [CPU_ALU] |360| 
    1860 00000008 C244          MOVL      *-SP[4],XAR6          ; [CPU_ALU] |360| 
    1861 00000009 2B42          MOV       *-SP[2],#0            ; [CPU_ALU] |360| 
    1862 0000000a 565B          LSR64     ACC:P,T               ; [CPU_ALU] |360| 
    1863 0000000b 2B41          MOV       *-SP[1],#0            ; [CPU_FPU] |360| 
    1864 0000000c 9000          ANDB      AL,#0                 ; [CPU_ALU] |360| 
    1865 0000000d 9100          ANDB      AH,#0                 ; [CPU_ALU] |360| 
    1866 0000000e 18AB          AND       PL,#2047              ; [CPU_ALU] |360| 
         0000000f 07FF 
    1867 00000010 18AA          AND       PH,#0                 ; [CPU_ALU] |360| 
         00000011 0000 
    1868              $C$DW$125       .dwtag  DW_TAG_TI_branch
    1869                      .dwattr $C$DW$125, DW_AT_low_pc(0x00)
    1870                      .dwattr $C$DW$125, DW_AT_name("__c28xabi_cmpull")
    1871                      .dwattr $C$DW$125, DW_AT_TI_call
    1872              
    1873 00000012 7640!         LCR       #||__c28xabi_cmpull|| ; [CPU_ALU] |360| 
         00000013 0000 
    1874                      ; call occurs [#||__c28xabi_cmpull||] ; [] |360| 
    1875 00000014 BE00          MOVB      XAR6,#0               ; [CPU_ALU] |360| 
    1876 00000015 5200          CMPB      AL,#0                 ; [CPU_ALU] |360| 
    1877 00000016 610E          B         ||$C$L2||,EQ          ; [CPU_ALU] |360| 
    1878                      ; branchcc occurs ; [] |360| 
    1879 00000017 A0AB          MOVL      P,XAR5                ; [CPU_ALU] |360| 
TMS320C2000 Assembler PC v22.6.1 Thu Mar 28 17:35:23 2024

Copyright (c) 1996-2018 Texas Instruments Incorporated
llc.asm                                                              PAGE   37

    1880 00000018 A8A9          MOVL      ACC,XAR4              ; [CPU_ALU] |360| 
    1881 00000019 28AC          MOV       T,#48                 ; [CPU_ALU] |360| 
         0000001a 0030 
    1882 0000001b 565B          LSR64     ACC:P,T               ; [CPU_ALU] |360| 
    1883 0000001c 18AB          AND       PL,#0x7ff0            ; [CPU_ALU] |360| 
         0000001d 7FF0 
    1884 0000001e 80AB          MOVZ      AR7,PL                ; [CPU_ALU] |360| 
    1885 0000001f FF20          MOV       ACC,#32752            ; [CPU_ALU] |360| 
         00000020 7FF0 
    1886 00000021 0FA7          CMPL      ACC,XAR7              ; [CPU_ALU] |360| 
    1887 00000022 56B0          MOVB      XAR6,#1,NEQ           ; [CPU_ALU] |360| 
         00000023 01A6 
    1888 00000024       ||$C$L2||:    
    1889 00000024 FE84          SUBB      SP,#4                 ; [CPU_ARAU] 
    1890                      .dwcfi  cfa_offset, -2
    1891 00000025 92A6          MOV       AL,AR6                ; [CPU_ALU] |360| 
    1892              $C$DW$126       .dwtag  DW_TAG_TI_branch
    1893                      .dwattr $C$DW$126, DW_AT_low_pc(0x00)
    1894                      .dwattr $C$DW$126, DW_AT_TI_return
    1895              
    1896 00000026 0006          LRETR     ; [CPU_ALU] 
    1897                      ; return occurs ; [] 
    1898                      .dwattr $C$DW$122, DW_AT_TI_end_file("C:/ti/ccs1250/ccs/tools/compiler/ti-cgt-c2000_22.6.1.LTS/includ
    1899                      .dwattr $C$DW$122, DW_AT_TI_end_line(0x169)
    1900                      .dwattr $C$DW$122, DW_AT_TI_end_column(0x31)
    1901                      .dwendentry
    1902                      .dwendtag $C$DW$122
    1903              
    1904 00000000               .sect   ".text:__isnormalf"
    1905                      .clink
    1906                      .global ||__isnormalf||
    1907              
    1908              $C$DW$127       .dwtag  DW_TAG_subprogram
    1909                      .dwattr $C$DW$127, DW_AT_name("__isnormalf")
    1910                      .dwattr $C$DW$127, DW_AT_low_pc(||__isnormalf||)
    1911                      .dwattr $C$DW$127, DW_AT_high_pc(0x00)
    1912                      .dwattr $C$DW$127, DW_AT_linkage_name("__isnormalf")
    1913                      .dwattr $C$DW$127, DW_AT_external
    1914                      .dwattr $C$DW$127, DW_AT_type(*$C$DW$T$10)
    1915                      .dwattr $C$DW$127, DW_AT_decl_file("C:/ti/ccs1250/ccs/tools/compiler/ti-cgt-c2000_22.6.1.LTS/include/
    1916                      .dwattr $C$DW$127, DW_AT_decl_line(0x163)
    1917                      .dwattr $C$DW$127, DW_AT_decl_column(0x18)
    1918                      .dwattr $C$DW$127, DW_AT_TI_max_frame_size(-2)
    1919                      .dwpsn  file "C:/ti/ccs1250/ccs/tools/compiler/ti-cgt-c2000_22.6.1.LTS/include/_defs.h",line 356,colu
    1920              
    1921                      .dwfde $C$DW$CIE, ||__isnormalf||
    1922              $C$DW$128       .dwtag  DW_TAG_formal_parameter
    1923                      .dwattr $C$DW$128, DW_AT_name("f")
    1924                      .dwattr $C$DW$128, DW_AT_type(*$C$DW$T$16)
    1925                      .dwattr $C$DW$128, DW_AT_location[DW_OP_regx 0x2b]
    1926              
    1927              
    1928              ;***************************************************************
    1929              ;* FNAME: __isnormalf                   FR SIZE:   0           *
    1930              ;*                                                             *
TMS320C2000 Assembler PC v22.6.1 Thu Mar 28 17:35:23 2024

Copyright (c) 1996-2018 Texas Instruments Incorporated
llc.asm                                                              PAGE   38

    1931              ;* FUNCTION ENVIRONMENT                                        *
    1932              ;*                                                             *
    1933              ;* FUNCTION PROPERTIES                                         *
    1934              ;*                            0 Parameter,  0 Auto,  0 SOE     *
    1935              ;***************************************************************
    1936              
    1937              ||__isnormalf||:
    1938              ;* PL    assigned to $O$K3
    1939              ;* AR6   assigned to $O$S1
    1940              ;* R0    assigned to f
    1941              $C$DW$129       .dwtag  DW_TAG_variable
    1942                      .dwattr $C$DW$129, DW_AT_name("f")
    1943                      .dwattr $C$DW$129, DW_AT_type(*$C$DW$T$102)
    1944                      .dwattr $C$DW$129, DW_AT_location[DW_OP_regx 0x2b]
    1945              
    1946                      .dwcfi  cfa_offset, -2
    1947                      .dwcfi  save_reg_to_mem, 26, 0
    1948                      .dwpsn  file "C:/ti/ccs1250/ccs/tools/compiler/ti-cgt-c2000_22.6.1.LTS/include/_defs.h",line 356,colu
    1949 00000000 BFAB          MOV32     P,R0H                 ; [CPU_FPU] |356| 
         00000001 0F12 
    1950 00000002 28AC          MOV       T,#23                 ; [CPU_ALU] |356| 
         00000003 0017 
    1951 00000004 A9A9          MOVL      ACC,P                 ; [CPU_ALU] |356| 
    1952 00000005 BE00          MOVB      XAR6,#0               ; [CPU_ALU] |356| 
    1953 00000006 5622          LSRL      ACC,T                 ; [CPU_ALU] |356| 
    1954 00000007 90FF          ANDB      AL,#0xff              ; [CPU_ALU] |356| 
    1955 00000008 6109          B         ||$C$L3||,EQ          ; [CPU_ALU] |356| 
    1956                      ; branchcc occurs ; [] |356| 
    1957 00000009 CCAA          AND       AL,PH,#0x7f80         ; [CPU_ALU] |356| 
         0000000a 7F80 
    1958 0000000b 80A9          MOVZ      AR7,AL                ; [CPU_ALU] |356| 
    1959 0000000c FF20          MOV       ACC,#32640            ; [CPU_ALU] |356| 
         0000000d 7F80 
    1960 0000000e 0FA7          CMPL      ACC,XAR7              ; [CPU_ALU] |356| 
    1961 0000000f 56B0          MOVB      XAR6,#1,NEQ           ; [CPU_ALU] |356| 
         00000010 01A6 
    1962 00000011       ||$C$L3||:    
    1963 00000011 92A6          MOV       AL,AR6                ; [CPU_ALU] |356| 
    1964              $C$DW$130       .dwtag  DW_TAG_TI_branch
    1965                      .dwattr $C$DW$130, DW_AT_low_pc(0x00)
    1966                      .dwattr $C$DW$130, DW_AT_TI_return
    1967              
    1968 00000012 0006          LRETR     ; [CPU_ALU] 
    1969                      ; return occurs ; [] 
    1970                      .dwattr $C$DW$127, DW_AT_TI_end_file("C:/ti/ccs1250/ccs/tools/compiler/ti-cgt-c2000_22.6.1.LTS/includ
    1971                      .dwattr $C$DW$127, DW_AT_TI_end_line(0x165)
    1972                      .dwattr $C$DW$127, DW_AT_TI_end_column(0x2f)
    1973                      .dwendentry
    1974                      .dwendtag $C$DW$127
    1975              
    1976 00000000               .sect   ".text:__isnormal"
    1977                      .clink
    1978                      .global ||__isnormal||
    1979              
    1980              $C$DW$131       .dwtag  DW_TAG_subprogram
TMS320C2000 Assembler PC v22.6.1 Thu Mar 28 17:35:23 2024

Copyright (c) 1996-2018 Texas Instruments Incorporated
llc.asm                                                              PAGE   39

    1981                      .dwattr $C$DW$131, DW_AT_name("__isnormal")
    1982                      .dwattr $C$DW$131, DW_AT_low_pc(||__isnormal||)
    1983                      .dwattr $C$DW$131, DW_AT_high_pc(0x00)
    1984                      .dwattr $C$DW$131, DW_AT_linkage_name("__isnormal")
    1985                      .dwattr $C$DW$131, DW_AT_external
    1986                      .dwattr $C$DW$131, DW_AT_type(*$C$DW$T$10)
    1987                      .dwattr $C$DW$131, DW_AT_decl_file("C:/ti/ccs1250/ccs/tools/compiler/ti-cgt-c2000_22.6.1.LTS/include/
    1988                      .dwattr $C$DW$131, DW_AT_decl_line(0x15f)
    1989                      .dwattr $C$DW$131, DW_AT_decl_column(0x18)
    1990                      .dwattr $C$DW$131, DW_AT_TI_max_frame_size(-6)
    1991                      .dwpsn  file "C:/ti/ccs1250/ccs/tools/compiler/ti-cgt-c2000_22.6.1.LTS/include/_defs.h",line 352,colu
    1992              
    1993                      .dwfde $C$DW$CIE, ||__isnormal||
    1994              $C$DW$132       .dwtag  DW_TAG_formal_parameter
    1995                      .dwattr $C$DW$132, DW_AT_name("d")
    1996                      .dwattr $C$DW$132, DW_AT_type(*$C$DW$T$107)
    1997                      .dwattr $C$DW$132, DW_AT_location[DW_OP_reg12]
    1998              
    1999              
    2000              ;***************************************************************
    2001              ;* FNAME: __isnormal                    FR SIZE:   4           *
    2002              ;*                                                             *
    2003              ;* FUNCTION ENVIRONMENT                                        *
    2004              ;*                                                             *
    2005              ;* FUNCTION PROPERTIES                                         *
    2006              ;*                            4 Parameter,  0 Auto,  0 SOE     *
    2007              ;***************************************************************
    2008              
    2009              ||__isnormal||:
    2010              ;* AR5   assigned to $O$C2
    2011              ;* AR6   assigned to $O$S1
    2012              ;* AR4   assigned to d
    2013              $C$DW$133       .dwtag  DW_TAG_variable
    2014                      .dwattr $C$DW$133, DW_AT_name("d")
    2015                      .dwattr $C$DW$133, DW_AT_type(*$C$DW$T$108)
    2016                      .dwattr $C$DW$133, DW_AT_location[DW_OP_reg12]
    2017              
    2018                      .dwcfi  cfa_offset, -2
    2019                      .dwcfi  save_reg_to_mem, 26, 0
    2020 00000000 FE04          ADDB      SP,#4                 ; [CPU_ARAU] 
    2021                      .dwcfi  cfa_offset, -6
    2022                      .dwpsn  file "C:/ti/ccs1250/ccs/tools/compiler/ti-cgt-c2000_22.6.1.LTS/include/_defs.h",line 352,colu
    2023 00000001 83C4          MOVL      XAR5,*+XAR4[0]        ; [CPU_ALU] |352| 
    2024 00000002 8AD4          MOVL      XAR4,*+XAR4[2]        ; [CPU_ALU] |352| 
    2025 00000003 BE00          MOVB      XAR6,#0               ; [CPU_ALU] |352| 
    2026 00000004 28AC          MOV       T,#52                 ; [CPU_ALU] |352| 
         00000005 0034 
    2027 00000006 A0AB          MOVL      P,XAR5                ; [CPU_ALU] |352| 
    2028 00000007 A8A9          MOVL      ACC,XAR4              ; [CPU_ALU] |352| 
    2029 00000008 C244          MOVL      *-SP[4],XAR6          ; [CPU_ALU] |352| 
    2030 00000009 2B42          MOV       *-SP[2],#0            ; [CPU_ALU] |352| 
    2031 0000000a 565B          LSR64     ACC:P,T               ; [CPU_ALU] |352| 
    2032 0000000b 2B41          MOV       *-SP[1],#0            ; [CPU_FPU] |352| 
    2033 0000000c 9000          ANDB      AL,#0                 ; [CPU_ALU] |352| 
    2034 0000000d 9100          ANDB      AH,#0                 ; [CPU_ALU] |352| 
TMS320C2000 Assembler PC v22.6.1 Thu Mar 28 17:35:23 2024

Copyright (c) 1996-2018 Texas Instruments Incorporated
llc.asm                                                              PAGE   40

    2035 0000000e 18AB          AND       PL,#2047              ; [CPU_ALU] |352| 
         0000000f 07FF 
    2036 00000010 18AA          AND       PH,#0                 ; [CPU_ALU] |352| 
         00000011 0000 
    2037              $C$DW$134       .dwtag  DW_TAG_TI_branch
    2038                      .dwattr $C$DW$134, DW_AT_low_pc(0x00)
    2039                      .dwattr $C$DW$134, DW_AT_name("__c28xabi_cmpull")
    2040                      .dwattr $C$DW$134, DW_AT_TI_call
    2041              
    2042 00000012 7640!         LCR       #||__c28xabi_cmpull|| ; [CPU_ALU] |352| 
         00000013 0000 
    2043                      ; call occurs [#||__c28xabi_cmpull||] ; [] |352| 
    2044 00000014 BE00          MOVB      XAR6,#0               ; [CPU_ALU] |352| 
    2045 00000015 5200          CMPB      AL,#0                 ; [CPU_ALU] |352| 
    2046 00000016 610E          B         ||$C$L4||,EQ          ; [CPU_ALU] |352| 
    2047                      ; branchcc occurs ; [] |352| 
    2048 00000017 A0AB          MOVL      P,XAR5                ; [CPU_ALU] |352| 
    2049 00000018 A8A9          MOVL      ACC,XAR4              ; [CPU_ALU] |352| 
    2050 00000019 28AC          MOV       T,#48                 ; [CPU_ALU] |352| 
         0000001a 0030 
    2051 0000001b 565B          LSR64     ACC:P,T               ; [CPU_ALU] |352| 
    2052 0000001c 18AB          AND       PL,#0x7ff0            ; [CPU_ALU] |352| 
         0000001d 7FF0 
    2053 0000001e 80AB          MOVZ      AR7,PL                ; [CPU_ALU] |352| 
    2054 0000001f FF20          MOV       ACC,#32752            ; [CPU_ALU] |352| 
         00000020 7FF0 
    2055 00000021 0FA7          CMPL      ACC,XAR7              ; [CPU_ALU] |352| 
    2056 00000022 56B0          MOVB      XAR6,#1,NEQ           ; [CPU_ALU] |352| 
         00000023 01A6 
    2057 00000024       ||$C$L4||:    
    2058 00000024 FE84          SUBB      SP,#4                 ; [CPU_ARAU] 
    2059                      .dwcfi  cfa_offset, -2
    2060 00000025 92A6          MOV       AL,AR6                ; [CPU_ALU] |352| 
    2061              $C$DW$135       .dwtag  DW_TAG_TI_branch
    2062                      .dwattr $C$DW$135, DW_AT_low_pc(0x00)
    2063                      .dwattr $C$DW$135, DW_AT_TI_return
    2064              
    2065 00000026 0006          LRETR     ; [CPU_ALU] 
    2066                      ; return occurs ; [] 
    2067                      .dwattr $C$DW$131, DW_AT_TI_end_file("C:/ti/ccs1250/ccs/tools/compiler/ti-cgt-c2000_22.6.1.LTS/includ
    2068                      .dwattr $C$DW$131, DW_AT_TI_end_line(0x161)
    2069                      .dwattr $C$DW$131, DW_AT_TI_end_column(0x30)
    2070                      .dwendentry
    2071                      .dwendtag $C$DW$131
    2072              
    2073 00000000               .sect   ".text:__isnanl"
    2074                      .clink
    2075                      .global ||__isnanl||
    2076              
    2077              $C$DW$136       .dwtag  DW_TAG_subprogram
    2078                      .dwattr $C$DW$136, DW_AT_name("__isnanl")
    2079                      .dwattr $C$DW$136, DW_AT_low_pc(||__isnanl||)
    2080                      .dwattr $C$DW$136, DW_AT_high_pc(0x00)
    2081                      .dwattr $C$DW$136, DW_AT_linkage_name("__isnanl")
    2082                      .dwattr $C$DW$136, DW_AT_external
TMS320C2000 Assembler PC v22.6.1 Thu Mar 28 17:35:23 2024

Copyright (c) 1996-2018 Texas Instruments Incorporated
llc.asm                                                              PAGE   41

    2083                      .dwattr $C$DW$136, DW_AT_type(*$C$DW$T$10)
    2084                      .dwattr $C$DW$136, DW_AT_decl_file("C:/ti/ccs1250/ccs/tools/compiler/ti-cgt-c2000_22.6.1.LTS/include/
    2085                      .dwattr $C$DW$136, DW_AT_decl_line(0x15b)
    2086                      .dwattr $C$DW$136, DW_AT_decl_column(0x18)
    2087                      .dwattr $C$DW$136, DW_AT_TI_max_frame_size(-6)
    2088                      .dwpsn  file "C:/ti/ccs1250/ccs/tools/compiler/ti-cgt-c2000_22.6.1.LTS/include/_defs.h",line 348,colu
    2089              
    2090                      .dwfde $C$DW$CIE, ||__isnanl||
    2091              $C$DW$137       .dwtag  DW_TAG_formal_parameter
    2092                      .dwattr $C$DW$137, DW_AT_name("e")
    2093                      .dwattr $C$DW$137, DW_AT_type(*$C$DW$T$110)
    2094                      .dwattr $C$DW$137, DW_AT_location[DW_OP_reg12]
    2095              
    2096              
    2097              ;***************************************************************
    2098              ;* FNAME: __isnanl                      FR SIZE:   4           *
    2099              ;*                                                             *
    2100              ;* FUNCTION ENVIRONMENT                                        *
    2101              ;*                                                             *
    2102              ;* FUNCTION PROPERTIES                                         *
    2103              ;*                            4 Parameter,  0 Auto,  0 SOE     *
    2104              ;***************************************************************
    2105              
    2106              ||__isnanl||:
    2107              ;* AR7   assigned to $O$C2
    2108              ;* AR4   assigned to $O$S1
    2109              ;* AR4   assigned to e
    2110              $C$DW$138       .dwtag  DW_TAG_variable
    2111                      .dwattr $C$DW$138, DW_AT_name("e")
    2112                      .dwattr $C$DW$138, DW_AT_type(*$C$DW$T$111)
    2113                      .dwattr $C$DW$138, DW_AT_location[DW_OP_reg12]
    2114              
    2115                      .dwcfi  cfa_offset, -2
    2116                      .dwcfi  save_reg_to_mem, 26, 0
    2117 00000000 FE04          ADDB      SP,#4                 ; [CPU_ARAU] 
    2118                      .dwcfi  cfa_offset, -6
    2119                      .dwpsn  file "C:/ti/ccs1250/ccs/tools/compiler/ti-cgt-c2000_22.6.1.LTS/include/_defs.h",line 348,colu
    2120 00000001 C5C4          MOVL      XAR7,*+XAR4[0]        ; [CPU_ALU] |348| 
    2121 00000002 06D4          MOVL      ACC,*+XAR4[2]         ; [CPU_ALU] |348| 
    2122 00000003 28AC          MOV       T,#48                 ; [CPU_ALU] |348| 
         00000004 0030 
    2123 00000005 1EA6          MOVL      XAR6,ACC              ; [CPU_ALU] |348| 
    2124 00000006 A3A7          MOVL      P,XAR7                ; [CPU_ALU] |348| 
    2125 00000007 D400          MOVB      XAR4,#0               ; [CPU_ALU] |348| 
    2126 00000008 565B          LSR64     ACC:P,T               ; [CPU_ALU] |348| 
    2127 00000009 2BAA          MOV       PH,#0                 ; [CPU_ALU] |348| 
    2128 0000000a 18AB          AND       PL,#0x7ff0            ; [CPU_ALU] |348| 
         0000000b 7FF0 
    2129 0000000c FF20          MOV       ACC,#32752            ; [CPU_ALU] |348| 
         0000000d 7FF0 
    2130 0000000e 0FAB          CMPL      ACC,P                 ; [CPU_ALU] |348| 
    2131 0000000f 6013          B         ||$C$L5||,NEQ         ; [CPU_ALU] |348| 
    2132                      ; branchcc occurs ; [] |348| 
    2133 00000010 06A6          MOVL      ACC,XAR6              ; [CPU_ALU] |348| 
    2134 00000011 A3A7          MOVL      P,XAR7                ; [CPU_ALU] |348| 
TMS320C2000 Assembler PC v22.6.1 Thu Mar 28 17:35:23 2024

Copyright (c) 1996-2018 Texas Instruments Incorporated
llc.asm                                                              PAGE   42

    2135 00000012 BE00          MOVB      XAR6,#0               ; [CPU_ALU] |348| 
    2136 00000013 18A9          AND       AL,#65535             ; [CPU_ALU] |348| 
         00000014 FFFF 
    2137 00000015 910F          ANDB      AH,#15                ; [CPU_ALU] |348| 
    2138 00000016 18AB          AND       PL,#65535             ; [CPU_ALU] |348| 
         00000017 FFFF 
    2139 00000018 18AA          AND       PH,#65535             ; [CPU_ALU] |348| 
         00000019 FFFF 
    2140 0000001a C244          MOVL      *-SP[4],XAR6          ; [CPU_FPU] |348| 
    2141 0000001b 2B42          MOV       *-SP[2],#0            ; [CPU_FPU] |348| 
    2142 0000001c 2B41          MOV       *-SP[1],#0            ; [CPU_FPU] |348| 
    2143              $C$DW$139       .dwtag  DW_TAG_TI_branch
    2144                      .dwattr $C$DW$139, DW_AT_low_pc(0x00)
    2145                      .dwattr $C$DW$139, DW_AT_name("__c28xabi_cmpull")
    2146                      .dwattr $C$DW$139, DW_AT_TI_call
    2147              
    2148 0000001d 7640!         LCR       #||__c28xabi_cmpull|| ; [CPU_ALU] |348| 
         0000001e 0000 
    2149                      ; call occurs [#||__c28xabi_cmpull||] ; [] |348| 
    2150 0000001f 5200          CMPB      AL,#0                 ; [CPU_ALU] |348| 
    2151 00000020 56B0          MOVB      XAR4,#1,NEQ           ; [CPU_ALU] |348| 
         00000021 01A4 
    2152 00000022       ||$C$L5||:    
    2153 00000022 FE84          SUBB      SP,#4                 ; [CPU_ARAU] 
    2154                      .dwcfi  cfa_offset, -2
    2155 00000023 92A4          MOV       AL,AR4                ; [CPU_ALU] |348| 
    2156              $C$DW$140       .dwtag  DW_TAG_TI_branch
    2157                      .dwattr $C$DW$140, DW_AT_low_pc(0x00)
    2158                      .dwattr $C$DW$140, DW_AT_TI_return
    2159              
    2160 00000024 0006          LRETR     ; [CPU_ALU] 
    2161                      ; return occurs ; [] 
    2162                      .dwattr $C$DW$136, DW_AT_TI_end_file("C:/ti/ccs1250/ccs/tools/compiler/ti-cgt-c2000_22.6.1.LTS/includ
    2163                      .dwattr $C$DW$136, DW_AT_TI_end_line(0x15d)
    2164                      .dwattr $C$DW$136, DW_AT_TI_end_column(0x30)
    2165                      .dwendentry
    2166                      .dwendtag $C$DW$136
    2167              
    2168 00000000               .sect   ".text:__isnanf"
    2169                      .clink
    2170                      .global ||__isnanf||
    2171              
    2172              $C$DW$141       .dwtag  DW_TAG_subprogram
    2173                      .dwattr $C$DW$141, DW_AT_name("__isnanf")
    2174                      .dwattr $C$DW$141, DW_AT_low_pc(||__isnanf||)
    2175                      .dwattr $C$DW$141, DW_AT_high_pc(0x00)
    2176                      .dwattr $C$DW$141, DW_AT_linkage_name("__isnanf")
    2177                      .dwattr $C$DW$141, DW_AT_external
    2178                      .dwattr $C$DW$141, DW_AT_type(*$C$DW$T$10)
    2179                      .dwattr $C$DW$141, DW_AT_decl_file("C:/ti/ccs1250/ccs/tools/compiler/ti-cgt-c2000_22.6.1.LTS/include/
    2180                      .dwattr $C$DW$141, DW_AT_decl_line(0x158)
    2181                      .dwattr $C$DW$141, DW_AT_decl_column(0x18)
    2182                      .dwattr $C$DW$141, DW_AT_TI_max_frame_size(-2)
    2183                      .dwpsn  file "C:/ti/ccs1250/ccs/tools/compiler/ti-cgt-c2000_22.6.1.LTS/include/_defs.h",line 345,colu
    2184              
TMS320C2000 Assembler PC v22.6.1 Thu Mar 28 17:35:23 2024

Copyright (c) 1996-2018 Texas Instruments Incorporated
llc.asm                                                              PAGE   43

    2185                      .dwfde $C$DW$CIE, ||__isnanf||
    2186              $C$DW$142       .dwtag  DW_TAG_formal_parameter
    2187                      .dwattr $C$DW$142, DW_AT_name("f")
    2188                      .dwattr $C$DW$142, DW_AT_type(*$C$DW$T$16)
    2189                      .dwattr $C$DW$142, DW_AT_location[DW_OP_regx 0x2b]
    2190              
    2191              
    2192              ;***************************************************************
    2193              ;* FNAME: __isnanf                      FR SIZE:   0           *
    2194              ;*                                                             *
    2195              ;* FUNCTION ENVIRONMENT                                        *
    2196              ;*                                                             *
    2197              ;* FUNCTION PROPERTIES                                         *
    2198              ;*                            0 Parameter,  0 Auto,  0 SOE     *
    2199              ;***************************************************************
    2200              
    2201              ||__isnanf||:
    2202              ;* PL    assigned to $O$K3
    2203              ;* AR6   assigned to $O$S1
    2204              ;* R0    assigned to f
    2205              $C$DW$143       .dwtag  DW_TAG_variable
    2206                      .dwattr $C$DW$143, DW_AT_name("f")
    2207                      .dwattr $C$DW$143, DW_AT_type(*$C$DW$T$102)
    2208                      .dwattr $C$DW$143, DW_AT_location[DW_OP_regx 0x2b]
    2209              
    2210                      .dwcfi  cfa_offset, -2
    2211                      .dwcfi  save_reg_to_mem, 26, 0
    2212                      .dwpsn  file "C:/ti/ccs1250/ccs/tools/compiler/ti-cgt-c2000_22.6.1.LTS/include/_defs.h",line 345,colu
    2213 00000000 BFAB          MOV32     P,R0H                 ; [CPU_FPU] |345| 
         00000001 0F12 
    2214 00000002 CCAA          AND       AL,PH,#0x7f80         ; [CPU_ALU] |345| 
         00000003 7F80 
    2215 00000004 80A9          MOVZ      AR7,AL                ; [CPU_ALU] |345| 
    2216 00000005 BE00          MOVB      XAR6,#0               ; [CPU_ALU] |345| 
    2217 00000006 FF20          MOV       ACC,#32640            ; [CPU_ALU] |345| 
         00000007 7F80 
    2218 00000008 0FA7          CMPL      ACC,XAR7              ; [CPU_ALU] |345| 
    2219 00000009 6006          B         ||$C$L6||,NEQ         ; [CPU_ALU] |345| 
    2220                      ; branchcc occurs ; [] |345| 
    2221 0000000a A9A9          MOVL      ACC,P                 ; [CPU_ALU] |345| 
    2222 0000000b 917F          ANDB      AH,#127               ; [CPU_ALU] |345| 
    2223 0000000c FF58          TEST      ACC                   ; [CPU_ALU] |345| 
    2224 0000000d 56B0          MOVB      XAR6,#1,NEQ           ; [CPU_ALU] |345| 
         0000000e 01A6 
    2225 0000000f       ||$C$L6||:    
    2226 0000000f 92A6          MOV       AL,AR6                ; [CPU_ALU] |345| 
    2227              $C$DW$144       .dwtag  DW_TAG_TI_branch
    2228                      .dwattr $C$DW$144, DW_AT_low_pc(0x00)
    2229                      .dwattr $C$DW$144, DW_AT_TI_return
    2230              
    2231 00000010 0006          LRETR     ; [CPU_ALU] 
    2232                      ; return occurs ; [] 
    2233                      .dwattr $C$DW$141, DW_AT_TI_end_file("C:/ti/ccs1250/ccs/tools/compiler/ti-cgt-c2000_22.6.1.LTS/includ
    2234                      .dwattr $C$DW$141, DW_AT_TI_end_line(0x15a)
    2235                      .dwattr $C$DW$141, DW_AT_TI_end_column(0x2e)
TMS320C2000 Assembler PC v22.6.1 Thu Mar 28 17:35:23 2024

Copyright (c) 1996-2018 Texas Instruments Incorporated
llc.asm                                                              PAGE   44

    2236                      .dwendentry
    2237                      .dwendtag $C$DW$141
    2238              
    2239 00000000               .sect   ".text:__isnan"
    2240                      .clink
    2241                      .global ||__isnan||
    2242              
    2243              $C$DW$145       .dwtag  DW_TAG_subprogram
    2244                      .dwattr $C$DW$145, DW_AT_name("__isnan")
    2245                      .dwattr $C$DW$145, DW_AT_low_pc(||__isnan||)
    2246                      .dwattr $C$DW$145, DW_AT_high_pc(0x00)
    2247                      .dwattr $C$DW$145, DW_AT_linkage_name("__isnan")
    2248                      .dwattr $C$DW$145, DW_AT_external
    2249                      .dwattr $C$DW$145, DW_AT_type(*$C$DW$T$10)
    2250                      .dwattr $C$DW$145, DW_AT_decl_file("C:/ti/ccs1250/ccs/tools/compiler/ti-cgt-c2000_22.6.1.LTS/include/
    2251                      .dwattr $C$DW$145, DW_AT_decl_line(0x155)
    2252                      .dwattr $C$DW$145, DW_AT_decl_column(0x18)
    2253                      .dwattr $C$DW$145, DW_AT_TI_max_frame_size(-6)
    2254                      .dwpsn  file "C:/ti/ccs1250/ccs/tools/compiler/ti-cgt-c2000_22.6.1.LTS/include/_defs.h",line 342,colu
    2255              
    2256                      .dwfde $C$DW$CIE, ||__isnan||
    2257              $C$DW$146       .dwtag  DW_TAG_formal_parameter
    2258                      .dwattr $C$DW$146, DW_AT_name("d")
    2259                      .dwattr $C$DW$146, DW_AT_type(*$C$DW$T$107)
    2260                      .dwattr $C$DW$146, DW_AT_location[DW_OP_reg12]
    2261              
    2262              
    2263              ;***************************************************************
    2264              ;* FNAME: __isnan                       FR SIZE:   4           *
    2265              ;*                                                             *
    2266              ;* FUNCTION ENVIRONMENT                                        *
    2267              ;*                                                             *
    2268              ;* FUNCTION PROPERTIES                                         *
    2269              ;*                            4 Parameter,  0 Auto,  0 SOE     *
    2270              ;***************************************************************
    2271              
    2272              ||__isnan||:
    2273              ;* AR7   assigned to $O$C2
    2274              ;* AR4   assigned to $O$S1
    2275              ;* AR4   assigned to d
    2276              $C$DW$147       .dwtag  DW_TAG_variable
    2277                      .dwattr $C$DW$147, DW_AT_name("d")
    2278                      .dwattr $C$DW$147, DW_AT_type(*$C$DW$T$108)
    2279                      .dwattr $C$DW$147, DW_AT_location[DW_OP_reg12]
    2280              
    2281                      .dwcfi  cfa_offset, -2
    2282                      .dwcfi  save_reg_to_mem, 26, 0
    2283 00000000 FE04          ADDB      SP,#4                 ; [CPU_ARAU] 
    2284                      .dwcfi  cfa_offset, -6
    2285                      .dwpsn  file "C:/ti/ccs1250/ccs/tools/compiler/ti-cgt-c2000_22.6.1.LTS/include/_defs.h",line 342,colu
    2286 00000001 C5C4          MOVL      XAR7,*+XAR4[0]        ; [CPU_ALU] |342| 
    2287 00000002 06D4          MOVL      ACC,*+XAR4[2]         ; [CPU_ALU] |342| 
    2288 00000003 28AC          MOV       T,#48                 ; [CPU_ALU] |342| 
         00000004 0030 
    2289 00000005 1EA6          MOVL      XAR6,ACC              ; [CPU_ALU] |342| 
TMS320C2000 Assembler PC v22.6.1 Thu Mar 28 17:35:23 2024

Copyright (c) 1996-2018 Texas Instruments Incorporated
llc.asm                                                              PAGE   45

    2290 00000006 A3A7          MOVL      P,XAR7                ; [CPU_ALU] |342| 
    2291 00000007 D400          MOVB      XAR4,#0               ; [CPU_ALU] |342| 
    2292 00000008 565B          LSR64     ACC:P,T               ; [CPU_ALU] |342| 
    2293 00000009 2BAA          MOV       PH,#0                 ; [CPU_ALU] |342| 
    2294 0000000a 18AB          AND       PL,#0x7ff0            ; [CPU_ALU] |342| 
         0000000b 7FF0 
    2295 0000000c FF20          MOV       ACC,#32752            ; [CPU_ALU] |342| 
         0000000d 7FF0 
    2296 0000000e 0FAB          CMPL      ACC,P                 ; [CPU_ALU] |342| 
    2297 0000000f 6013          B         ||$C$L7||,NEQ         ; [CPU_ALU] |342| 
    2298                      ; branchcc occurs ; [] |342| 
    2299 00000010 06A6          MOVL      ACC,XAR6              ; [CPU_ALU] |342| 
    2300 00000011 A3A7          MOVL      P,XAR7                ; [CPU_ALU] |342| 
    2301 00000012 BE00          MOVB      XAR6,#0               ; [CPU_ALU] |342| 
    2302 00000013 18A9          AND       AL,#65535             ; [CPU_ALU] |342| 
         00000014 FFFF 
    2303 00000015 910F          ANDB      AH,#15                ; [CPU_ALU] |342| 
    2304 00000016 18AB          AND       PL,#65535             ; [CPU_ALU] |342| 
         00000017 FFFF 
    2305 00000018 18AA          AND       PH,#65535             ; [CPU_ALU] |342| 
         00000019 FFFF 
    2306 0000001a C244          MOVL      *-SP[4],XAR6          ; [CPU_FPU] |342| 
    2307 0000001b 2B42          MOV       *-SP[2],#0            ; [CPU_FPU] |342| 
    2308 0000001c 2B41          MOV       *-SP[1],#0            ; [CPU_FPU] |342| 
    2309              $C$DW$148       .dwtag  DW_TAG_TI_branch
    2310                      .dwattr $C$DW$148, DW_AT_low_pc(0x00)
    2311                      .dwattr $C$DW$148, DW_AT_name("__c28xabi_cmpull")
    2312                      .dwattr $C$DW$148, DW_AT_TI_call
    2313              
    2314 0000001d 7640!         LCR       #||__c28xabi_cmpull|| ; [CPU_ALU] |342| 
         0000001e 0000 
    2315                      ; call occurs [#||__c28xabi_cmpull||] ; [] |342| 
    2316 0000001f 5200          CMPB      AL,#0                 ; [CPU_ALU] |342| 
    2317 00000020 56B0          MOVB      XAR4,#1,NEQ           ; [CPU_ALU] |342| 
         00000021 01A4 
    2318 00000022       ||$C$L7||:    
    2319 00000022 FE84          SUBB      SP,#4                 ; [CPU_ARAU] 
    2320                      .dwcfi  cfa_offset, -2
    2321 00000023 92A4          MOV       AL,AR4                ; [CPU_ALU] |342| 
    2322              $C$DW$149       .dwtag  DW_TAG_TI_branch
    2323                      .dwattr $C$DW$149, DW_AT_low_pc(0x00)
    2324                      .dwattr $C$DW$149, DW_AT_TI_return
    2325              
    2326 00000024 0006          LRETR     ; [CPU_ALU] 
    2327                      ; return occurs ; [] 
    2328                      .dwattr $C$DW$145, DW_AT_TI_end_file("C:/ti/ccs1250/ccs/tools/compiler/ti-cgt-c2000_22.6.1.LTS/includ
    2329                      .dwattr $C$DW$145, DW_AT_TI_end_line(0x157)
    2330                      .dwattr $C$DW$145, DW_AT_TI_end_column(0x2f)
    2331                      .dwendentry
    2332                      .dwendtag $C$DW$145
    2333              
    2334 00000000               .sect   ".text:__isinfl"
    2335                      .clink
    2336                      .global ||__isinfl||
    2337              
TMS320C2000 Assembler PC v22.6.1 Thu Mar 28 17:35:23 2024

Copyright (c) 1996-2018 Texas Instruments Incorporated
llc.asm                                                              PAGE   46

    2338              $C$DW$150       .dwtag  DW_TAG_subprogram
    2339                      .dwattr $C$DW$150, DW_AT_name("__isinfl")
    2340                      .dwattr $C$DW$150, DW_AT_low_pc(||__isinfl||)
    2341                      .dwattr $C$DW$150, DW_AT_high_pc(0x00)
    2342                      .dwattr $C$DW$150, DW_AT_linkage_name("__isinfl")
    2343                      .dwattr $C$DW$150, DW_AT_external
    2344                      .dwattr $C$DW$150, DW_AT_type(*$C$DW$T$10)
    2345                      .dwattr $C$DW$150, DW_AT_decl_file("C:/ti/ccs1250/ccs/tools/compiler/ti-cgt-c2000_22.6.1.LTS/include/
    2346                      .dwattr $C$DW$150, DW_AT_decl_line(0x17a)
    2347                      .dwattr $C$DW$150, DW_AT_decl_column(0x18)
    2348                      .dwattr $C$DW$150, DW_AT_TI_max_frame_size(-6)
    2349                      .dwpsn  file "C:/ti/ccs1250/ccs/tools/compiler/ti-cgt-c2000_22.6.1.LTS/include/_defs.h",line 379,colu
    2350              
    2351                      .dwfde $C$DW$CIE, ||__isinfl||
    2352              $C$DW$151       .dwtag  DW_TAG_formal_parameter
    2353                      .dwattr $C$DW$151, DW_AT_name("e")
    2354                      .dwattr $C$DW$151, DW_AT_type(*$C$DW$T$110)
    2355                      .dwattr $C$DW$151, DW_AT_location[DW_OP_reg12]
    2356              
    2357              
    2358              ;***************************************************************
    2359              ;* FNAME: __isinfl                      FR SIZE:   4           *
    2360              ;*                                                             *
    2361              ;* FUNCTION ENVIRONMENT                                        *
    2362              ;*                                                             *
    2363              ;* FUNCTION PROPERTIES                                         *
    2364              ;*                            4 Parameter,  0 Auto,  0 SOE     *
    2365              ;***************************************************************
    2366              
    2367              ||__isinfl||:
    2368              ;* AR7   assigned to $O$C2
    2369              ;* AR4   assigned to $O$S1
    2370              ;* AR4   assigned to e
    2371              $C$DW$152       .dwtag  DW_TAG_variable
    2372                      .dwattr $C$DW$152, DW_AT_name("e")
    2373                      .dwattr $C$DW$152, DW_AT_type(*$C$DW$T$111)
    2374                      .dwattr $C$DW$152, DW_AT_location[DW_OP_reg12]
    2375              
    2376                      .dwcfi  cfa_offset, -2
    2377                      .dwcfi  save_reg_to_mem, 26, 0
    2378 00000000 FE04          ADDB      SP,#4                 ; [CPU_ARAU] 
    2379                      .dwcfi  cfa_offset, -6
    2380                      .dwpsn  file "C:/ti/ccs1250/ccs/tools/compiler/ti-cgt-c2000_22.6.1.LTS/include/_defs.h",line 379,colu
    2381 00000001 C5C4          MOVL      XAR7,*+XAR4[0]        ; [CPU_ALU] |379| 
    2382 00000002 06D4          MOVL      ACC,*+XAR4[2]         ; [CPU_ALU] |379| 
    2383 00000003 28AC          MOV       T,#48                 ; [CPU_ALU] |379| 
         00000004 0030 
    2384 00000005 1EA6          MOVL      XAR6,ACC              ; [CPU_ALU] |379| 
    2385 00000006 A3A7          MOVL      P,XAR7                ; [CPU_ALU] |379| 
    2386 00000007 D400          MOVB      XAR4,#0               ; [CPU_ALU] |379| 
    2387 00000008 565B          LSR64     ACC:P,T               ; [CPU_ALU] |379| 
    2388 00000009 2BAA          MOV       PH,#0                 ; [CPU_ALU] |379| 
    2389 0000000a 18AB          AND       PL,#0x7ff0            ; [CPU_ALU] |379| 
         0000000b 7FF0 
    2390 0000000c FF20          MOV       ACC,#32752            ; [CPU_ALU] |379| 
TMS320C2000 Assembler PC v22.6.1 Thu Mar 28 17:35:23 2024

Copyright (c) 1996-2018 Texas Instruments Incorporated
llc.asm                                                              PAGE   47

         0000000d 7FF0 
    2391 0000000e 0FAB          CMPL      ACC,P                 ; [CPU_ALU] |379| 
    2392 0000000f 6013          B         ||$C$L8||,NEQ         ; [CPU_ALU] |379| 
    2393                      ; branchcc occurs ; [] |379| 
    2394 00000010 06A6          MOVL      ACC,XAR6              ; [CPU_ALU] |379| 
    2395 00000011 A3A7          MOVL      P,XAR7                ; [CPU_ALU] |379| 
    2396 00000012 BE00          MOVB      XAR6,#0               ; [CPU_ALU] |379| 
    2397 00000013 18A9          AND       AL,#65535             ; [CPU_ALU] |379| 
         00000014 FFFF 
    2398 00000015 910F          ANDB      AH,#15                ; [CPU_ALU] |379| 
    2399 00000016 18AB          AND       PL,#65535             ; [CPU_ALU] |379| 
         00000017 FFFF 
    2400 00000018 18AA          AND       PH,#65535             ; [CPU_ALU] |379| 
         00000019 FFFF 
    2401 0000001a C244          MOVL      *-SP[4],XAR6          ; [CPU_FPU] |379| 
    2402 0000001b 2B42          MOV       *-SP[2],#0            ; [CPU_FPU] |379| 
    2403 0000001c 2B41          MOV       *-SP[1],#0            ; [CPU_FPU] |379| 
    2404              $C$DW$153       .dwtag  DW_TAG_TI_branch
    2405                      .dwattr $C$DW$153, DW_AT_low_pc(0x00)
    2406                      .dwattr $C$DW$153, DW_AT_name("__c28xabi_cmpull")
    2407                      .dwattr $C$DW$153, DW_AT_TI_call
    2408              
    2409 0000001d 7640!         LCR       #||__c28xabi_cmpull|| ; [CPU_ALU] |379| 
         0000001e 0000 
    2410                      ; call occurs [#||__c28xabi_cmpull||] ; [] |379| 
    2411 0000001f 5200          CMPB      AL,#0                 ; [CPU_ALU] |379| 
    2412 00000020 56B1          MOVB      XAR4,#1,EQ            ; [CPU_ALU] |379| 
         00000021 01A4 
    2413 00000022       ||$C$L8||:    
    2414 00000022 FE84          SUBB      SP,#4                 ; [CPU_ARAU] 
    2415                      .dwcfi  cfa_offset, -2
    2416 00000023 92A4          MOV       AL,AR4                ; [CPU_ALU] |379| 
    2417              $C$DW$154       .dwtag  DW_TAG_TI_branch
    2418                      .dwattr $C$DW$154, DW_AT_low_pc(0x00)
    2419                      .dwattr $C$DW$154, DW_AT_TI_return
    2420              
    2421 00000024 0006          LRETR     ; [CPU_ALU] 
    2422                      ; return occurs ; [] 
    2423                      .dwattr $C$DW$150, DW_AT_TI_end_file("C:/ti/ccs1250/ccs/tools/compiler/ti-cgt-c2000_22.6.1.LTS/includ
    2424                      .dwattr $C$DW$150, DW_AT_TI_end_line(0x17b)
    2425                      .dwattr $C$DW$150, DW_AT_TI_end_column(0x4c)
    2426                      .dwendentry
    2427                      .dwendtag $C$DW$150
    2428              
    2429 00000000               .sect   ".text:__isinff"
    2430                      .clink
    2431                      .global ||__isinff||
    2432              
    2433              $C$DW$155       .dwtag  DW_TAG_subprogram
    2434                      .dwattr $C$DW$155, DW_AT_name("__isinff")
    2435                      .dwattr $C$DW$155, DW_AT_low_pc(||__isinff||)
    2436                      .dwattr $C$DW$155, DW_AT_high_pc(0x00)
    2437                      .dwattr $C$DW$155, DW_AT_linkage_name("__isinff")
    2438                      .dwattr $C$DW$155, DW_AT_external
    2439                      .dwattr $C$DW$155, DW_AT_type(*$C$DW$T$10)
TMS320C2000 Assembler PC v22.6.1 Thu Mar 28 17:35:23 2024

Copyright (c) 1996-2018 Texas Instruments Incorporated
llc.asm                                                              PAGE   48

    2440                      .dwattr $C$DW$155, DW_AT_decl_file("C:/ti/ccs1250/ccs/tools/compiler/ti-cgt-c2000_22.6.1.LTS/include/
    2441                      .dwattr $C$DW$155, DW_AT_decl_line(0x176)
    2442                      .dwattr $C$DW$155, DW_AT_decl_column(0x18)
    2443                      .dwattr $C$DW$155, DW_AT_TI_max_frame_size(-2)
    2444                      .dwpsn  file "C:/ti/ccs1250/ccs/tools/compiler/ti-cgt-c2000_22.6.1.LTS/include/_defs.h",line 375,colu
    2445              
    2446                      .dwfde $C$DW$CIE, ||__isinff||
    2447              $C$DW$156       .dwtag  DW_TAG_formal_parameter
    2448                      .dwattr $C$DW$156, DW_AT_name("f")
    2449                      .dwattr $C$DW$156, DW_AT_type(*$C$DW$T$16)
    2450                      .dwattr $C$DW$156, DW_AT_location[DW_OP_regx 0x2b]
    2451              
    2452              
    2453              ;***************************************************************
    2454              ;* FNAME: __isinff                      FR SIZE:   0           *
    2455              ;*                                                             *
    2456              ;* FUNCTION ENVIRONMENT                                        *
    2457              ;*                                                             *
    2458              ;* FUNCTION PROPERTIES                                         *
    2459              ;*                            0 Parameter,  0 Auto,  0 SOE     *
    2460              ;***************************************************************
    2461              
    2462              ||__isinff||:
    2463              ;* PL    assigned to $O$K3
    2464              ;* AR6   assigned to $O$S1
    2465              ;* R0    assigned to f
    2466              $C$DW$157       .dwtag  DW_TAG_variable
    2467                      .dwattr $C$DW$157, DW_AT_name("f")
    2468                      .dwattr $C$DW$157, DW_AT_type(*$C$DW$T$102)
    2469                      .dwattr $C$DW$157, DW_AT_location[DW_OP_regx 0x2b]
    2470              
    2471                      .dwcfi  cfa_offset, -2
    2472                      .dwcfi  save_reg_to_mem, 26, 0
    2473                      .dwpsn  file "C:/ti/ccs1250/ccs/tools/compiler/ti-cgt-c2000_22.6.1.LTS/include/_defs.h",line 375,colu
    2474 00000000 BFAB          MOV32     P,R0H                 ; [CPU_FPU] |375| 
         00000001 0F12 
    2475 00000002 CCAA          AND       AL,PH,#0x7f80         ; [CPU_ALU] |375| 
         00000003 7F80 
    2476 00000004 80A9          MOVZ      AR7,AL                ; [CPU_ALU] |375| 
    2477 00000005 BE00          MOVB      XAR6,#0               ; [CPU_ALU] |375| 
    2478 00000006 FF20          MOV       ACC,#32640            ; [CPU_ALU] |375| 
         00000007 7F80 
    2479 00000008 0FA7          CMPL      ACC,XAR7              ; [CPU_ALU] |375| 
    2480 00000009 6006          B         ||$C$L9||,NEQ         ; [CPU_ALU] |375| 
    2481                      ; branchcc occurs ; [] |375| 
    2482 0000000a A9A9          MOVL      ACC,P                 ; [CPU_ALU] |375| 
    2483 0000000b 917F          ANDB      AH,#127               ; [CPU_ALU] |375| 
    2484 0000000c FF58          TEST      ACC                   ; [CPU_ALU] |375| 
    2485 0000000d 56B1          MOVB      XAR6,#1,EQ            ; [CPU_ALU] |375| 
         0000000e 01A6 
    2486 0000000f       ||$C$L9||:    
    2487 0000000f 92A6          MOV       AL,AR6                ; [CPU_ALU] |375| 
    2488              $C$DW$158       .dwtag  DW_TAG_TI_branch
    2489                      .dwattr $C$DW$158, DW_AT_low_pc(0x00)
    2490                      .dwattr $C$DW$158, DW_AT_TI_return
TMS320C2000 Assembler PC v22.6.1 Thu Mar 28 17:35:23 2024

Copyright (c) 1996-2018 Texas Instruments Incorporated
llc.asm                                                              PAGE   49

    2491              
    2492 00000010 0006          LRETR     ; [CPU_ALU] 
    2493                      ; return occurs ; [] 
    2494                      .dwattr $C$DW$155, DW_AT_TI_end_file("C:/ti/ccs1250/ccs/tools/compiler/ti-cgt-c2000_22.6.1.LTS/includ
    2495                      .dwattr $C$DW$155, DW_AT_TI_end_line(0x177)
    2496                      .dwattr $C$DW$155, DW_AT_TI_end_column(0x48)
    2497                      .dwendentry
    2498                      .dwendtag $C$DW$155
    2499              
    2500 00000000               .sect   ".text:__isinf"
    2501                      .clink
    2502                      .global ||__isinf||
    2503              
    2504              $C$DW$159       .dwtag  DW_TAG_subprogram
    2505                      .dwattr $C$DW$159, DW_AT_name("__isinf")
    2506                      .dwattr $C$DW$159, DW_AT_low_pc(||__isinf||)
    2507                      .dwattr $C$DW$159, DW_AT_high_pc(0x00)
    2508                      .dwattr $C$DW$159, DW_AT_linkage_name("__isinf")
    2509                      .dwattr $C$DW$159, DW_AT_external
    2510                      .dwattr $C$DW$159, DW_AT_type(*$C$DW$T$10)
    2511                      .dwattr $C$DW$159, DW_AT_decl_file("C:/ti/ccs1250/ccs/tools/compiler/ti-cgt-c2000_22.6.1.LTS/include/
    2512                      .dwattr $C$DW$159, DW_AT_decl_line(0x178)
    2513                      .dwattr $C$DW$159, DW_AT_decl_column(0x18)
    2514                      .dwattr $C$DW$159, DW_AT_TI_max_frame_size(-6)
    2515                      .dwpsn  file "C:/ti/ccs1250/ccs/tools/compiler/ti-cgt-c2000_22.6.1.LTS/include/_defs.h",line 377,colu
    2516              
    2517                      .dwfde $C$DW$CIE, ||__isinf||
    2518              $C$DW$160       .dwtag  DW_TAG_formal_parameter
    2519                      .dwattr $C$DW$160, DW_AT_name("d")
    2520                      .dwattr $C$DW$160, DW_AT_type(*$C$DW$T$107)
    2521                      .dwattr $C$DW$160, DW_AT_location[DW_OP_reg12]
    2522              
    2523              
    2524              ;***************************************************************
    2525              ;* FNAME: __isinf                       FR SIZE:   4           *
    2526              ;*                                                             *
    2527              ;* FUNCTION ENVIRONMENT                                        *
    2528              ;*                                                             *
    2529              ;* FUNCTION PROPERTIES                                         *
    2530              ;*                            4 Parameter,  0 Auto,  0 SOE     *
    2531              ;***************************************************************
    2532              
    2533              ||__isinf||:
    2534              ;* AR7   assigned to $O$C2
    2535              ;* AR4   assigned to $O$S1
    2536              ;* AR4   assigned to d
    2537              $C$DW$161       .dwtag  DW_TAG_variable
    2538                      .dwattr $C$DW$161, DW_AT_name("d")
    2539                      .dwattr $C$DW$161, DW_AT_type(*$C$DW$T$108)
    2540                      .dwattr $C$DW$161, DW_AT_location[DW_OP_reg12]
    2541              
    2542                      .dwcfi  cfa_offset, -2
    2543                      .dwcfi  save_reg_to_mem, 26, 0
    2544 00000000 FE04          ADDB      SP,#4                 ; [CPU_ARAU] 
    2545                      .dwcfi  cfa_offset, -6
TMS320C2000 Assembler PC v22.6.1 Thu Mar 28 17:35:23 2024

Copyright (c) 1996-2018 Texas Instruments Incorporated
llc.asm                                                              PAGE   50

    2546                      .dwpsn  file "C:/ti/ccs1250/ccs/tools/compiler/ti-cgt-c2000_22.6.1.LTS/include/_defs.h",line 377,colu
    2547 00000001 C5C4          MOVL      XAR7,*+XAR4[0]        ; [CPU_ALU] |377| 
    2548 00000002 06D4          MOVL      ACC,*+XAR4[2]         ; [CPU_ALU] |377| 
    2549 00000003 28AC          MOV       T,#48                 ; [CPU_ALU] |377| 
         00000004 0030 
    2550 00000005 1EA6          MOVL      XAR6,ACC              ; [CPU_ALU] |377| 
    2551 00000006 A3A7          MOVL      P,XAR7                ; [CPU_ALU] |377| 
    2552 00000007 D400          MOVB      XAR4,#0               ; [CPU_ALU] |377| 
    2553 00000008 565B          LSR64     ACC:P,T               ; [CPU_ALU] |377| 
    2554 00000009 2BAA          MOV       PH,#0                 ; [CPU_ALU] |377| 
    2555 0000000a 18AB          AND       PL,#0x7ff0            ; [CPU_ALU] |377| 
         0000000b 7FF0 
    2556 0000000c FF20          MOV       ACC,#32752            ; [CPU_ALU] |377| 
         0000000d 7FF0 
    2557 0000000e 0FAB          CMPL      ACC,P                 ; [CPU_ALU] |377| 
    2558 0000000f 6013          B         ||$C$L10||,NEQ        ; [CPU_ALU] |377| 
    2559                      ; branchcc occurs ; [] |377| 
    2560 00000010 06A6          MOVL      ACC,XAR6              ; [CPU_ALU] |377| 
    2561 00000011 A3A7          MOVL      P,XAR7                ; [CPU_ALU] |377| 
    2562 00000012 BE00          MOVB      XAR6,#0               ; [CPU_ALU] |377| 
    2563 00000013 18A9          AND       AL,#65535             ; [CPU_ALU] |377| 
         00000014 FFFF 
    2564 00000015 910F          ANDB      AH,#15                ; [CPU_ALU] |377| 
    2565 00000016 18AB          AND       PL,#65535             ; [CPU_ALU] |377| 
         00000017 FFFF 
    2566 00000018 18AA          AND       PH,#65535             ; [CPU_ALU] |377| 
         00000019 FFFF 
    2567 0000001a C244          MOVL      *-SP[4],XAR6          ; [CPU_FPU] |377| 
    2568 0000001b 2B42          MOV       *-SP[2],#0            ; [CPU_FPU] |377| 
    2569 0000001c 2B41          MOV       *-SP[1],#0            ; [CPU_FPU] |377| 
    2570              $C$DW$162       .dwtag  DW_TAG_TI_branch
    2571                      .dwattr $C$DW$162, DW_AT_low_pc(0x00)
    2572                      .dwattr $C$DW$162, DW_AT_name("__c28xabi_cmpull")
    2573                      .dwattr $C$DW$162, DW_AT_TI_call
    2574              
    2575 0000001d 7640!         LCR       #||__c28xabi_cmpull|| ; [CPU_ALU] |377| 
         0000001e 0000 
    2576                      ; call occurs [#||__c28xabi_cmpull||] ; [] |377| 
    2577 0000001f 5200          CMPB      AL,#0                 ; [CPU_ALU] |377| 
    2578 00000020 56B1          MOVB      XAR4,#1,EQ            ; [CPU_ALU] |377| 
         00000021 01A4 
    2579 00000022       ||$C$L10||:    
    2580 00000022 FE84          SUBB      SP,#4                 ; [CPU_ARAU] 
    2581                      .dwcfi  cfa_offset, -2
    2582 00000023 92A4          MOV       AL,AR4                ; [CPU_ALU] |377| 
    2583              $C$DW$163       .dwtag  DW_TAG_TI_branch
    2584                      .dwattr $C$DW$163, DW_AT_low_pc(0x00)
    2585                      .dwattr $C$DW$163, DW_AT_TI_return
    2586              
    2587 00000024 0006          LRETR     ; [CPU_ALU] 
    2588                      ; return occurs ; [] 
    2589                      .dwattr $C$DW$159, DW_AT_TI_end_file("C:/ti/ccs1250/ccs/tools/compiler/ti-cgt-c2000_22.6.1.LTS/includ
    2590                      .dwattr $C$DW$159, DW_AT_TI_end_line(0x179)
    2591                      .dwattr $C$DW$159, DW_AT_TI_end_column(0x4a)
    2592                      .dwendentry
TMS320C2000 Assembler PC v22.6.1 Thu Mar 28 17:35:23 2024

Copyright (c) 1996-2018 Texas Instruments Incorporated
llc.asm                                                              PAGE   51

    2593                      .dwendtag $C$DW$159
    2594              
    2595 00000000               .sect   ".text:__isfinitel"
    2596                      .clink
    2597                      .global ||__isfinitel||
    2598              
    2599              $C$DW$164       .dwtag  DW_TAG_subprogram
    2600                      .dwattr $C$DW$164, DW_AT_name("__isfinitel")
    2601                      .dwattr $C$DW$164, DW_AT_low_pc(||__isfinitel||)
    2602                      .dwattr $C$DW$164, DW_AT_high_pc(0x00)
    2603                      .dwattr $C$DW$164, DW_AT_linkage_name("__isfinitel")
    2604                      .dwattr $C$DW$164, DW_AT_external
    2605                      .dwattr $C$DW$164, DW_AT_type(*$C$DW$T$10)
    2606                      .dwattr $C$DW$164, DW_AT_decl_file("C:/ti/ccs1250/ccs/tools/compiler/ti-cgt-c2000_22.6.1.LTS/include/
    2607                      .dwattr $C$DW$164, DW_AT_decl_line(0x152)
    2608                      .dwattr $C$DW$164, DW_AT_decl_column(0x18)
    2609                      .dwattr $C$DW$164, DW_AT_TI_max_frame_size(-2)
    2610                      .dwpsn  file "C:/ti/ccs1250/ccs/tools/compiler/ti-cgt-c2000_22.6.1.LTS/include/_defs.h",line 339,colu
    2611              
    2612                      .dwfde $C$DW$CIE, ||__isfinitel||
    2613              $C$DW$165       .dwtag  DW_TAG_formal_parameter
    2614                      .dwattr $C$DW$165, DW_AT_name("e")
    2615                      .dwattr $C$DW$165, DW_AT_type(*$C$DW$T$110)
    2616                      .dwattr $C$DW$165, DW_AT_location[DW_OP_reg12]
    2617              
    2618              
    2619              ;***************************************************************
    2620              ;* FNAME: __isfinitel                   FR SIZE:   0           *
    2621              ;*                                                             *
    2622              ;* FUNCTION ENVIRONMENT                                        *
    2623              ;*                                                             *
    2624              ;* FUNCTION PROPERTIES                                         *
    2625              ;*                            0 Parameter,  0 Auto,  0 SOE     *
    2626              ;***************************************************************
    2627              
    2628              ||__isfinitel||:
    2629              ;* AR4   assigned to e
    2630              $C$DW$166       .dwtag  DW_TAG_variable
    2631                      .dwattr $C$DW$166, DW_AT_name("e")
    2632                      .dwattr $C$DW$166, DW_AT_type(*$C$DW$T$111)
    2633                      .dwattr $C$DW$166, DW_AT_location[DW_OP_reg12]
    2634              
    2635                      .dwcfi  cfa_offset, -2
    2636                      .dwcfi  save_reg_to_mem, 26, 0
    2637                      .dwpsn  file "C:/ti/ccs1250/ccs/tools/compiler/ti-cgt-c2000_22.6.1.LTS/include/_defs.h",line 339,colu
    2638 00000000 A3C4          MOVL      P,*+XAR4[0]           ; [CPU_ALU] |339| 
    2639 00000001 06D4          MOVL      ACC,*+XAR4[2]         ; [CPU_ALU] |339| 
    2640 00000002 28AC          MOV       T,#48                 ; [CPU_ALU] |339| 
         00000003 0030 
    2641 00000004 565B          LSR64     ACC:P,T               ; [CPU_ALU] |339| 
    2642 00000005 18AB          AND       PL,#0x7ff0            ; [CPU_ALU] |339| 
         00000006 7FF0 
    2643 00000007 80AB          MOVZ      AR7,PL                ; [CPU_ALU] |339| 
    2644 00000008 FF20          MOV       ACC,#32752            ; [CPU_ALU] |339| 
         00000009 7FF0 
TMS320C2000 Assembler PC v22.6.1 Thu Mar 28 17:35:23 2024

Copyright (c) 1996-2018 Texas Instruments Incorporated
llc.asm                                                              PAGE   52

    2645 0000000a BE00          MOVB      XAR6,#0               ; [CPU_ALU] |339| 
    2646 0000000b 0FA7          CMPL      ACC,XAR7              ; [CPU_ALU] |339| 
    2647 0000000c 56B0          MOVB      XAR6,#1,NEQ           ; [CPU_ALU] |339| 
         0000000d 01A6 
    2648 0000000e 92A6          MOV       AL,AR6                ; [CPU_ALU] |339| 
    2649              $C$DW$167       .dwtag  DW_TAG_TI_branch
    2650                      .dwattr $C$DW$167, DW_AT_low_pc(0x00)
    2651                      .dwattr $C$DW$167, DW_AT_TI_return
    2652              
    2653 0000000f 0006          LRETR     ; [CPU_ALU] 
    2654                      ; return occurs ; [] 
    2655                      .dwattr $C$DW$164, DW_AT_TI_end_file("C:/ti/ccs1250/ccs/tools/compiler/ti-cgt-c2000_22.6.1.LTS/includ
    2656                      .dwattr $C$DW$164, DW_AT_TI_end_line(0x153)
    2657                      .dwattr $C$DW$164, DW_AT_TI_end_column(0x2f)
    2658                      .dwendentry
    2659                      .dwendtag $C$DW$164
    2660              
    2661 00000000               .sect   ".text:__isfinitef"
    2662                      .clink
    2663                      .global ||__isfinitef||
    2664              
    2665              $C$DW$168       .dwtag  DW_TAG_subprogram
    2666                      .dwattr $C$DW$168, DW_AT_name("__isfinitef")
    2667                      .dwattr $C$DW$168, DW_AT_low_pc(||__isfinitef||)
    2668                      .dwattr $C$DW$168, DW_AT_high_pc(0x00)
    2669                      .dwattr $C$DW$168, DW_AT_linkage_name("__isfinitef")
    2670                      .dwattr $C$DW$168, DW_AT_external
    2671                      .dwattr $C$DW$168, DW_AT_type(*$C$DW$T$10)
    2672                      .dwattr $C$DW$168, DW_AT_decl_file("C:/ti/ccs1250/ccs/tools/compiler/ti-cgt-c2000_22.6.1.LTS/include/
    2673                      .dwattr $C$DW$168, DW_AT_decl_line(0x150)
    2674                      .dwattr $C$DW$168, DW_AT_decl_column(0x18)
    2675                      .dwattr $C$DW$168, DW_AT_TI_max_frame_size(-2)
    2676                      .dwpsn  file "C:/ti/ccs1250/ccs/tools/compiler/ti-cgt-c2000_22.6.1.LTS/include/_defs.h",line 337,colu
    2677              
    2678                      .dwfde $C$DW$CIE, ||__isfinitef||
    2679              $C$DW$169       .dwtag  DW_TAG_formal_parameter
    2680                      .dwattr $C$DW$169, DW_AT_name("f")
    2681                      .dwattr $C$DW$169, DW_AT_type(*$C$DW$T$16)
    2682                      .dwattr $C$DW$169, DW_AT_location[DW_OP_regx 0x2b]
    2683              
    2684              
    2685              ;***************************************************************
    2686              ;* FNAME: __isfinitef                   FR SIZE:   0           *
    2687              ;*                                                             *
    2688              ;* FUNCTION ENVIRONMENT                                        *
    2689              ;*                                                             *
    2690              ;* FUNCTION PROPERTIES                                         *
    2691              ;*                            0 Parameter,  0 Auto,  0 SOE     *
    2692              ;***************************************************************
    2693              
    2694              ||__isfinitef||:
    2695              ;* R0    assigned to f
    2696              $C$DW$170       .dwtag  DW_TAG_variable
    2697                      .dwattr $C$DW$170, DW_AT_name("f")
    2698                      .dwattr $C$DW$170, DW_AT_type(*$C$DW$T$102)
TMS320C2000 Assembler PC v22.6.1 Thu Mar 28 17:35:23 2024

Copyright (c) 1996-2018 Texas Instruments Incorporated
llc.asm                                                              PAGE   53

    2699                      .dwattr $C$DW$170, DW_AT_location[DW_OP_regx 0x2b]
    2700              
    2701                      .dwcfi  cfa_offset, -2
    2702                      .dwcfi  save_reg_to_mem, 26, 0
    2703                      .dwpsn  file "C:/ti/ccs1250/ccs/tools/compiler/ti-cgt-c2000_22.6.1.LTS/include/_defs.h",line 337,colu
    2704 00000000 BFAB          MOV32     P,R0H                 ; [CPU_FPU] |337| 
         00000001 0F12 
    2705 00000002 18AA          AND       PH,#0x7f80            ; [CPU_ALU] |337| 
         00000003 7F80 
    2706 00000004 80AA          MOVZ      AR7,PH                ; [CPU_ALU] |337| 
    2707 00000005 FF20          MOV       ACC,#32640            ; [CPU_ALU] |337| 
         00000006 7F80 
    2708 00000007 BE00          MOVB      XAR6,#0               ; [CPU_ALU] |337| 
    2709 00000008 0FA7          CMPL      ACC,XAR7              ; [CPU_ALU] |337| 
    2710 00000009 56B0          MOVB      XAR6,#1,NEQ           ; [CPU_ALU] |337| 
         0000000a 01A6 
    2711 0000000b 92A6          MOV       AL,AR6                ; [CPU_ALU] |337| 
    2712              $C$DW$171       .dwtag  DW_TAG_TI_branch
    2713                      .dwattr $C$DW$171, DW_AT_low_pc(0x00)
    2714                      .dwattr $C$DW$171, DW_AT_TI_return
    2715              
    2716 0000000c 0006          LRETR     ; [CPU_ALU] 
    2717                      ; return occurs ; [] 
    2718                      .dwattr $C$DW$168, DW_AT_TI_end_file("C:/ti/ccs1250/ccs/tools/compiler/ti-cgt-c2000_22.6.1.LTS/includ
    2719                      .dwattr $C$DW$168, DW_AT_TI_end_line(0x151)
    2720                      .dwattr $C$DW$168, DW_AT_TI_end_column(0x2d)
    2721                      .dwendentry
    2722                      .dwendtag $C$DW$168
    2723              
    2724 00000000               .sect   ".text:__isfinite"
    2725                      .clink
    2726                      .global ||__isfinite||
    2727              
    2728              $C$DW$172       .dwtag  DW_TAG_subprogram
    2729                      .dwattr $C$DW$172, DW_AT_name("__isfinite")
    2730                      .dwattr $C$DW$172, DW_AT_low_pc(||__isfinite||)
    2731                      .dwattr $C$DW$172, DW_AT_high_pc(0x00)
    2732                      .dwattr $C$DW$172, DW_AT_linkage_name("__isfinite")
    2733                      .dwattr $C$DW$172, DW_AT_external
    2734                      .dwattr $C$DW$172, DW_AT_type(*$C$DW$T$10)
    2735                      .dwattr $C$DW$172, DW_AT_decl_file("C:/ti/ccs1250/ccs/tools/compiler/ti-cgt-c2000_22.6.1.LTS/include/
    2736                      .dwattr $C$DW$172, DW_AT_decl_line(0x14e)
    2737                      .dwattr $C$DW$172, DW_AT_decl_column(0x18)
    2738                      .dwattr $C$DW$172, DW_AT_TI_max_frame_size(-2)
    2739                      .dwpsn  file "C:/ti/ccs1250/ccs/tools/compiler/ti-cgt-c2000_22.6.1.LTS/include/_defs.h",line 335,colu
    2740              
    2741                      .dwfde $C$DW$CIE, ||__isfinite||
    2742              $C$DW$173       .dwtag  DW_TAG_formal_parameter
    2743                      .dwattr $C$DW$173, DW_AT_name("d")
    2744                      .dwattr $C$DW$173, DW_AT_type(*$C$DW$T$107)
    2745                      .dwattr $C$DW$173, DW_AT_location[DW_OP_reg12]
    2746              
    2747              
    2748              ;***************************************************************
    2749              ;* FNAME: __isfinite                    FR SIZE:   0           *
TMS320C2000 Assembler PC v22.6.1 Thu Mar 28 17:35:23 2024

Copyright (c) 1996-2018 Texas Instruments Incorporated
llc.asm                                                              PAGE   54

    2750              ;*                                                             *
    2751              ;* FUNCTION ENVIRONMENT                                        *
    2752              ;*                                                             *
    2753              ;* FUNCTION PROPERTIES                                         *
    2754              ;*                            0 Parameter,  0 Auto,  0 SOE     *
    2755              ;***************************************************************
    2756              
    2757              ||__isfinite||:
    2758              ;* AR4   assigned to d
    2759              $C$DW$174       .dwtag  DW_TAG_variable
    2760                      .dwattr $C$DW$174, DW_AT_name("d")
    2761                      .dwattr $C$DW$174, DW_AT_type(*$C$DW$T$108)
    2762                      .dwattr $C$DW$174, DW_AT_location[DW_OP_reg12]
    2763              
    2764                      .dwcfi  cfa_offset, -2
    2765                      .dwcfi  save_reg_to_mem, 26, 0
    2766                      .dwpsn  file "C:/ti/ccs1250/ccs/tools/compiler/ti-cgt-c2000_22.6.1.LTS/include/_defs.h",line 335,colu
    2767 00000000 A3C4          MOVL      P,*+XAR4[0]           ; [CPU_ALU] |335| 
    2768 00000001 06D4          MOVL      ACC,*+XAR4[2]         ; [CPU_ALU] |335| 
    2769 00000002 28AC          MOV       T,#48                 ; [CPU_ALU] |335| 
         00000003 0030 
    2770 00000004 565B          LSR64     ACC:P,T               ; [CPU_ALU] |335| 
    2771 00000005 18AB          AND       PL,#0x7ff0            ; [CPU_ALU] |335| 
         00000006 7FF0 
    2772 00000007 80AB          MOVZ      AR7,PL                ; [CPU_ALU] |335| 
    2773 00000008 FF20          MOV       ACC,#32752            ; [CPU_ALU] |335| 
         00000009 7FF0 
    2774 0000000a BE00          MOVB      XAR6,#0               ; [CPU_ALU] |335| 
    2775 0000000b 0FA7          CMPL      ACC,XAR7              ; [CPU_ALU] |335| 
    2776 0000000c 56B0          MOVB      XAR6,#1,NEQ           ; [CPU_ALU] |335| 
         0000000d 01A6 
    2777 0000000e 92A6          MOV       AL,AR6                ; [CPU_ALU] |335| 
    2778              $C$DW$175       .dwtag  DW_TAG_TI_branch
    2779                      .dwattr $C$DW$175, DW_AT_low_pc(0x00)
    2780                      .dwattr $C$DW$175, DW_AT_TI_return
    2781              
    2782 0000000f 0006          LRETR     ; [CPU_ALU] 
    2783                      ; return occurs ; [] 
    2784                      .dwattr $C$DW$172, DW_AT_TI_end_file("C:/ti/ccs1250/ccs/tools/compiler/ti-cgt-c2000_22.6.1.LTS/includ
    2785                      .dwattr $C$DW$172, DW_AT_TI_end_line(0x14f)
    2786                      .dwattr $C$DW$172, DW_AT_TI_end_column(0x2e)
    2787                      .dwendentry
    2788                      .dwendtag $C$DW$172
    2789              
    2790 00000000               .sect   ".text:__fpclassifyl"
    2791                      .clink
    2792                      .global ||__fpclassifyl||
    2793              
    2794              $C$DW$176       .dwtag  DW_TAG_subprogram
    2795                      .dwattr $C$DW$176, DW_AT_name("__fpclassifyl")
    2796                      .dwattr $C$DW$176, DW_AT_low_pc(||__fpclassifyl||)
    2797                      .dwattr $C$DW$176, DW_AT_high_pc(0x00)
    2798                      .dwattr $C$DW$176, DW_AT_linkage_name("__fpclassifyl")
    2799                      .dwattr $C$DW$176, DW_AT_external
    2800                      .dwattr $C$DW$176, DW_AT_type(*$C$DW$T$10)
TMS320C2000 Assembler PC v22.6.1 Thu Mar 28 17:35:23 2024

Copyright (c) 1996-2018 Texas Instruments Incorporated
llc.asm                                                              PAGE   55

    2801                      .dwattr $C$DW$176, DW_AT_decl_file("C:/ti/ccs1250/ccs/tools/compiler/ti-cgt-c2000_22.6.1.LTS/include/
    2802                      .dwattr $C$DW$176, DW_AT_decl_line(0x1ae)
    2803                      .dwattr $C$DW$176, DW_AT_decl_column(0x18)
    2804                      .dwattr $C$DW$176, DW_AT_TI_max_frame_size(-10)
    2805                      .dwpsn  file "C:/ti/ccs1250/ccs/tools/compiler/ti-cgt-c2000_22.6.1.LTS/include/_defs.h",line 431,colu
    2806              
    2807                      .dwfde $C$DW$CIE, ||__fpclassifyl||
    2808              $C$DW$177       .dwtag  DW_TAG_formal_parameter
    2809                      .dwattr $C$DW$177, DW_AT_name("e")
    2810                      .dwattr $C$DW$177, DW_AT_type(*$C$DW$T$110)
    2811                      .dwattr $C$DW$177, DW_AT_location[DW_OP_reg12]
    2812              
    2813              
    2814              ;***************************************************************
    2815              ;* FNAME: __fpclassifyl                 FR SIZE:   8           *
    2816              ;*                                                             *
    2817              ;* FUNCTION ENVIRONMENT                                        *
    2818              ;*                                                             *
    2819              ;* FUNCTION PROPERTIES                                         *
    2820              ;*                            4 Parameter,  4 Auto,  0 SOE     *
    2821              ;***************************************************************
    2822              
    2823              ||__fpclassifyl||:
    2824              $C$DW$178       .dwtag  DW_TAG_variable
    2825                      .dwattr $C$DW$178, DW_AT_name("e")
    2826                      .dwattr $C$DW$178, DW_AT_type(*$C$DW$T$18)
    2827                      .dwattr $C$DW$178, DW_AT_location[DW_OP_breg20 -8]
    2828              
    2829              ;* AR5   assigned to $O$C1
    2830              ;* AR4   assigned to e
    2831              $C$DW$179       .dwtag  DW_TAG_variable
    2832                      .dwattr $C$DW$179, DW_AT_name("e")
    2833                      .dwattr $C$DW$179, DW_AT_type(*$C$DW$T$111)
    2834                      .dwattr $C$DW$179, DW_AT_location[DW_OP_reg12]
    2835              
    2836                      .dwcfi  cfa_offset, -2
    2837                      .dwcfi  save_reg_to_mem, 26, 0
    2838 00000000 FE08          ADDB      SP,#8                 ; [CPU_ARAU] 
    2839                      .dwcfi  cfa_offset, -10
    2840 00000001 C4D4          MOVL      XAR6,*+XAR4[2]        ; [CPU_ALU] |431| 
    2841 00000002 06C4          MOVL      ACC,*+XAR4[0]         ; [CPU_ALU] |431| 
    2842 00000003 1E48          MOVL      *-SP[8],ACC           ; [CPU_ALU] |431| 
    2843 00000004 C246          MOVL      *-SP[6],XAR6          ; [CPU_ALU] |431| 
    2844                      .dwpsn  file "C:/ti/ccs1250/ccs/tools/compiler/ti-cgt-c2000_22.6.1.LTS/include/_defs.h",line 432,colu
    2845 00000005 8348          MOVL      XAR5,*-SP[8]          ; [CPU_ALU] |432| 
    2846 00000006 8A46          MOVL      XAR4,*-SP[6]          ; [CPU_ALU] |432| 
    2847                      .dwpsn  file "C:/ti/ccs1250/ccs/tools/compiler/ti-cgt-c2000_22.6.1.LTS/include/_defs.h",line 436,colu
    2848 00000007 28AC          MOV       T,#48                 ; [CPU_ALU] |436| 
         00000008 0030 
    2849 00000009 A0AB          MOVL      P,XAR5                ; [CPU_ALU] |436| 
    2850 0000000a A8A9          MOVL      ACC,XAR4              ; [CPU_ALU] |436| 
    2851 0000000b 565B          LSR64     ACC:P,T               ; [CPU_ALU] |436| 
    2852 0000000c 18AB          AND       PL,#0x7ff0            ; [CPU_ALU] |436| 
         0000000d 7FF0 
    2853 0000000e 88AB          MOVZ      AR6,PL                ; [CPU_ALU] |436| 
TMS320C2000 Assembler PC v22.6.1 Thu Mar 28 17:35:23 2024

Copyright (c) 1996-2018 Texas Instruments Incorporated
llc.asm                                                              PAGE   56

    2854 0000000f FF20          MOV       ACC,#32752            ; [CPU_ALU] |436| 
         00000010 7FF0 
    2855 00000011 0FA6          CMPL      ACC,XAR6              ; [CPU_ALU] |436| 
    2856 00000012 6016          B         ||$C$L12||,NEQ        ; [CPU_ALU] |436| 
    2857                      ; branchcc occurs ; [] |436| 
    2858 00000013 0200          MOVB      ACC,#0                ; [CPU_ALU] |436| 
    2859 00000014 1E44          MOVL      *-SP[4],ACC           ; [CPU_ALU] |436| 
    2860 00000015 2B42          MOV       *-SP[2],#0            ; [CPU_ALU] |436| 
    2861 00000016 2B41          MOV       *-SP[1],#0            ; [CPU_ALU] |436| 
    2862 00000017 A348          MOVL      P,*-SP[8]             ; [CPU_ALU] |436| 
    2863 00000018 0646          MOVL      ACC,*-SP[6]           ; [CPU_ALU] |436| 
    2864 00000019 18AB          AND       PL,#65535             ; [CPU_ALU] |436| 
         0000001a FFFF 
    2865 0000001b 18AA          AND       PH,#65535             ; [CPU_ALU] |436| 
         0000001c FFFF 
    2866 0000001d 18A9          AND       AL,#65535             ; [CPU_ALU] |436| 
         0000001e FFFF 
    2867 0000001f 910F          ANDB      AH,#15                ; [CPU_ALU] |436| 
    2868              $C$DW$180       .dwtag  DW_TAG_TI_branch
    2869                      .dwattr $C$DW$180, DW_AT_low_pc(0x00)
    2870                      .dwattr $C$DW$180, DW_AT_name("__c28xabi_cmpull")
    2871                      .dwattr $C$DW$180, DW_AT_TI_call
    2872              
    2873 00000020 7640!         LCR       #||__c28xabi_cmpull|| ; [CPU_ALU] |436| 
         00000021 0000 
    2874                      ; call occurs [#||__c28xabi_cmpull||] ; [] |436| 
    2875 00000022 5200          CMPB      AL,#0                 ; [CPU_ALU] |436| 
    2876 00000023 6103          B         ||$C$L11||,EQ         ; [CPU_ALU] |436| 
    2877                      ; branchcc occurs ; [] |436| 
    2878 00000024 9A02          MOVB      AL,#2                 ; [CPU_ALU] |436| 
    2879 00000025 6F2D          B         ||$C$L15||,UNC        ; [CPU_ALU] |436| 
    2880                      ; branch occurs ; [] |436| 
    2881 00000026       ||$C$L11||:    
    2882 00000026 9A01          MOVB      AL,#1                 ; [CPU_ALU] |436| 
    2883 00000027 6F2B          B         ||$C$L15||,UNC        ; [CPU_ALU] |436| 
    2884                      ; branch occurs ; [] |436| 
    2885 00000028       ||$C$L12||:    
    2886 00000028 BE00          MOVB      XAR6,#0               ; [CPU_ALU] |436| 
    2887 00000029 A0AB          MOVL      P,XAR5                ; [CPU_ALU] |436| 
    2888 0000002a A8A9          MOVL      ACC,XAR4              ; [CPU_ALU] |436| 
    2889 0000002b 28AC          MOV       T,#52                 ; [CPU_ALU] |436| 
         0000002c 0034 
    2890 0000002d C244          MOVL      *-SP[4],XAR6          ; [CPU_ALU] |436| 
    2891 0000002e 2B42          MOV       *-SP[2],#0            ; [CPU_ALU] |436| 
    2892 0000002f 565B          LSR64     ACC:P,T               ; [CPU_ALU] |436| 
    2893 00000030 2B41          MOV       *-SP[1],#0            ; [CPU_FPU] |436| 
    2894 00000031 9000          ANDB      AL,#0                 ; [CPU_ALU] |436| 
    2895 00000032 9100          ANDB      AH,#0                 ; [CPU_ALU] |436| 
    2896 00000033 18AB          AND       PL,#2047              ; [CPU_ALU] |436| 
         00000034 07FF 
    2897 00000035 18AA          AND       PH,#0                 ; [CPU_ALU] |436| 
         00000036 0000 
    2898              $C$DW$181       .dwtag  DW_TAG_TI_branch
    2899                      .dwattr $C$DW$181, DW_AT_low_pc(0x00)
    2900                      .dwattr $C$DW$181, DW_AT_name("__c28xabi_cmpull")
TMS320C2000 Assembler PC v22.6.1 Thu Mar 28 17:35:23 2024

Copyright (c) 1996-2018 Texas Instruments Incorporated
llc.asm                                                              PAGE   57

    2901                      .dwattr $C$DW$181, DW_AT_TI_call
    2902              
    2903 00000037 7640!         LCR       #||__c28xabi_cmpull|| ; [CPU_ALU] |436| 
         00000038 0000 
    2904                      ; call occurs [#||__c28xabi_cmpull||] ; [] |436| 
    2905 00000039 5200          CMPB      AL,#0                 ; [CPU_ALU] |436| 
    2906 0000003a 6104          B         ||$C$L13||,EQ         ; [CPU_ALU] |436| 
    2907                      ; branchcc occurs ; [] |436| 
    2908 0000003b 28A9          MOV       AL,#-1                ; [CPU_ALU] |436| 
         0000003c FFFF 
    2909 0000003d 6F15          B         ||$C$L15||,UNC        ; [CPU_ALU] |436| 
    2910                      ; branch occurs ; [] |436| 
    2911 0000003e       ||$C$L13||:    
    2912 0000003e C244          MOVL      *-SP[4],XAR6          ; [CPU_ALU] |436| 
    2913 0000003f A8A9          MOVL      ACC,XAR4              ; [CPU_ALU] |436| 
    2914 00000040 A0AB          MOVL      P,XAR5                ; [CPU_ALU] |436| 
    2915 00000041 2B42          MOV       *-SP[2],#0            ; [CPU_ALU] |436| 
    2916 00000042 18A9          AND       AL,#65535             ; [CPU_ALU] |436| 
         00000043 FFFF 
    2917 00000044 910F          ANDB      AH,#15                ; [CPU_ALU] |436| 
    2918 00000045 18AB          AND       PL,#65535             ; [CPU_ALU] |436| 
         00000046 FFFF 
    2919 00000047 18AA          AND       PH,#65535             ; [CPU_ALU] |436| 
         00000048 FFFF 
    2920 00000049 2B41          MOV       *-SP[1],#0            ; [CPU_FPU] |436| 
    2921              $C$DW$182       .dwtag  DW_TAG_TI_branch
    2922                      .dwattr $C$DW$182, DW_AT_low_pc(0x00)
    2923                      .dwattr $C$DW$182, DW_AT_name("__c28xabi_cmpull")
    2924                      .dwattr $C$DW$182, DW_AT_TI_call
    2925              
    2926 0000004a 7640!         LCR       #||__c28xabi_cmpull|| ; [CPU_ALU] |436| 
         0000004b 0000 
    2927                      ; call occurs [#||__c28xabi_cmpull||] ; [] |436| 
    2928 0000004c 5200          CMPB      AL,#0                 ; [CPU_ALU] |436| 
    2929 0000004d 6104          B         ||$C$L14||,EQ         ; [CPU_ALU] |436| 
    2930                      ; branchcc occurs ; [] |436| 
    2931 0000004e 28A9          MOV       AL,#-2                ; [CPU_ALU] |436| 
         0000004f FFFE 
    2932 00000050 6F02          B         ||$C$L15||,UNC        ; [CPU_ALU] |436| 
    2933                      ; branch occurs ; [] |436| 
    2934 00000051       ||$C$L14||:    
    2935 00000051 9A00          MOVB      AL,#0                 ; [CPU_ALU] |436| 
    2936 00000052       ||$C$L15||:    
    2937 00000052 FE88          SUBB      SP,#8                 ; [CPU_ARAU] 
    2938                      .dwcfi  cfa_offset, -2
    2939              $C$DW$183       .dwtag  DW_TAG_TI_branch
    2940                      .dwattr $C$DW$183, DW_AT_low_pc(0x00)
    2941                      .dwattr $C$DW$183, DW_AT_TI_return
    2942              
    2943 00000053 0006          LRETR     ; [CPU_ALU] 
    2944                      ; return occurs ; [] 
    2945                      .dwattr $C$DW$176, DW_AT_TI_end_file("C:/ti/ccs1250/ccs/tools/compiler/ti-cgt-c2000_22.6.1.LTS/includ
    2946                      .dwattr $C$DW$176, DW_AT_TI_end_line(0x1bd)
    2947                      .dwattr $C$DW$176, DW_AT_TI_end_column(0x01)
    2948                      .dwendentry
TMS320C2000 Assembler PC v22.6.1 Thu Mar 28 17:35:23 2024

Copyright (c) 1996-2018 Texas Instruments Incorporated
llc.asm                                                              PAGE   58

    2949                      .dwendtag $C$DW$176
    2950              
    2951 00000000               .sect   ".text:__fpclassifyf"
    2952                      .clink
    2953                      .global ||__fpclassifyf||
    2954              
    2955              $C$DW$184       .dwtag  DW_TAG_subprogram
    2956                      .dwattr $C$DW$184, DW_AT_name("__fpclassifyf")
    2957                      .dwattr $C$DW$184, DW_AT_low_pc(||__fpclassifyf||)
    2958                      .dwattr $C$DW$184, DW_AT_high_pc(0x00)
    2959                      .dwattr $C$DW$184, DW_AT_linkage_name("__fpclassifyf")
    2960                      .dwattr $C$DW$184, DW_AT_external
    2961                      .dwattr $C$DW$184, DW_AT_type(*$C$DW$T$10)
    2962                      .dwattr $C$DW$184, DW_AT_decl_file("C:/ti/ccs1250/ccs/tools/compiler/ti-cgt-c2000_22.6.1.LTS/include/
    2963                      .dwattr $C$DW$184, DW_AT_decl_line(0x18c)
    2964                      .dwattr $C$DW$184, DW_AT_decl_column(0x18)
    2965                      .dwattr $C$DW$184, DW_AT_TI_max_frame_size(-2)
    2966                      .dwpsn  file "C:/ti/ccs1250/ccs/tools/compiler/ti-cgt-c2000_22.6.1.LTS/include/_defs.h",line 397,colu
    2967              
    2968                      .dwfde $C$DW$CIE, ||__fpclassifyf||
    2969              $C$DW$185       .dwtag  DW_TAG_formal_parameter
    2970                      .dwattr $C$DW$185, DW_AT_name("f")
    2971                      .dwattr $C$DW$185, DW_AT_type(*$C$DW$T$16)
    2972                      .dwattr $C$DW$185, DW_AT_location[DW_OP_regx 0x2b]
    2973              
    2974              
    2975              ;***************************************************************
    2976              ;* FNAME: __fpclassifyf                 FR SIZE:   0           *
    2977              ;*                                                             *
    2978              ;* FUNCTION ENVIRONMENT                                        *
    2979              ;*                                                             *
    2980              ;* FUNCTION PROPERTIES                                         *
    2981              ;*                            0 Parameter,  0 Auto,  0 SOE     *
    2982              ;***************************************************************
    2983              
    2984              ||__fpclassifyf||:
    2985              ;* PL    assigned to $O$K1
    2986              ;* R0    assigned to f
    2987              $C$DW$186       .dwtag  DW_TAG_variable
    2988                      .dwattr $C$DW$186, DW_AT_name("f")
    2989                      .dwattr $C$DW$186, DW_AT_type(*$C$DW$T$102)
    2990                      .dwattr $C$DW$186, DW_AT_location[DW_OP_regx 0x2b]
    2991              
    2992                      .dwcfi  cfa_offset, -2
    2993                      .dwcfi  save_reg_to_mem, 26, 0
    2994                      .dwpsn  file "C:/ti/ccs1250/ccs/tools/compiler/ti-cgt-c2000_22.6.1.LTS/include/_defs.h",line 398,colu
    2995 00000000 BFAB          MOV32     P,R0H                 ; [CPU_FPU] |398| 
         00000001 0F12 
    2996                      .dwpsn  file "C:/ti/ccs1250/ccs/tools/compiler/ti-cgt-c2000_22.6.1.LTS/include/_defs.h",line 402,colu
    2997 00000002 CCAA          AND       AL,PH,#0x7f80         ; [CPU_ALU] |402| 
         00000003 7F80 
    2998 00000004 88A9          MOVZ      AR6,AL                ; [CPU_ALU] |402| 
    2999 00000005 FF20          MOV       ACC,#32640            ; [CPU_ALU] |402| 
         00000006 7F80 
    3000 00000007 0FA6          CMPL      ACC,XAR6              ; [CPU_ALU] |402| 
TMS320C2000 Assembler PC v22.6.1 Thu Mar 28 17:35:23 2024

Copyright (c) 1996-2018 Texas Instruments Incorporated
llc.asm                                                              PAGE   59

    3001 00000008 6009          B         ||$C$L17||,NEQ        ; [CPU_ALU] |402| 
    3002                      ; branchcc occurs ; [] |402| 
    3003 00000009 A9A9          MOVL      ACC,P                 ; [CPU_ALU] |402| 
    3004 0000000a 917F          ANDB      AH,#127               ; [CPU_ALU] |402| 
    3005 0000000b FF58          TEST      ACC                   ; [CPU_ALU] |402| 
    3006 0000000c 6103          B         ||$C$L16||,EQ         ; [CPU_ALU] |402| 
    3007                      ; branchcc occurs ; [] |402| 
    3008                      .dwcfi  remember_state
    3009 0000000d 9A02          MOVB      AL,#2                 ; [CPU_ALU] |402| 
    3010              $C$DW$187       .dwtag  DW_TAG_TI_branch
    3011                      .dwattr $C$DW$187, DW_AT_low_pc(0x00)
    3012                      .dwattr $C$DW$187, DW_AT_TI_return
    3013              
    3014 0000000e 0006          LRETR     ; [CPU_ALU] 
    3015                      ; return occurs ; [] 
    3016                      .dwcfi  restore_state
    3017 0000000f       ||$C$L16||:    
    3018                      .dwcfi  remember_state
    3019 0000000f 9A01          MOVB      AL,#1                 ; [CPU_ALU] |402| 
    3020              $C$DW$188       .dwtag  DW_TAG_TI_branch
    3021                      .dwattr $C$DW$188, DW_AT_low_pc(0x00)
    3022                      .dwattr $C$DW$188, DW_AT_TI_return
    3023              
    3024 00000010 0006          LRETR     ; [CPU_ALU] 
    3025                      ; return occurs ; [] 
    3026                      .dwcfi  restore_state
    3027 00000011       ||$C$L17||:    
    3028 00000011 A9A9          MOVL      ACC,P                 ; [CPU_ALU] |402| 
    3029 00000012 28AC          MOV       T,#23                 ; [CPU_ALU] |402| 
         00000013 0017 
    3030 00000014 5622          LSRL      ACC,T                 ; [CPU_ALU] |402| 
    3031 00000015 90FF          ANDB      AL,#0xff              ; [CPU_ALU] |402| 
    3032 00000016 6104          B         ||$C$L18||,EQ         ; [CPU_ALU] |402| 
    3033                      ; branchcc occurs ; [] |402| 
    3034                      .dwcfi  remember_state
    3035 00000017 28A9          MOV       AL,#-1                ; [CPU_ALU] |402| 
         00000018 FFFF 
    3036              $C$DW$189       .dwtag  DW_TAG_TI_branch
    3037                      .dwattr $C$DW$189, DW_AT_low_pc(0x00)
    3038                      .dwattr $C$DW$189, DW_AT_TI_return
    3039              
    3040 00000019 0006          LRETR     ; [CPU_ALU] 
    3041                      ; return occurs ; [] 
    3042                      .dwcfi  restore_state
    3043 0000001a       ||$C$L18||:    
    3044 0000001a A9A9          MOVL      ACC,P                 ; [CPU_ALU] |402| 
    3045 0000001b 917F          ANDB      AH,#127               ; [CPU_ALU] |402| 
    3046 0000001c FF58          TEST      ACC                   ; [CPU_ALU] |402| 
    3047 0000001d 6104          B         ||$C$L19||,EQ         ; [CPU_ALU] |402| 
    3048                      ; branchcc occurs ; [] |402| 
    3049                      .dwcfi  remember_state
    3050 0000001e 28A9          MOV       AL,#-2                ; [CPU_ALU] |402| 
         0000001f FFFE 
    3051              $C$DW$190       .dwtag  DW_TAG_TI_branch
    3052                      .dwattr $C$DW$190, DW_AT_low_pc(0x00)
TMS320C2000 Assembler PC v22.6.1 Thu Mar 28 17:35:23 2024

Copyright (c) 1996-2018 Texas Instruments Incorporated
llc.asm                                                              PAGE   60

    3053                      .dwattr $C$DW$190, DW_AT_TI_return
    3054              
    3055 00000020 0006          LRETR     ; [CPU_ALU] 
    3056                      ; return occurs ; [] 
    3057                      .dwcfi  restore_state
    3058 00000021       ||$C$L19||:    
    3059 00000021 9A00          MOVB      AL,#0                 ; [CPU_ALU] |402| 
    3060              $C$DW$191       .dwtag  DW_TAG_TI_branch
    3061                      .dwattr $C$DW$191, DW_AT_low_pc(0x00)
    3062                      .dwattr $C$DW$191, DW_AT_TI_return
    3063              
    3064 00000022 0006          LRETR     ; [CPU_ALU] 
    3065                      ; return occurs ; [] 
    3066                      .dwattr $C$DW$184, DW_AT_TI_end_file("C:/ti/ccs1250/ccs/tools/compiler/ti-cgt-c2000_22.6.1.LTS/includ
    3067                      .dwattr $C$DW$184, DW_AT_TI_end_line(0x19b)
    3068                      .dwattr $C$DW$184, DW_AT_TI_end_column(0x01)
    3069                      .dwendentry
    3070                      .dwendtag $C$DW$184
    3071              
    3072 00000000               .sect   ".text:__fpclassify"
    3073                      .clink
    3074                      .global ||__fpclassify||
    3075              
    3076              $C$DW$192       .dwtag  DW_TAG_subprogram
    3077                      .dwattr $C$DW$192, DW_AT_name("__fpclassify")
    3078                      .dwattr $C$DW$192, DW_AT_low_pc(||__fpclassify||)
    3079                      .dwattr $C$DW$192, DW_AT_high_pc(0x00)
    3080                      .dwattr $C$DW$192, DW_AT_linkage_name("__fpclassify")
    3081                      .dwattr $C$DW$192, DW_AT_external
    3082                      .dwattr $C$DW$192, DW_AT_type(*$C$DW$T$10)
    3083                      .dwattr $C$DW$192, DW_AT_decl_file("C:/ti/ccs1250/ccs/tools/compiler/ti-cgt-c2000_22.6.1.LTS/include/
    3084                      .dwattr $C$DW$192, DW_AT_decl_line(0x19d)
    3085                      .dwattr $C$DW$192, DW_AT_decl_column(0x18)
    3086                      .dwattr $C$DW$192, DW_AT_TI_max_frame_size(-10)
    3087                      .dwpsn  file "C:/ti/ccs1250/ccs/tools/compiler/ti-cgt-c2000_22.6.1.LTS/include/_defs.h",line 414,colu
    3088              
    3089                      .dwfde $C$DW$CIE, ||__fpclassify||
    3090              $C$DW$193       .dwtag  DW_TAG_formal_parameter
    3091                      .dwattr $C$DW$193, DW_AT_name("d")
    3092                      .dwattr $C$DW$193, DW_AT_type(*$C$DW$T$107)
    3093                      .dwattr $C$DW$193, DW_AT_location[DW_OP_reg12]
    3094              
    3095              
    3096              ;***************************************************************
    3097              ;* FNAME: __fpclassify                  FR SIZE:   8           *
    3098              ;*                                                             *
    3099              ;* FUNCTION ENVIRONMENT                                        *
    3100              ;*                                                             *
    3101              ;* FUNCTION PROPERTIES                                         *
    3102              ;*                            4 Parameter,  4 Auto,  0 SOE     *
    3103              ;***************************************************************
    3104              
    3105              ||__fpclassify||:
    3106              $C$DW$194       .dwtag  DW_TAG_variable
    3107                      .dwattr $C$DW$194, DW_AT_name("d")
TMS320C2000 Assembler PC v22.6.1 Thu Mar 28 17:35:23 2024

Copyright (c) 1996-2018 Texas Instruments Incorporated
llc.asm                                                              PAGE   61

    3108                      .dwattr $C$DW$194, DW_AT_type(*$C$DW$T$17)
    3109                      .dwattr $C$DW$194, DW_AT_location[DW_OP_breg20 -8]
    3110              
    3111              ;* AR5   assigned to $O$C1
    3112              ;* AR4   assigned to d
    3113              $C$DW$195       .dwtag  DW_TAG_variable
    3114                      .dwattr $C$DW$195, DW_AT_name("d")
    3115                      .dwattr $C$DW$195, DW_AT_type(*$C$DW$T$108)
    3116                      .dwattr $C$DW$195, DW_AT_location[DW_OP_reg12]
    3117              
    3118                      .dwcfi  cfa_offset, -2
    3119                      .dwcfi  save_reg_to_mem, 26, 0
    3120 00000000 FE08          ADDB      SP,#8                 ; [CPU_ARAU] 
    3121                      .dwcfi  cfa_offset, -10
    3122 00000001 C4D4          MOVL      XAR6,*+XAR4[2]        ; [CPU_ALU] |414| 
    3123 00000002 06C4          MOVL      ACC,*+XAR4[0]         ; [CPU_ALU] |414| 
    3124 00000003 1E48          MOVL      *-SP[8],ACC           ; [CPU_ALU] |414| 
    3125 00000004 C246          MOVL      *-SP[6],XAR6          ; [CPU_ALU] |414| 
    3126                      .dwpsn  file "C:/ti/ccs1250/ccs/tools/compiler/ti-cgt-c2000_22.6.1.LTS/include/_defs.h",line 415,colu
    3127 00000005 8348          MOVL      XAR5,*-SP[8]          ; [CPU_ALU] |415| 
    3128 00000006 8A46          MOVL      XAR4,*-SP[6]          ; [CPU_ALU] |415| 
    3129                      .dwpsn  file "C:/ti/ccs1250/ccs/tools/compiler/ti-cgt-c2000_22.6.1.LTS/include/_defs.h",line 419,colu
    3130 00000007 28AC          MOV       T,#48                 ; [CPU_ALU] |419| 
         00000008 0030 
    3131 00000009 A0AB          MOVL      P,XAR5                ; [CPU_ALU] |419| 
    3132 0000000a A8A9          MOVL      ACC,XAR4              ; [CPU_ALU] |419| 
    3133 0000000b 565B          LSR64     ACC:P,T               ; [CPU_ALU] |419| 
    3134 0000000c 18AB          AND       PL,#0x7ff0            ; [CPU_ALU] |419| 
         0000000d 7FF0 
    3135 0000000e 88AB          MOVZ      AR6,PL                ; [CPU_ALU] |419| 
    3136 0000000f FF20          MOV       ACC,#32752            ; [CPU_ALU] |419| 
         00000010 7FF0 
    3137 00000011 0FA6          CMPL      ACC,XAR6              ; [CPU_ALU] |419| 
    3138 00000012 6016          B         ||$C$L21||,NEQ        ; [CPU_ALU] |419| 
    3139                      ; branchcc occurs ; [] |419| 
    3140 00000013 0200          MOVB      ACC,#0                ; [CPU_ALU] |419| 
    3141 00000014 1E44          MOVL      *-SP[4],ACC           ; [CPU_ALU] |419| 
    3142 00000015 2B42          MOV       *-SP[2],#0            ; [CPU_ALU] |419| 
    3143 00000016 2B41          MOV       *-SP[1],#0            ; [CPU_ALU] |419| 
    3144 00000017 A348          MOVL      P,*-SP[8]             ; [CPU_ALU] |419| 
    3145 00000018 0646          MOVL      ACC,*-SP[6]           ; [CPU_ALU] |419| 
    3146 00000019 18AB          AND       PL,#65535             ; [CPU_ALU] |419| 
         0000001a FFFF 
    3147 0000001b 18AA          AND       PH,#65535             ; [CPU_ALU] |419| 
         0000001c FFFF 
    3148 0000001d 18A9          AND       AL,#65535             ; [CPU_ALU] |419| 
         0000001e FFFF 
    3149 0000001f 910F          ANDB      AH,#15                ; [CPU_ALU] |419| 
    3150              $C$DW$196       .dwtag  DW_TAG_TI_branch
    3151                      .dwattr $C$DW$196, DW_AT_low_pc(0x00)
    3152                      .dwattr $C$DW$196, DW_AT_name("__c28xabi_cmpull")
    3153                      .dwattr $C$DW$196, DW_AT_TI_call
    3154              
    3155 00000020 7640!         LCR       #||__c28xabi_cmpull|| ; [CPU_ALU] |419| 
         00000021 0000 
TMS320C2000 Assembler PC v22.6.1 Thu Mar 28 17:35:23 2024

Copyright (c) 1996-2018 Texas Instruments Incorporated
llc.asm                                                              PAGE   62

    3156                      ; call occurs [#||__c28xabi_cmpull||] ; [] |419| 
    3157 00000022 5200          CMPB      AL,#0                 ; [CPU_ALU] |419| 
    3158 00000023 6103          B         ||$C$L20||,EQ         ; [CPU_ALU] |419| 
    3159                      ; branchcc occurs ; [] |419| 
    3160 00000024 9A02          MOVB      AL,#2                 ; [CPU_ALU] |419| 
    3161 00000025 6F2D          B         ||$C$L24||,UNC        ; [CPU_ALU] |419| 
    3162                      ; branch occurs ; [] |419| 
    3163 00000026       ||$C$L20||:    
    3164 00000026 9A01          MOVB      AL,#1                 ; [CPU_ALU] |419| 
    3165 00000027 6F2B          B         ||$C$L24||,UNC        ; [CPU_ALU] |419| 
    3166                      ; branch occurs ; [] |419| 
    3167 00000028       ||$C$L21||:    
    3168 00000028 BE00          MOVB      XAR6,#0               ; [CPU_ALU] |419| 
    3169 00000029 A0AB          MOVL      P,XAR5                ; [CPU_ALU] |419| 
    3170 0000002a A8A9          MOVL      ACC,XAR4              ; [CPU_ALU] |419| 
    3171 0000002b 28AC          MOV       T,#52                 ; [CPU_ALU] |419| 
         0000002c 0034 
    3172 0000002d C244          MOVL      *-SP[4],XAR6          ; [CPU_ALU] |419| 
    3173 0000002e 2B42          MOV       *-SP[2],#0            ; [CPU_ALU] |419| 
    3174 0000002f 565B          LSR64     ACC:P,T               ; [CPU_ALU] |419| 
    3175 00000030 2B41          MOV       *-SP[1],#0            ; [CPU_FPU] |419| 
    3176 00000031 9000          ANDB      AL,#0                 ; [CPU_ALU] |419| 
    3177 00000032 9100          ANDB      AH,#0                 ; [CPU_ALU] |419| 
    3178 00000033 18AB          AND       PL,#2047              ; [CPU_ALU] |419| 
         00000034 07FF 
    3179 00000035 18AA          AND       PH,#0                 ; [CPU_ALU] |419| 
         00000036 0000 
    3180              $C$DW$197       .dwtag  DW_TAG_TI_branch
    3181                      .dwattr $C$DW$197, DW_AT_low_pc(0x00)
    3182                      .dwattr $C$DW$197, DW_AT_name("__c28xabi_cmpull")
    3183                      .dwattr $C$DW$197, DW_AT_TI_call
    3184              
    3185 00000037 7640!         LCR       #||__c28xabi_cmpull|| ; [CPU_ALU] |419| 
         00000038 0000 
    3186                      ; call occurs [#||__c28xabi_cmpull||] ; [] |419| 
    3187 00000039 5200          CMPB      AL,#0                 ; [CPU_ALU] |419| 
    3188 0000003a 6104          B         ||$C$L22||,EQ         ; [CPU_ALU] |419| 
    3189                      ; branchcc occurs ; [] |419| 
    3190 0000003b 28A9          MOV       AL,#-1                ; [CPU_ALU] |419| 
         0000003c FFFF 
    3191 0000003d 6F15          B         ||$C$L24||,UNC        ; [CPU_ALU] |419| 
    3192                      ; branch occurs ; [] |419| 
    3193 0000003e       ||$C$L22||:    
    3194 0000003e C244          MOVL      *-SP[4],XAR6          ; [CPU_ALU] |419| 
    3195 0000003f A8A9          MOVL      ACC,XAR4              ; [CPU_ALU] |419| 
    3196 00000040 A0AB          MOVL      P,XAR5                ; [CPU_ALU] |419| 
    3197 00000041 2B42          MOV       *-SP[2],#0            ; [CPU_ALU] |419| 
    3198 00000042 18A9          AND       AL,#65535             ; [CPU_ALU] |419| 
         00000043 FFFF 
    3199 00000044 910F          ANDB      AH,#15                ; [CPU_ALU] |419| 
    3200 00000045 18AB          AND       PL,#65535             ; [CPU_ALU] |419| 
         00000046 FFFF 
    3201 00000047 18AA          AND       PH,#65535             ; [CPU_ALU] |419| 
         00000048 FFFF 
    3202 00000049 2B41          MOV       *-SP[1],#0            ; [CPU_FPU] |419| 
TMS320C2000 Assembler PC v22.6.1 Thu Mar 28 17:35:23 2024

Copyright (c) 1996-2018 Texas Instruments Incorporated
llc.asm                                                              PAGE   63

    3203              $C$DW$198       .dwtag  DW_TAG_TI_branch
    3204                      .dwattr $C$DW$198, DW_AT_low_pc(0x00)
    3205                      .dwattr $C$DW$198, DW_AT_name("__c28xabi_cmpull")
    3206                      .dwattr $C$DW$198, DW_AT_TI_call
    3207              
    3208 0000004a 7640!         LCR       #||__c28xabi_cmpull|| ; [CPU_ALU] |419| 
         0000004b 0000 
    3209                      ; call occurs [#||__c28xabi_cmpull||] ; [] |419| 
    3210 0000004c 5200          CMPB      AL,#0                 ; [CPU_ALU] |419| 
    3211 0000004d 6104          B         ||$C$L23||,EQ         ; [CPU_ALU] |419| 
    3212                      ; branchcc occurs ; [] |419| 
    3213 0000004e 28A9          MOV       AL,#-2                ; [CPU_ALU] |419| 
         0000004f FFFE 
    3214 00000050 6F02          B         ||$C$L24||,UNC        ; [CPU_ALU] |419| 
    3215                      ; branch occurs ; [] |419| 
    3216 00000051       ||$C$L23||:    
    3217 00000051 9A00          MOVB      AL,#0                 ; [CPU_ALU] |419| 
    3218 00000052       ||$C$L24||:    
    3219 00000052 FE88          SUBB      SP,#8                 ; [CPU_ARAU] 
    3220                      .dwcfi  cfa_offset, -2
    3221              $C$DW$199       .dwtag  DW_TAG_TI_branch
    3222                      .dwattr $C$DW$199, DW_AT_low_pc(0x00)
    3223                      .dwattr $C$DW$199, DW_AT_TI_return
    3224              
    3225 00000053 0006          LRETR     ; [CPU_ALU] 
    3226                      ; return occurs ; [] 
    3227                      .dwattr $C$DW$192, DW_AT_TI_end_file("C:/ti/ccs1250/ccs/tools/compiler/ti-cgt-c2000_22.6.1.LTS/includ
    3228                      .dwattr $C$DW$192, DW_AT_TI_end_line(0x1ac)
    3229                      .dwattr $C$DW$192, DW_AT_TI_end_column(0x01)
    3230                      .dwendentry
    3231                      .dwendtag $C$DW$192
    3232              
    3233 00000000               .sect   ".text:__fast_lldiv"
    3234                      .clink
    3235                      .global ||__fast_lldiv||
    3236              
    3237              $C$DW$200       .dwtag  DW_TAG_subprogram
    3238                      .dwattr $C$DW$200, DW_AT_name("__fast_lldiv")
    3239                      .dwattr $C$DW$200, DW_AT_low_pc(||__fast_lldiv||)
    3240                      .dwattr $C$DW$200, DW_AT_high_pc(0x00)
    3241                      .dwattr $C$DW$200, DW_AT_linkage_name("__fast_lldiv")
    3242                      .dwattr $C$DW$200, DW_AT_external
    3243                      .dwattr $C$DW$200, DW_AT_type(*$C$DW$T$57)
    3244                      .dwattr $C$DW$200, DW_AT_decl_file("C:/ti/ccs1250/ccs/tools/compiler/ti-cgt-c2000_22.6.1.LTS/include/
    3245                      .dwattr $C$DW$200, DW_AT_decl_line(0x1ab)
    3246                      .dwattr $C$DW$200, DW_AT_decl_column(0x12)
    3247                      .dwattr $C$DW$200, DW_AT_TI_max_frame_size(-14)
    3248                      .dwpsn  file "C:/ti/ccs1250/ccs/tools/compiler/ti-cgt-c2000_22.6.1.LTS/include/stdlib.h",line 428,col
    3249              
    3250                      .dwfde $C$DW$CIE, ||__fast_lldiv||
    3251              $C$DW$201       .dwtag  DW_TAG_formal_parameter
    3252                      .dwattr $C$DW$201, DW_AT_name("_numer")
    3253                      .dwattr $C$DW$201, DW_AT_type(*$C$DW$T$14)
    3254                      .dwattr $C$DW$201, DW_AT_location[DW_OP_reg2]
    3255              
TMS320C2000 Assembler PC v22.6.1 Thu Mar 28 17:35:23 2024

Copyright (c) 1996-2018 Texas Instruments Incorporated
llc.asm                                                              PAGE   64

    3256              $C$DW$202       .dwtag  DW_TAG_formal_parameter
    3257                      .dwattr $C$DW$202, DW_AT_name("_denom")
    3258                      .dwattr $C$DW$202, DW_AT_type(*$C$DW$T$14)
    3259                      .dwattr $C$DW$202, DW_AT_location[DW_OP_breg20 -18]
    3260              
    3261              
    3262              ;***************************************************************
    3263              ;* FNAME: __fast_lldiv                  FR SIZE:  12           *
    3264              ;*                                                             *
    3265              ;* FUNCTION ENVIRONMENT                                        *
    3266              ;*                                                             *
    3267              ;* FUNCTION PROPERTIES                                         *
    3268              ;*                            0 Parameter,  8 Auto,  4 SOE     *
    3269              ;***************************************************************
    3270              
    3271 00000000       ||__fast_lldiv||:
    3272                      .dwcfi  cfa_offset, -2
    3273                      .dwcfi  save_reg_to_mem, 26, 0
    3274 00000000 E203          MOV32     *SP++,R4H             ; [CPU_FPU] 
         00000001 04BD 
    3275                      .dwcfi  save_reg_to_mem, 59, 2
    3276                      .dwcfi  cfa_offset, -4
    3277 00000002 E203          MOV32     *SP++,R5H             ; [CPU_FPU] 
         00000003 05BD 
    3278                      .dwcfi  save_reg_to_mem, 63, 4
    3279                      .dwcfi  cfa_offset, -6
    3280 00000004 FE08          ADDB      SP,#8                 ; [CPU_ARAU] 
    3281                      .dwcfi  cfa_offset, -14
    3282 00000005 1EA7          MOVL      XAR7,ACC              ; [CPU_ALU] |428| 
    3283 00000006 5CAD          MOVZ      AR4,SP                ; [CPU_ALU] |428| 
    3284 00000007 06A6          MOVL      ACC,XAR6              ; [CPU_ALU] |428| 
    3285                      .dwpsn  file "C:/ti/ccs1250/ccs/tools/compiler/ti-cgt-c2000_22.6.1.LTS/include/stdlib.h",line 429,col
    3286 00000008 C4A7          MOVL      XAR6,XAR7             ; [CPU_ALU] |429| 
    3287                      .dwpsn  file "C:/ti/ccs1250/ccs/tools/compiler/ti-cgt-c2000_22.6.1.LTS/include/stdlib.h",line 428,col
    3288 00000009 DC92          SUBB      XAR4,#18              ; [CPU_ARAU] |428| 
    3289                      .dwpsn  file "C:/ti/ccs1250/ccs/tools/compiler/ti-cgt-c2000_22.6.1.LTS/include/stdlib.h",line 429,col
    3290 0000000a E2AF          MOV32     R3H,*+XAR4[2]         ; [CPU_FPU] |429| 
         0000000b 03D4 
    3291 0000000c BDA6          MOV32     R1H,XAR6              ; [CPU_FPU] |429| 
         0000000d 0F16 
    3292 0000000e BDAB          MOV32     R0H,P                 ; [CPU_FPU] |429| 
         0000000f 0F12 
    3293 00000010 E2AF          MOV32     R5H,*+XAR4[0]         ; [CPU_FPU] |429| 
         00000011 05C4 
    3294 00000012 5CAD          MOVZ      AR4,SP                ; [CPU_ALU] |429| 
    3295 00000013 DC88          SUBB      XAR4,#8               ; [CPU_ARAU] |429| 
    3296 00000014 80A4          MOVZ      AR7,AR4               ; [CPU_ALU] |429| 
    3297 00000015 E5B8          ABSI64DIV64 R2H:R4H,R1H:R0H,R3H:R5H ; [CPU_FPU] |429| 
    3298 00000016 E565          SUBC2UI64 R2H:R4H,R1H:R0H,R3H:R5H ; [CPU_FPU] |429| 
    3299 00000017 E565          SUBC2UI64 R2H:R4H,R1H:R0H,R3H:R5H ; [CPU_FPU] |429| 
    3300 00000018 E565          SUBC2UI64 R2H:R4H,R1H:R0H,R3H:R5H ; [CPU_FPU] |429| 
    3301 00000019 E565          SUBC2UI64 R2H:R4H,R1H:R0H,R3H:R5H ; [CPU_FPU] |429| 
    3302 0000001a E565          SUBC2UI64 R2H:R4H,R1H:R0H,R3H:R5H ; [CPU_FPU] |429| 
    3303 0000001b E565          SUBC2UI64 R2H:R4H,R1H:R0H,R3H:R5H ; [CPU_FPU] |429| 
    3304 0000001c E565          SUBC2UI64 R2H:R4H,R1H:R0H,R3H:R5H ; [CPU_FPU] |429| 
TMS320C2000 Assembler PC v22.6.1 Thu Mar 28 17:35:23 2024

Copyright (c) 1996-2018 Texas Instruments Incorporated
llc.asm                                                              PAGE   65

    3305 0000001d E565          SUBC2UI64 R2H:R4H,R1H:R0H,R3H:R5H ; [CPU_FPU] |429| 
    3306 0000001e E565          SUBC2UI64 R2H:R4H,R1H:R0H,R3H:R5H ; [CPU_FPU] |429| 
    3307 0000001f E565          SUBC2UI64 R2H:R4H,R1H:R0H,R3H:R5H ; [CPU_FPU] |429| 
    3308 00000020 E565          SUBC2UI64 R2H:R4H,R1H:R0H,R3H:R5H ; [CPU_FPU] |429| 
    3309 00000021 E565          SUBC2UI64 R2H:R4H,R1H:R0H,R3H:R5H ; [CPU_FPU] |429| 
    3310 00000022 E565          SUBC2UI64 R2H:R4H,R1H:R0H,R3H:R5H ; [CPU_FPU] |429| 
    3311 00000023 E565          SUBC2UI64 R2H:R4H,R1H:R0H,R3H:R5H ; [CPU_FPU] |429| 
    3312 00000024 E565          SUBC2UI64 R2H:R4H,R1H:R0H,R3H:R5H ; [CPU_FPU] |429| 
    3313 00000025 E565          SUBC2UI64 R2H:R4H,R1H:R0H,R3H:R5H ; [CPU_FPU] |429| 
    3314 00000026 E565          SUBC2UI64 R2H:R4H,R1H:R0H,R3H:R5H ; [CPU_FPU] |429| 
    3315 00000027 E565          SUBC2UI64 R2H:R4H,R1H:R0H,R3H:R5H ; [CPU_FPU] |429| 
    3316 00000028 E565          SUBC2UI64 R2H:R4H,R1H:R0H,R3H:R5H ; [CPU_FPU] |429| 
    3317 00000029 E565          SUBC2UI64 R2H:R4H,R1H:R0H,R3H:R5H ; [CPU_FPU] |429| 
    3318 0000002a E565          SUBC2UI64 R2H:R4H,R1H:R0H,R3H:R5H ; [CPU_FPU] |429| 
    3319 0000002b E565          SUBC2UI64 R2H:R4H,R1H:R0H,R3H:R5H ; [CPU_FPU] |429| 
    3320 0000002c E565          SUBC2UI64 R2H:R4H,R1H:R0H,R3H:R5H ; [CPU_FPU] |429| 
    3321 0000002d E565          SUBC2UI64 R2H:R4H,R1H:R0H,R3H:R5H ; [CPU_FPU] |429| 
    3322 0000002e E565          SUBC2UI64 R2H:R4H,R1H:R0H,R3H:R5H ; [CPU_FPU] |429| 
    3323 0000002f E565          SUBC2UI64 R2H:R4H,R1H:R0H,R3H:R5H ; [CPU_FPU] |429| 
    3324 00000030 E565          SUBC2UI64 R2H:R4H,R1H:R0H,R3H:R5H ; [CPU_FPU] |429| 
    3325 00000031 E565          SUBC2UI64 R2H:R4H,R1H:R0H,R3H:R5H ; [CPU_FPU] |429| 
    3326 00000032 E565          SUBC2UI64 R2H:R4H,R1H:R0H,R3H:R5H ; [CPU_FPU] |429| 
    3327 00000033 E565          SUBC2UI64 R2H:R4H,R1H:R0H,R3H:R5H ; [CPU_FPU] |429| 
    3328 00000034 E565          SUBC2UI64 R2H:R4H,R1H:R0H,R3H:R5H ; [CPU_FPU] |429| 
    3329 00000035 E565          SUBC2UI64 R2H:R4H,R1H:R0H,R3H:R5H ; [CPU_FPU] |429| 
    3330 00000036 E5BA          NEGI64DIV64 R1H:R0H,R2H:R4H     ; [CPU_FPU] |429| 
    3331 00000037 E203          MOV32     *-SP[6],R1H           ; [CPU_FPU] |429| 
         00000038 0146 
    3332 00000039 E203          MOV32     *-SP[8],R0H           ; [CPU_FPU] |429| 
         0000003a 0048 
    3333 0000003b E203          MOV32     *-SP[2],R2H           ; [CPU_FPU] |429| 
         0000003c 0242 
    3334 0000003d E203          MOV32     *-SP[4],R4H           ; [CPU_FPU] |429| 
         0000003e 0444 
    3335 0000003f 6104          B         ||$C$L25||,EQ         ; [CPU_ALU] |429| 
    3336                      ; branchcc occurs ; [] |429| 
    3337 00000040 8AA9          MOVL      XAR4,ACC              ; [CPU_ALU] |429| 
    3338 00000041 F607          RPT       #7
    3339 00000042 2484  ||     PREAD     *XAR4++,*XAR7         ; [CPU_ALU] |429| 
    3340 00000043       ||$C$L25||:    
    3341 00000043 FE88          SUBB      SP,#8                 ; [CPU_ARAU] 
    3342                      .dwcfi  cfa_offset, -6
    3343 00000044 E2AF          MOV32     R5H,*--SP             ; [CPU_FPU] 
         00000045 05BE 
    3344                      .dwcfi  cfa_offset, -4
    3345                      .dwcfi  restore_reg, 63
    3346 00000046 E2AF          MOV32     R4H,*--SP             ; [CPU_FPU] 
         00000047 04BE 
    3347                      .dwcfi  cfa_offset, -2
    3348                      .dwcfi  restore_reg, 59
    3349              $C$DW$203       .dwtag  DW_TAG_TI_branch
    3350                      .dwattr $C$DW$203, DW_AT_low_pc(0x00)
