TMS320C2000 Assembler PC v22.6.1 Thu Mar 28 17:35:23 2024

Copyright (c) 1996-2018 Texas Instruments Incorporated
llc.asm                                                              PAGE    1

       1              ;***************************************************************
       2              ;* TMS320C2000 G3 C/C++ Codegen                               PC v22.6.1.LTS *
       3              ;* Date/Time created: Thu Mar 28 17:35:22 2024                 *
       4              ;***************************************************************
       5                      .compiler_opts --abi=eabi --cla_support=cla2 --diag_wrap=off --float_support=fpu32 --hll_source=on --
       6                      .asg    XAR2, FP
       7              
       8              $C$DW$CU        .dwtag  DW_TAG_compile_unit
       9                      .dwattr $C$DW$CU, DW_AT_name("../llc.c")
      10                      .dwattr $C$DW$CU, DW_AT_producer("TI TMS320C2000 G3 C/C++ Codegen PC v22.6.1.LTS Copyright (c) 1996-2
      11                      .dwattr $C$DW$CU, DW_AT_TI_version(0x01)
      12                      .dwattr $C$DW$CU, DW_AT_comp_dir("C:\Users\Joel9\Downloads\llc_capstone_F28003\llc_capstone_F28003x\R
      13              
      14              $C$DW$1 .dwtag  DW_TAG_subprogram
      15                      .dwattr $C$DW$1, DW_AT_name("SysCtl_delay")
      16                      .dwattr $C$DW$1, DW_AT_linkage_name("SysCtl_delay")
      17                      .dwattr $C$DW$1, DW_AT_declaration
      18                      .dwattr $C$DW$1, DW_AT_external
      19                      .dwattr $C$DW$1, DW_AT_decl_file("C:\Users\Joel9\Downloads\llc_capstone_F28003\llc_capstone_F28003x\d
      20                      .dwattr $C$DW$1, DW_AT_decl_line(0xe33)
      21                      .dwattr $C$DW$1, DW_AT_decl_column(0x01)
      22              $C$DW$2 .dwtag  DW_TAG_formal_parameter
      23                      .dwattr $C$DW$2, DW_AT_type(*$C$DW$T$33)
      24              
      25                      .dwendtag $C$DW$1
      26              
      27              
      28              $C$DW$3 .dwtag  DW_TAG_subprogram
      29                      .dwattr $C$DW$3, DW_AT_name("LLC_HAL_clearTripZoneFlags")
      30                      .dwattr $C$DW$3, DW_AT_linkage_name("LLC_HAL_clearTripZoneFlags")
      31                      .dwattr $C$DW$3, DW_AT_declaration
      32                      .dwattr $C$DW$3, DW_AT_external
      33                      .dwattr $C$DW$3, DW_AT_decl_file("..\llc_hal.h")
      34                      .dwattr $C$DW$3, DW_AT_decl_line(0x57)
      35                      .dwattr $C$DW$3, DW_AT_decl_column(0x06)
      36                      .dwendtag $C$DW$3
      37              
      38              
      39              $C$DW$4 .dwtag  DW_TAG_subprogram
      40                      .dwattr $C$DW$4, DW_AT_name("FSI_executeTxFlushSequence")
      41                      .dwattr $C$DW$4, DW_AT_linkage_name("FSI_executeTxFlushSequence")
      42                      .dwattr $C$DW$4, DW_AT_declaration
      43                      .dwattr $C$DW$4, DW_AT_external
      44                      .dwattr $C$DW$4, DW_AT_decl_file("C:/Users/Joel9/Downloads/llc_capstone_F28003/llc_capstone_F28003x/d
      45                      .dwattr $C$DW$4, DW_AT_decl_line(0xcba)
      46                      .dwattr $C$DW$4, DW_AT_decl_column(0x01)
      47              $C$DW$5 .dwtag  DW_TAG_formal_parameter
      48                      .dwattr $C$DW$5, DW_AT_type(*$C$DW$T$33)
      49              
      50              $C$DW$6 .dwtag  DW_TAG_formal_parameter
      51                      .dwattr $C$DW$6, DW_AT_type(*$C$DW$T$72)
      52              
      53                      .dwendtag $C$DW$4
      54              
      55                      .global ||LLC_PWMDbRedPri||
TMS320C2000 Assembler PC v22.6.1 Thu Mar 28 17:35:23 2024

Copyright (c) 1996-2018 Texas Instruments Incorporated
llc.asm                                                              PAGE    2

      56 00000000               .sect   "controlVariables:init", RW
      57                      .align  1
      58                      .elfsym ||LLC_PWMDbRedPri||,SYM_SIZE(1),SYM_BLOCKED(1)
      59 00000000       ||LLC_PWMDbRedPri||:
      60 00000000 0032          .bits           0x32,16
      61                                      ; LLC_PWMDbRedPri @ 0
      62              
      63              $C$DW$7 .dwtag  DW_TAG_variable
      64                      .dwattr $C$DW$7, DW_AT_name("LLC_PWMDbRedPri")
      65                      .dwattr $C$DW$7, DW_AT_linkage_name("LLC_PWMDbRedPri")
      66                      .dwattr $C$DW$7, DW_AT_location[DW_OP_addr ||LLC_PWMDbRedPri||]
      67                      .dwattr $C$DW$7, DW_AT_type(*$C$DW$T$72)
      68                      .dwattr $C$DW$7, DW_AT_external
      69                      .dwattr $C$DW$7, DW_AT_decl_file("../llc.c")
      70                      .dwattr $C$DW$7, DW_AT_decl_line(0x39)
      71                      .dwattr $C$DW$7, DW_AT_decl_column(0x0b)
      72              
      73                      .global ||LLC_PWMDbFedPri||
      74 00000001               .sect   "controlVariables:init", RW
      75                      .align  1
      76                      .elfsym ||LLC_PWMDbFedPri||,SYM_SIZE(1),SYM_BLOCKED(1)
      77 00000001       ||LLC_PWMDbFedPri||:
      78 00000001 0032          .bits           0x32,16
      79                                      ; LLC_PWMDbFedPri @ 0
      80              
      81              $C$DW$8 .dwtag  DW_TAG_variable
      82                      .dwattr $C$DW$8, DW_AT_name("LLC_PWMDbFedPri")
      83                      .dwattr $C$DW$8, DW_AT_linkage_name("LLC_PWMDbFedPri")
      84                      .dwattr $C$DW$8, DW_AT_location[DW_OP_addr ||LLC_PWMDbFedPri||]
      85                      .dwattr $C$DW$8, DW_AT_type(*$C$DW$T$72)
      86                      .dwattr $C$DW$8, DW_AT_external
      87                      .dwattr $C$DW$8, DW_AT_decl_file("../llc.c")
      88                      .dwattr $C$DW$8, DW_AT_decl_line(0x3a)
      89                      .dwattr $C$DW$8, DW_AT_decl_column(0x0b)
      90              
      91                      .global ||LLC_enable||
      92 00000002               .sect   "controlVariables:init", RW
      93                      .align  1
      94                      .elfsym ||LLC_enable||,SYM_SIZE(1),SYM_BLOCKED(1)
      95 00000002       ||LLC_enable||:
      96 00000002 0000          .bits           0,16
      97                                      ; LLC_enable @ 0
      98              
      99              $C$DW$9 .dwtag  DW_TAG_variable
     100                      .dwattr $C$DW$9, DW_AT_name("LLC_enable")
     101                      .dwattr $C$DW$9, DW_AT_linkage_name("LLC_enable")
     102                      .dwattr $C$DW$9, DW_AT_location[DW_OP_addr ||LLC_enable||]
     103                      .dwattr $C$DW$9, DW_AT_type(*$C$DW$T$72)
     104                      .dwattr $C$DW$9, DW_AT_external
     105                      .dwattr $C$DW$9, DW_AT_decl_file("../llc.c")
     106                      .dwattr $C$DW$9, DW_AT_decl_line(0x5f)
     107                      .dwattr $C$DW$9, DW_AT_decl_column(0x0b)
     108              
     109                      .global ||LLC_startupDutySlewFlag||
     110 00000003               .sect   "controlVariables:init", RW
TMS320C2000 Assembler PC v22.6.1 Thu Mar 28 17:35:23 2024

Copyright (c) 1996-2018 Texas Instruments Incorporated
llc.asm                                                              PAGE    3

     111                      .align  1
     112                      .elfsym ||LLC_startupDutySlewFlag||,SYM_SIZE(1),SYM_BLOCKED(1)
     113 00000003       ||LLC_startupDutySlewFlag||:
     114 00000003 0000          .bits           0,16
     115                                      ; LLC_startupDutySlewFlag @ 0
     116              
     117              $C$DW$10        .dwtag  DW_TAG_variable
     118                      .dwattr $C$DW$10, DW_AT_name("LLC_startupDutySlewFlag")
     119                      .dwattr $C$DW$10, DW_AT_linkage_name("LLC_startupDutySlewFlag")
     120                      .dwattr $C$DW$10, DW_AT_location[DW_OP_addr ||LLC_startupDutySlewFlag||]
     121                      .dwattr $C$DW$10, DW_AT_type(*$C$DW$T$72)
     122                      .dwattr $C$DW$10, DW_AT_external
     123                      .dwattr $C$DW$10, DW_AT_decl_file("../llc.c")
     124                      .dwattr $C$DW$10, DW_AT_decl_line(0x60)
     125                      .dwattr $C$DW$10, DW_AT_decl_column(0x0b)
     126              
     127                      .global ||LLC_SRenable||
     128 00000004               .sect   "controlVariables:init", RW
     129                      .align  1
     130                      .elfsym ||LLC_SRenable||,SYM_SIZE(1),SYM_BLOCKED(1)
     131 00000004       ||LLC_SRenable||:
     132 00000004 0001          .bits           0x1,16
     133                                      ; LLC_SRenable @ 0
     134              
     135              $C$DW$11        .dwtag  DW_TAG_variable
     136                      .dwattr $C$DW$11, DW_AT_name("LLC_SRenable")
     137                      .dwattr $C$DW$11, DW_AT_linkage_name("LLC_SRenable")
     138                      .dwattr $C$DW$11, DW_AT_location[DW_OP_addr ||LLC_SRenable||]
     139                      .dwattr $C$DW$11, DW_AT_type(*$C$DW$T$72)
     140                      .dwattr $C$DW$11, DW_AT_external
     141                      .dwattr $C$DW$11, DW_AT_decl_file("../llc.c")
     142                      .dwattr $C$DW$11, DW_AT_decl_line(0x61)
     143                      .dwattr $C$DW$11, DW_AT_decl_column(0x0b)
     144              
     145                      .global ||LLC_txEventSts||
     146 00000005               .sect   "controlVariables:init", RW
     147                      .align  1
     148                      .elfsym ||LLC_txEventSts||,SYM_SIZE(1),SYM_BLOCKED(1)
     149 00000005       ||LLC_txEventSts||:
     150 00000005 0000          .bits           0,16
     151                                      ; LLC_txEventSts @ 0
     152              
     153              $C$DW$12        .dwtag  DW_TAG_variable
     154                      .dwattr $C$DW$12, DW_AT_name("LLC_txEventSts")
     155                      .dwattr $C$DW$12, DW_AT_linkage_name("LLC_txEventSts")
     156                      .dwattr $C$DW$12, DW_AT_location[DW_OP_addr ||LLC_txEventSts||]
     157                      .dwattr $C$DW$12, DW_AT_type(*$C$DW$T$72)
     158                      .dwattr $C$DW$12, DW_AT_external
     159                      .dwattr $C$DW$12, DW_AT_decl_file("../llc.c")
     160                      .dwattr $C$DW$12, DW_AT_decl_line(0x66)
     161                      .dwattr $C$DW$12, DW_AT_decl_column(0x0a)
     162              
     163                      .global ||LLC_rxEventSts||
     164 00000006               .sect   "controlVariables:init", RW
     165                      .align  1
TMS320C2000 Assembler PC v22.6.1 Thu Mar 28 17:35:23 2024

Copyright (c) 1996-2018 Texas Instruments Incorporated
llc.asm                                                              PAGE    4

     166                      .elfsym ||LLC_rxEventSts||,SYM_SIZE(1),SYM_BLOCKED(1)
     167 00000006       ||LLC_rxEventSts||:
     168 00000006 0000          .bits           0,16
     169                                      ; LLC_rxEventSts @ 0
     170              
     171              $C$DW$13        .dwtag  DW_TAG_variable
     172                      .dwattr $C$DW$13, DW_AT_name("LLC_rxEventSts")
     173                      .dwattr $C$DW$13, DW_AT_linkage_name("LLC_rxEventSts")
     174                      .dwattr $C$DW$13, DW_AT_location[DW_OP_addr ||LLC_rxEventSts||]
     175                      .dwattr $C$DW$13, DW_AT_type(*$C$DW$T$72)
     176                      .dwattr $C$DW$13, DW_AT_external
     177                      .dwattr $C$DW$13, DW_AT_decl_file("../llc.c")
     178                      .dwattr $C$DW$13, DW_AT_decl_line(0x67)
     179                      .dwattr $C$DW$13, DW_AT_decl_column(0x0a)
     180              
     181                      .global ||LLC_buildLevel||
     182 00000007               .sect   "controlVariables:init"
     183                      .align  1
     184                      .elfsym ||LLC_buildLevel||,SYM_SIZE(1),SYM_BLOCKED(1)
     185 00000007       ||LLC_buildLevel||:
     186 00000007 0001          .bits           0x1,16
     187                                      ; LLC_buildLevel @ 0
     188              
     189              $C$DW$14        .dwtag  DW_TAG_variable
     190                      .dwattr $C$DW$14, DW_AT_name("LLC_buildLevel")
     191                      .dwattr $C$DW$14, DW_AT_linkage_name("LLC_buildLevel")
     192                      .dwattr $C$DW$14, DW_AT_location[DW_OP_addr ||LLC_buildLevel||]
     193                      .dwattr $C$DW$14, DW_AT_type(*$C$DW$T$92)
     194                      .dwattr $C$DW$14, DW_AT_external
     195                      .dwattr $C$DW$14, DW_AT_decl_file("../llc.c")
     196                      .dwattr $C$DW$14, DW_AT_decl_line(0x74)
     197                      .dwattr $C$DW$14, DW_AT_decl_column(0x1c)
     198              
     199                      .global ||LLC_startFlag||
     200 00000008               .sect   "controlVariables:init", RW
     201                      .align  1
     202                      .elfsym ||LLC_startFlag||,SYM_SIZE(1),SYM_BLOCKED(1)
     203 00000008       ||LLC_startFlag||:
     204 00000008 0000          .bits           0,16
     205                                      ; LLC_startFlag @ 0
     206              
     207              $C$DW$15        .dwtag  DW_TAG_variable
     208                      .dwattr $C$DW$15, DW_AT_name("LLC_startFlag")
     209                      .dwattr $C$DW$15, DW_AT_linkage_name("LLC_startFlag")
     210                      .dwattr $C$DW$15, DW_AT_location[DW_OP_addr ||LLC_startFlag||]
     211                      .dwattr $C$DW$15, DW_AT_type(*$C$DW$T$93)
     212                      .dwattr $C$DW$15, DW_AT_external
     213                      .dwattr $C$DW$15, DW_AT_decl_file("../llc.c")
     214                      .dwattr $C$DW$15, DW_AT_decl_line(0x77)
     215                      .dwattr $C$DW$15, DW_AT_decl_column(0x13)
     216              
     217                      .global ||LLC_faultFlag||
     218 00000009               .sect   "controlVariables:init", RW
     219                      .align  1
     220                      .elfsym ||LLC_faultFlag||,SYM_SIZE(1),SYM_BLOCKED(1)
TMS320C2000 Assembler PC v22.6.1 Thu Mar 28 17:35:23 2024

Copyright (c) 1996-2018 Texas Instruments Incorporated
llc.asm                                                              PAGE    5

     221 00000009       ||LLC_faultFlag||:
     222 00000009 0000          .bits           0,16
     223                                      ; LLC_faultFlag @ 0
     224              
     225              $C$DW$16        .dwtag  DW_TAG_variable
     226                      .dwattr $C$DW$16, DW_AT_name("LLC_faultFlag")
     227                      .dwattr $C$DW$16, DW_AT_linkage_name("LLC_faultFlag")
     228                      .dwattr $C$DW$16, DW_AT_location[DW_OP_addr ||LLC_faultFlag||]
     229                      .dwattr $C$DW$16, DW_AT_type(*$C$DW$T$93)
     230                      .dwattr $C$DW$16, DW_AT_external
     231                      .dwattr $C$DW$16, DW_AT_decl_file("../llc.c")
     232                      .dwattr $C$DW$16, DW_AT_decl_line(0x7d)
     233                      .dwattr $C$DW$16, DW_AT_decl_column(0x13)
     234              
     235              
     236              $C$DW$17        .dwtag  DW_TAG_subprogram
     237                      .dwattr $C$DW$17, DW_AT_name("DCL_runClamp_C1")
     238                      .dwattr $C$DW$17, DW_AT_linkage_name("DCL_runClamp_C1")
     239                      .dwattr $C$DW$17, DW_AT_type(*$C$DW$T$85)
     240                      .dwattr $C$DW$17, DW_AT_declaration
     241                      .dwattr $C$DW$17, DW_AT_external
     242                      .dwattr $C$DW$17, DW_AT_decl_file("C:/Users/Joel9/Downloads/llc_capstone_F28003/llc_capstone_F28003x/
     243                      .dwattr $C$DW$17, DW_AT_decl_line(0x6b7)
     244                      .dwattr $C$DW$17, DW_AT_decl_column(0x10)
     245              $C$DW$18        .dwtag  DW_TAG_formal_parameter
     246                      .dwattr $C$DW$18, DW_AT_type(*$C$DW$T$76)
     247              
     248              $C$DW$19        .dwtag  DW_TAG_formal_parameter
     249                      .dwattr $C$DW$19, DW_AT_type(*$C$DW$T$31)
     250              
     251              $C$DW$20        .dwtag  DW_TAG_formal_parameter
     252                      .dwattr $C$DW$20, DW_AT_type(*$C$DW$T$31)
     253              
     254                      .dwendtag $C$DW$17
     255              
     256 00000000               .data
     257                      .align  1
     258                      .elfsym ||range$1||,SYM_SIZE(1),SYM_BLOCKED(1)
     259 00000000       ||range$1||:
     260 00000000 0000          .bits           0,16
     261                                      ; range$1 @ 0
     262              
     263                      .global ||LLC_board_Status||
     264 00000000       ||LLC_board_Status||:   .usect  "controlVariables:uninit",2,1,1
     265              $C$DW$21        .dwtag  DW_TAG_variable
     266                      .dwattr $C$DW$21, DW_AT_name("LLC_board_Status")
     267                      .dwattr $C$DW$21, DW_AT_linkage_name("LLC_board_Status")
     268                      .dwattr $C$DW$21, DW_AT_location[DW_OP_addr ||LLC_board_Status||]
     269                      .dwattr $C$DW$21, DW_AT_type(*$C$DW$T$59)
     270                      .dwattr $C$DW$21, DW_AT_external
     271                      .dwattr $C$DW$21, DW_AT_decl_file("../llc.c")
     272                      .dwattr $C$DW$21, DW_AT_decl_line(0x2a)
     273                      .dwattr $C$DW$21, DW_AT_decl_column(0x11)
     274              
     275                      .global ||LLC_vSec_pu||
TMS320C2000 Assembler PC v22.6.1 Thu Mar 28 17:35:23 2024

Copyright (c) 1996-2018 Texas Instruments Incorporated
llc.asm                                                              PAGE    6

     276 0000000a               .sect   "controlVariables:init", RW
     277                      .align  2
     278                      .elfsym ||LLC_vSec_pu||,SYM_SIZE(2),SYM_BLOCKED(1)
     279 0000000a       ||LLC_vSec_pu||:
     280 0000000a 0000          .xfloat $strtod("0x0p+0")               ; LLC_vSec_pu @ 0
         0000000b 0000 
     281              
     282              $C$DW$22        .dwtag  DW_TAG_variable
     283                      .dwattr $C$DW$22, DW_AT_name("LLC_vSec_pu")
     284                      .dwattr $C$DW$22, DW_AT_linkage_name("LLC_vSec_pu")
     285                      .dwattr $C$DW$22, DW_AT_location[DW_OP_addr ||LLC_vSec_pu||]
     286                      .dwattr $C$DW$22, DW_AT_type(*$C$DW$T$31)
     287                      .dwattr $C$DW$22, DW_AT_external
     288                      .dwattr $C$DW$22, DW_AT_decl_file("../llc.c")
     289                      .dwattr $C$DW$22, DW_AT_decl_line(0x2c)
     290                      .dwattr $C$DW$22, DW_AT_decl_column(0x0b)
     291              
     292                      .global ||LLC_iPriReso_pu||
     293 0000000c               .sect   "controlVariables:init", RW
     294                      .align  2
     295                      .elfsym ||LLC_iPriReso_pu||,SYM_SIZE(2),SYM_BLOCKED(1)
     296 0000000c       ||LLC_iPriReso_pu||:
     297 0000000c 0000          .xfloat $strtod("0x0p+0")               ; LLC_iPriReso_pu @ 0
         0000000d 0000 
     298              
     299              $C$DW$23        .dwtag  DW_TAG_variable
     300                      .dwattr $C$DW$23, DW_AT_name("LLC_iPriReso_pu")
     301                      .dwattr $C$DW$23, DW_AT_linkage_name("LLC_iPriReso_pu")
     302                      .dwattr $C$DW$23, DW_AT_location[DW_OP_addr ||LLC_iPriReso_pu||]
     303                      .dwattr $C$DW$23, DW_AT_type(*$C$DW$T$31)
     304                      .dwattr $C$DW$23, DW_AT_external
     305                      .dwattr $C$DW$23, DW_AT_decl_file("../llc.c")
     306                      .dwattr $C$DW$23, DW_AT_decl_line(0x2d)
     307                      .dwattr $C$DW$23, DW_AT_decl_column(0x0b)
     308              
     309                      .global ||LLC_iSec_pu||
     310 0000000e               .sect   "controlVariables:init", RW
     311                      .align  2
     312                      .elfsym ||LLC_iSec_pu||,SYM_SIZE(2),SYM_BLOCKED(1)
     313 0000000e       ||LLC_iSec_pu||:
     314 0000000e 0000          .xfloat $strtod("0x0p+0")               ; LLC_iSec_pu @ 0
         0000000f 0000 
     315              
     316              $C$DW$24        .dwtag  DW_TAG_variable
     317                      .dwattr $C$DW$24, DW_AT_name("LLC_iSec_pu")
     318                      .dwattr $C$DW$24, DW_AT_linkage_name("LLC_iSec_pu")
     319                      .dwattr $C$DW$24, DW_AT_location[DW_OP_addr ||LLC_iSec_pu||]
     320                      .dwattr $C$DW$24, DW_AT_type(*$C$DW$T$31)
     321                      .dwattr $C$DW$24, DW_AT_external
     322                      .dwattr $C$DW$24, DW_AT_decl_file("../llc.c")
     323                      .dwattr $C$DW$24, DW_AT_decl_line(0x2e)
     324                      .dwattr $C$DW$24, DW_AT_decl_column(0x0b)
     325              
     326                      .global ||LLC_vSecSet_pu||
     327 00000010               .sect   "controlVariables:init", RW
TMS320C2000 Assembler PC v22.6.1 Thu Mar 28 17:35:23 2024

Copyright (c) 1996-2018 Texas Instruments Incorporated
llc.asm                                                              PAGE    7

     328                      .align  2
     329                      .elfsym ||LLC_vSecSet_pu||,SYM_SIZE(2),SYM_BLOCKED(1)
     330 00000010       ||LLC_vSecSet_pu||:
     331 00000010 0000          .xfloat $strtod("0x0p+0")               ; LLC_vSecSet_pu @ 0
         00000011 0000 
     332              
     333              $C$DW$25        .dwtag  DW_TAG_variable
     334                      .dwattr $C$DW$25, DW_AT_name("LLC_vSecSet_pu")
     335                      .dwattr $C$DW$25, DW_AT_linkage_name("LLC_vSecSet_pu")
     336                      .dwattr $C$DW$25, DW_AT_location[DW_OP_addr ||LLC_vSecSet_pu||]
     337                      .dwattr $C$DW$25, DW_AT_type(*$C$DW$T$31)
     338                      .dwattr $C$DW$25, DW_AT_external
     339                      .dwattr $C$DW$25, DW_AT_decl_file("../llc.c")
     340                      .dwattr $C$DW$25, DW_AT_decl_line(0x30)
     341                      .dwattr $C$DW$25, DW_AT_decl_column(0x0b)
     342              
     343                      .global ||LLC_periodSet_pu||
     344 00000012               .sect   "controlVariables:init", RW
     345                      .align  2
     346                      .elfsym ||LLC_periodSet_pu||,SYM_SIZE(2),SYM_BLOCKED(1)
     347 00000012       ||LLC_periodSet_pu||:
     348 00000012 0000          .xfloat $strtod("0x0p+0")               ; LLC_periodSet_pu @ 0
         00000013 0000 
     349              
     350              $C$DW$26        .dwtag  DW_TAG_variable
     351                      .dwattr $C$DW$26, DW_AT_name("LLC_periodSet_pu")
     352                      .dwattr $C$DW$26, DW_AT_linkage_name("LLC_periodSet_pu")
     353                      .dwattr $C$DW$26, DW_AT_location[DW_OP_addr ||LLC_periodSet_pu||]
     354                      .dwattr $C$DW$26, DW_AT_type(*$C$DW$T$31)
     355                      .dwattr $C$DW$26, DW_AT_external
     356                      .dwattr $C$DW$26, DW_AT_decl_file("../llc.c")
     357                      .dwattr $C$DW$26, DW_AT_decl_line(0x31)
     358                      .dwattr $C$DW$26, DW_AT_decl_column(0x0b)
     359              
     360                      .global ||LLC_vSecSetSlewed_pu||
     361 00000014               .sect   "controlVariables:init", RW
     362                      .align  2
     363                      .elfsym ||LLC_vSecSetSlewed_pu||,SYM_SIZE(2),SYM_BLOCKED(1)
     364 00000014       ||LLC_vSecSetSlewed_pu||:
     365 00000014 0000          .xfloat $strtod("0x0p+0")               ; LLC_vSecSetSlewed_pu @ 0
         00000015 0000 
     366              
     367              $C$DW$27        .dwtag  DW_TAG_variable
     368                      .dwattr $C$DW$27, DW_AT_name("LLC_vSecSetSlewed_pu")
     369                      .dwattr $C$DW$27, DW_AT_linkage_name("LLC_vSecSetSlewed_pu")
     370                      .dwattr $C$DW$27, DW_AT_location[DW_OP_addr ||LLC_vSecSetSlewed_pu||]
     371                      .dwattr $C$DW$27, DW_AT_type(*$C$DW$T$31)
     372                      .dwattr $C$DW$27, DW_AT_external
     373                      .dwattr $C$DW$27, DW_AT_decl_file("../llc.c")
     374                      .dwattr $C$DW$27, DW_AT_decl_line(0x33)
     375                      .dwattr $C$DW$27, DW_AT_decl_column(0x0b)
     376              
     377                      .global ||LLC_periodSetSlewed_pu||
     378 00000016               .sect   "controlVariables:init", RW
     379                      .align  2
TMS320C2000 Assembler PC v22.6.1 Thu Mar 28 17:35:23 2024

Copyright (c) 1996-2018 Texas Instruments Incorporated
llc.asm                                                              PAGE    8

     380                      .elfsym ||LLC_periodSetSlewed_pu||,SYM_SIZE(2),SYM_BLOCKED(1)
     381 00000016       ||LLC_periodSetSlewed_pu||:
     382 00000016 0000          .xfloat $strtod("0x0p+0")               ; LLC_periodSetSlewed_pu @ 0
         00000017 0000 
     383              
     384              $C$DW$28        .dwtag  DW_TAG_variable
     385                      .dwattr $C$DW$28, DW_AT_name("LLC_periodSetSlewed_pu")
     386                      .dwattr $C$DW$28, DW_AT_linkage_name("LLC_periodSetSlewed_pu")
     387                      .dwattr $C$DW$28, DW_AT_location[DW_OP_addr ||LLC_periodSetSlewed_pu||]
     388                      .dwattr $C$DW$28, DW_AT_type(*$C$DW$T$31)
     389                      .dwattr $C$DW$28, DW_AT_external
     390                      .dwattr $C$DW$28, DW_AT_decl_file("../llc.c")
     391                      .dwattr $C$DW$28, DW_AT_decl_line(0x34)
     392                      .dwattr $C$DW$28, DW_AT_decl_column(0x0b)
     393              
     394                      .global ||LLC_vSecRef_pu||
     395 00000018               .sect   "controlVariables:init", RW
     396                      .align  2
     397                      .elfsym ||LLC_vSecRef_pu||,SYM_SIZE(2),SYM_BLOCKED(1)
     398 00000018       ||LLC_vSecRef_pu||:
     399 00000018 0000          .xfloat $strtod("0x0p+0")               ; LLC_vSecRef_pu @ 0
         00000019 0000 
     400              
     401              $C$DW$29        .dwtag  DW_TAG_variable
     402                      .dwattr $C$DW$29, DW_AT_name("LLC_vSecRef_pu")
     403                      .dwattr $C$DW$29, DW_AT_linkage_name("LLC_vSecRef_pu")
     404                      .dwattr $C$DW$29, DW_AT_location[DW_OP_addr ||LLC_vSecRef_pu||]
     405                      .dwattr $C$DW$29, DW_AT_type(*$C$DW$T$31)
     406                      .dwattr $C$DW$29, DW_AT_external
     407                      .dwattr $C$DW$29, DW_AT_decl_file("../llc.c")
     408                      .dwattr $C$DW$29, DW_AT_decl_line(0x36)
     409                      .dwattr $C$DW$29, DW_AT_decl_column(0x0b)
     410              
     411                      .global ||LLC_periodRef_pu||
     412 0000001a               .sect   "controlVariables:init", RW
     413                      .align  2
     414                      .elfsym ||LLC_periodRef_pu||,SYM_SIZE(2),SYM_BLOCKED(1)
     415 0000001a       ||LLC_periodRef_pu||:
     416 0000001a 0000          .xfloat $strtod("0x0p+0")               ; LLC_periodRef_pu @ 0
         0000001b 0000 
     417              
     418              $C$DW$30        .dwtag  DW_TAG_variable
     419                      .dwattr $C$DW$30, DW_AT_name("LLC_periodRef_pu")
     420                      .dwattr $C$DW$30, DW_AT_linkage_name("LLC_periodRef_pu")
     421                      .dwattr $C$DW$30, DW_AT_location[DW_OP_addr ||LLC_periodRef_pu||]
     422                      .dwattr $C$DW$30, DW_AT_type(*$C$DW$T$31)
     423                      .dwattr $C$DW$30, DW_AT_external
     424                      .dwattr $C$DW$30, DW_AT_decl_file("../llc.c")
     425                      .dwattr $C$DW$30, DW_AT_decl_line(0x37)
     426                      .dwattr $C$DW$30, DW_AT_decl_column(0x0b)
     427              
     428                      .global ||LLC_dutySet_pu||
     429 0000001c               .sect   "controlVariables:init", RW
     430                      .align  2
     431                      .elfsym ||LLC_dutySet_pu||,SYM_SIZE(2),SYM_BLOCKED(1)
TMS320C2000 Assembler PC v22.6.1 Thu Mar 28 17:35:23 2024

Copyright (c) 1996-2018 Texas Instruments Incorporated
llc.asm                                                              PAGE    9

     432 0000001c       ||LLC_dutySet_pu||:
     433 0000001c 0000          .xfloat $strtod("0x0p+0")               ; LLC_dutySet_pu @ 0
         0000001d 0000 
     434              
     435              $C$DW$31        .dwtag  DW_TAG_variable
     436                      .dwattr $C$DW$31, DW_AT_name("LLC_dutySet_pu")
     437                      .dwattr $C$DW$31, DW_AT_linkage_name("LLC_dutySet_pu")
     438                      .dwattr $C$DW$31, DW_AT_location[DW_OP_addr ||LLC_dutySet_pu||]
     439                      .dwattr $C$DW$31, DW_AT_type(*$C$DW$T$31)
     440                      .dwattr $C$DW$31, DW_AT_external
     441                      .dwattr $C$DW$31, DW_AT_decl_file("../llc.c")
     442                      .dwattr $C$DW$31, DW_AT_decl_line(0x3c)
     443                      .dwattr $C$DW$31, DW_AT_decl_column(0x0b)
     444              
     445                      .global ||LLC_dutyBase_pu||
     446 0000001e               .sect   "controlVariables:init", RW
     447                      .align  2
     448                      .elfsym ||LLC_dutyBase_pu||,SYM_SIZE(2),SYM_BLOCKED(1)
     449 0000001e       ||LLC_dutyBase_pu||:
     450 0000001e 0000          .xfloat $strtod("0x0p+0")               ; LLC_dutyBase_pu @ 0
         0000001f 0000 
     451              
     452              $C$DW$32        .dwtag  DW_TAG_variable
     453                      .dwattr $C$DW$32, DW_AT_name("LLC_dutyBase_pu")
     454                      .dwattr $C$DW$32, DW_AT_linkage_name("LLC_dutyBase_pu")
     455                      .dwattr $C$DW$32, DW_AT_location[DW_OP_addr ||LLC_dutyBase_pu||]
     456                      .dwattr $C$DW$32, DW_AT_type(*$C$DW$T$31)
     457                      .dwattr $C$DW$32, DW_AT_external
     458                      .dwattr $C$DW$32, DW_AT_decl_file("../llc.c")
     459                      .dwattr $C$DW$32, DW_AT_decl_line(0x3d)
     460                      .dwattr $C$DW$32, DW_AT_decl_column(0x0b)
     461              
     462                      .global ||clamp_duty||
     463 00000002       ||clamp_duty||: .usect  "controlVariables:uninit",2,1,1
     464              $C$DW$33        .dwtag  DW_TAG_variable
     465                      .dwattr $C$DW$33, DW_AT_name("clamp_duty")
     466                      .dwattr $C$DW$33, DW_AT_linkage_name("clamp_duty")
     467                      .dwattr $C$DW$33, DW_AT_location[DW_OP_addr ||clamp_duty||]
     468                      .dwattr $C$DW$33, DW_AT_type(*$C$DW$T$31)
     469                      .dwattr $C$DW$33, DW_AT_external
     470                      .dwattr $C$DW$33, DW_AT_decl_file("../llc.c")
     471                      .dwattr $C$DW$33, DW_AT_decl_line(0x40)
     472                      .dwattr $C$DW$33, DW_AT_decl_column(0x0b)
     473              
     474                      .global ||SR_deadtime||
     475 00000004       ||SR_deadtime||:        .usect  "controlVariables:uninit",2,1,1
     476              $C$DW$34        .dwtag  DW_TAG_variable
     477                      .dwattr $C$DW$34, DW_AT_name("SR_deadtime")
     478                      .dwattr $C$DW$34, DW_AT_linkage_name("SR_deadtime")
     479                      .dwattr $C$DW$34, DW_AT_location[DW_OP_addr ||SR_deadtime||]
     480                      .dwattr $C$DW$34, DW_AT_type(*$C$DW$T$31)
     481                      .dwattr $C$DW$34, DW_AT_external
     482                      .dwattr $C$DW$34, DW_AT_decl_file("../llc.c")
     483                      .dwattr $C$DW$34, DW_AT_decl_line(0x41)
     484                      .dwattr $C$DW$34, DW_AT_decl_column(0x0b)
TMS320C2000 Assembler PC v22.6.1 Thu Mar 28 17:35:23 2024

Copyright (c) 1996-2018 Texas Instruments Incorporated
llc.asm                                                              PAGE   10

     485              
     486                      .global ||uk||
     487 00000006       ||uk||: .usect  "controlVariables:uninit",2,1,1
     488              $C$DW$35        .dwtag  DW_TAG_variable
     489                      .dwattr $C$DW$35, DW_AT_name("uk")
     490                      .dwattr $C$DW$35, DW_AT_linkage_name("uk")
     491                      .dwattr $C$DW$35, DW_AT_location[DW_OP_addr ||uk||]
     492                      .dwattr $C$DW$35, DW_AT_type(*$C$DW$T$31)
     493                      .dwattr $C$DW$35, DW_AT_external
     494                      .dwattr $C$DW$35, DW_AT_decl_file("../llc.c")
     495                      .dwattr $C$DW$35, DW_AT_decl_line(0x45)
     496                      .dwattr $C$DW$35, DW_AT_decl_column(0x0b)
     497              
     498                      .global ||ek||
     499 00000008       ||ek||: .usect  "controlVariables:uninit",2,1,1
     500              $C$DW$36        .dwtag  DW_TAG_variable
     501                      .dwattr $C$DW$36, DW_AT_name("ek")
     502                      .dwattr $C$DW$36, DW_AT_linkage_name("ek")
     503                      .dwattr $C$DW$36, DW_AT_location[DW_OP_addr ||ek||]
     504                      .dwattr $C$DW$36, DW_AT_type(*$C$DW$T$31)
     505                      .dwattr $C$DW$36, DW_AT_external
     506                      .dwattr $C$DW$36, DW_AT_decl_file("../llc.c")
     507                      .dwattr $C$DW$36, DW_AT_decl_line(0x45)
     508                      .dwattr $C$DW$36, DW_AT_decl_column(0x0f)
     509              
     510                      .global ||LLC_fsiTxInt1Received||
     511 00000020               .sect   "controlVariables:init", RW
     512                      .align  2
     513                      .elfsym ||LLC_fsiTxInt1Received||,SYM_SIZE(2),SYM_BLOCKED(1)
     514 00000020       ||LLC_fsiTxInt1Received||:
     515 00000020 0000          .bits           0,32
         00000021 0000 
     516                                      ; LLC_fsiTxInt1Received @ 0
     517              
     518              $C$DW$37        .dwtag  DW_TAG_variable
     519                      .dwattr $C$DW$37, DW_AT_name("LLC_fsiTxInt1Received")
     520                      .dwattr $C$DW$37, DW_AT_linkage_name("LLC_fsiTxInt1Received")
     521                      .dwattr $C$DW$37, DW_AT_location[DW_OP_addr ||LLC_fsiTxInt1Received||]
     522                      .dwattr $C$DW$37, DW_AT_type(*$C$DW$T$95)
     523                      .dwattr $C$DW$37, DW_AT_external
     524                      .dwattr $C$DW$37, DW_AT_decl_file("../llc.c")
     525                      .dwattr $C$DW$37, DW_AT_decl_line(0x59)
     526                      .dwattr $C$DW$37, DW_AT_decl_column(0x13)
     527              
     528                      .global ||LLC_fsiTxInt2Received||
     529 00000022               .sect   "controlVariables:init", RW
     530                      .align  2
     531                      .elfsym ||LLC_fsiTxInt2Received||,SYM_SIZE(2),SYM_BLOCKED(1)
     532 00000022       ||LLC_fsiTxInt2Received||:
     533 00000022 0000          .bits           0,32
         00000023 0000 
     534                                      ; LLC_fsiTxInt2Received @ 0
     535              
     536              $C$DW$38        .dwtag  DW_TAG_variable
     537                      .dwattr $C$DW$38, DW_AT_name("LLC_fsiTxInt2Received")
TMS320C2000 Assembler PC v22.6.1 Thu Mar 28 17:35:23 2024

Copyright (c) 1996-2018 Texas Instruments Incorporated
llc.asm                                                              PAGE   11

     538                      .dwattr $C$DW$38, DW_AT_linkage_name("LLC_fsiTxInt2Received")
     539                      .dwattr $C$DW$38, DW_AT_location[DW_OP_addr ||LLC_fsiTxInt2Received||]
     540                      .dwattr $C$DW$38, DW_AT_type(*$C$DW$T$95)
     541                      .dwattr $C$DW$38, DW_AT_external
     542                      .dwattr $C$DW$38, DW_AT_decl_file("../llc.c")
     543                      .dwattr $C$DW$38, DW_AT_decl_line(0x5a)
     544                      .dwattr $C$DW$38, DW_AT_decl_column(0x13)
     545              
     546                      .global ||LLC_fsiRxInt1Received||
     547 00000024               .sect   "controlVariables:init", RW
     548                      .align  2
     549                      .elfsym ||LLC_fsiRxInt1Received||,SYM_SIZE(2),SYM_BLOCKED(1)
     550 00000024       ||LLC_fsiRxInt1Received||:
     551 00000024 0000          .bits           0,32
         00000025 0000 
     552                                      ; LLC_fsiRxInt1Received @ 0
     553              
     554              $C$DW$39        .dwtag  DW_TAG_variable
     555                      .dwattr $C$DW$39, DW_AT_name("LLC_fsiRxInt1Received")
     556                      .dwattr $C$DW$39, DW_AT_linkage_name("LLC_fsiRxInt1Received")
     557                      .dwattr $C$DW$39, DW_AT_location[DW_OP_addr ||LLC_fsiRxInt1Received||]
     558                      .dwattr $C$DW$39, DW_AT_type(*$C$DW$T$95)
     559                      .dwattr $C$DW$39, DW_AT_external
     560                      .dwattr $C$DW$39, DW_AT_decl_file("../llc.c")
     561                      .dwattr $C$DW$39, DW_AT_decl_line(0x5b)
     562                      .dwattr $C$DW$39, DW_AT_decl_column(0x13)
     563              
     564                      .global ||LLC_fsiRxInt2Received||
     565 00000026               .sect   "controlVariables:init", RW
     566                      .align  2
     567                      .elfsym ||LLC_fsiRxInt2Received||,SYM_SIZE(2),SYM_BLOCKED(1)
     568 00000026       ||LLC_fsiRxInt2Received||:
     569 00000026 0000          .bits           0,32
         00000027 0000 
     570                                      ; LLC_fsiRxInt2Received @ 0
     571              
     572              $C$DW$40        .dwtag  DW_TAG_variable
     573                      .dwattr $C$DW$40, DW_AT_name("LLC_fsiRxInt2Received")
     574                      .dwattr $C$DW$40, DW_AT_linkage_name("LLC_fsiRxInt2Received")
     575                      .dwattr $C$DW$40, DW_AT_location[DW_OP_addr ||LLC_fsiRxInt2Received||]
     576                      .dwattr $C$DW$40, DW_AT_type(*$C$DW$T$95)
     577                      .dwattr $C$DW$40, DW_AT_external
     578                      .dwattr $C$DW$40, DW_AT_decl_file("../llc.c")
     579                      .dwattr $C$DW$40, DW_AT_decl_line(0x5c)
     580                      .dwattr $C$DW$40, DW_AT_decl_column(0x13)
     581              
     582                      .global ||LLC_vSec_Volts||
     583 00000028               .sect   "controlVariables:init", RW
     584                      .align  2
     585                      .elfsym ||LLC_vSec_Volts||,SYM_SIZE(2),SYM_BLOCKED(1)
     586 00000028       ||LLC_vSec_Volts||:
     587 00000028 0000          .xfloat $strtod("0x0p+0")               ; LLC_vSec_Volts @ 0
         00000029 0000 
     588              
     589              $C$DW$41        .dwtag  DW_TAG_variable
TMS320C2000 Assembler PC v22.6.1 Thu Mar 28 17:35:23 2024

Copyright (c) 1996-2018 Texas Instruments Incorporated
llc.asm                                                              PAGE   12

     590                      .dwattr $C$DW$41, DW_AT_name("LLC_vSec_Volts")
     591                      .dwattr $C$DW$41, DW_AT_linkage_name("LLC_vSec_Volts")
     592                      .dwattr $C$DW$41, DW_AT_location[DW_OP_addr ||LLC_vSec_Volts||]
     593                      .dwattr $C$DW$41, DW_AT_type(*$C$DW$T$31)
     594                      .dwattr $C$DW$41, DW_AT_external
     595                      .dwattr $C$DW$41, DW_AT_decl_file("../llc.c")
     596                      .dwattr $C$DW$41, DW_AT_decl_line(0x7f)
     597                      .dwattr $C$DW$41, DW_AT_decl_column(0x0b)
     598              
     599                      .global ||LLC_iPriReso_Amps||
     600 0000002a               .sect   "controlVariables:init", RW
     601                      .align  2
     602                      .elfsym ||LLC_iPriReso_Amps||,SYM_SIZE(2),SYM_BLOCKED(1)
     603 0000002a       ||LLC_iPriReso_Amps||:
     604 0000002a 0000          .xfloat $strtod("0x0p+0")               ; LLC_iPriReso_Amps @ 0
         0000002b 0000 
     605              
     606              $C$DW$42        .dwtag  DW_TAG_variable
     607                      .dwattr $C$DW$42, DW_AT_name("LLC_iPriReso_Amps")
     608                      .dwattr $C$DW$42, DW_AT_linkage_name("LLC_iPriReso_Amps")
     609                      .dwattr $C$DW$42, DW_AT_location[DW_OP_addr ||LLC_iPriReso_Amps||]
     610                      .dwattr $C$DW$42, DW_AT_type(*$C$DW$T$31)
     611                      .dwattr $C$DW$42, DW_AT_external
     612                      .dwattr $C$DW$42, DW_AT_decl_file("../llc.c")
     613                      .dwattr $C$DW$42, DW_AT_decl_line(0x80)
     614                      .dwattr $C$DW$42, DW_AT_decl_column(0x0b)
     615              
     616                      .global ||LLC_iSec_Amps||
     617 0000002c               .sect   "controlVariables:init", RW
     618                      .align  2
     619                      .elfsym ||LLC_iSec_Amps||,SYM_SIZE(2),SYM_BLOCKED(1)
     620 0000002c       ||LLC_iSec_Amps||:
     621 0000002c 0000          .xfloat $strtod("0x0p+0")               ; LLC_iSec_Amps @ 0
         0000002d 0000 
     622              
     623              $C$DW$43        .dwtag  DW_TAG_variable
     624                      .dwattr $C$DW$43, DW_AT_name("LLC_iSec_Amps")
     625                      .dwattr $C$DW$43, DW_AT_linkage_name("LLC_iSec_Amps")
     626                      .dwattr $C$DW$43, DW_AT_location[DW_OP_addr ||LLC_iSec_Amps||]
     627                      .dwattr $C$DW$43, DW_AT_type(*$C$DW$T$31)
     628                      .dwattr $C$DW$43, DW_AT_external
     629                      .dwattr $C$DW$43, DW_AT_decl_file("../llc.c")
     630                      .dwattr $C$DW$43, DW_AT_decl_line(0x81)
     631                      .dwattr $C$DW$43, DW_AT_decl_column(0x0b)
     632              
     633                      .global ||LLC_periodRef_debug_pu||
     634 0000002e               .sect   "controlVariables:init", RW
     635                      .align  2
     636                      .elfsym ||LLC_periodRef_debug_pu||,SYM_SIZE(2),SYM_BLOCKED(1)
     637 0000002e       ||LLC_periodRef_debug_pu||:
     638 0000002e 0000          .xfloat $strtod("0x0p+0")               ; LLC_periodRef_debug_pu @ 0
         0000002f 0000 
     639              
     640              $C$DW$44        .dwtag  DW_TAG_variable
     641                      .dwattr $C$DW$44, DW_AT_name("LLC_periodRef_debug_pu")
TMS320C2000 Assembler PC v22.6.1 Thu Mar 28 17:35:23 2024

Copyright (c) 1996-2018 Texas Instruments Incorporated
llc.asm                                                              PAGE   13

     642                      .dwattr $C$DW$44, DW_AT_linkage_name("LLC_periodRef_debug_pu")
     643                      .dwattr $C$DW$44, DW_AT_location[DW_OP_addr ||LLC_periodRef_debug_pu||]
     644                      .dwattr $C$DW$44, DW_AT_type(*$C$DW$T$105)
     645                      .dwattr $C$DW$44, DW_AT_external
     646                      .dwattr $C$DW$44, DW_AT_decl_file("../llc.c")
     647                      .dwattr $C$DW$44, DW_AT_decl_line(0x86)
     648                      .dwattr $C$DW$44, DW_AT_decl_column(0x14)
     649              
     650                      .global ||LLC_dutySet_debug_pu||
     651 00000030               .sect   "controlVariables:init", RW
     652                      .align  2
     653                      .elfsym ||LLC_dutySet_debug_pu||,SYM_SIZE(2),SYM_BLOCKED(1)
     654 00000030       ||LLC_dutySet_debug_pu||:
     655 00000030 0000          .xfloat $strtod("0x0p+0")               ; LLC_dutySet_debug_pu @ 0
         00000031 0000 
     656              
     657              $C$DW$45        .dwtag  DW_TAG_variable
     658                      .dwattr $C$DW$45, DW_AT_name("LLC_dutySet_debug_pu")
     659                      .dwattr $C$DW$45, DW_AT_linkage_name("LLC_dutySet_debug_pu")
     660                      .dwattr $C$DW$45, DW_AT_location[DW_OP_addr ||LLC_dutySet_debug_pu||]
     661                      .dwattr $C$DW$45, DW_AT_type(*$C$DW$T$105)
     662                      .dwattr $C$DW$45, DW_AT_external
     663                      .dwattr $C$DW$45, DW_AT_decl_file("../llc.c")
     664                      .dwattr $C$DW$45, DW_AT_decl_line(0x87)
     665                      .dwattr $C$DW$45, DW_AT_decl_column(0x14)
     666              
     667                      .global ||LLC_vSecRef_debug_Volts||
     668 00000032               .sect   "controlVariables:init", RW
     669                      .align  2
     670                      .elfsym ||LLC_vSecRef_debug_Volts||,SYM_SIZE(2),SYM_BLOCKED(1)
     671 00000032       ||LLC_vSecRef_debug_Volts||:
     672 00000032 0000          .xfloat $strtod("0x0p+0")               ; LLC_vSecRef_debug_Volts @ 0
         00000033 0000 
     673              
     674              $C$DW$46        .dwtag  DW_TAG_variable
     675                      .dwattr $C$DW$46, DW_AT_name("LLC_vSecRef_debug_Volts")
     676                      .dwattr $C$DW$46, DW_AT_linkage_name("LLC_vSecRef_debug_Volts")
     677                      .dwattr $C$DW$46, DW_AT_location[DW_OP_addr ||LLC_vSecRef_debug_Volts||]
     678                      .dwattr $C$DW$46, DW_AT_type(*$C$DW$T$105)
     679                      .dwattr $C$DW$46, DW_AT_external
     680                      .dwattr $C$DW$46, DW_AT_decl_file("../llc.c")
     681                      .dwattr $C$DW$46, DW_AT_decl_line(0x8c)
     682                      .dwattr $C$DW$46, DW_AT_decl_column(0x14)
     683              
     684 00000001               .data
     685                      .align  2
     686                      .elfsym ||diff$2||,SYM_SIZE(2),SYM_BLOCKED(1)
     687 00000002       ||diff$2||:
     688 00000002 0000          .xfloat $strtod("0x0p+0")               ; diff$2 @ 0
         00000003 0000 
     689              
     690              
     691              $C$DW$47        .dwtag  DW_TAG_subprogram
     692                      .dwattr $C$DW$47, DW_AT_name("__eallow")
     693                      .dwattr $C$DW$47, DW_AT_linkage_name("__eallow")
TMS320C2000 Assembler PC v22.6.1 Thu Mar 28 17:35:23 2024

Copyright (c) 1996-2018 Texas Instruments Incorporated
llc.asm                                                              PAGE   14

     694                      .dwattr $C$DW$47, DW_AT_declaration
     695                      .dwattr $C$DW$47, DW_AT_external
     696                      .dwendtag $C$DW$47
     697              
     698              
     699              $C$DW$48        .dwtag  DW_TAG_subprogram
     700                      .dwattr $C$DW$48, DW_AT_name("__edis")
     701                      .dwattr $C$DW$48, DW_AT_linkage_name("__edis")
     702                      .dwattr $C$DW$48, DW_AT_declaration
     703                      .dwattr $C$DW$48, DW_AT_external
     704                      .dwendtag $C$DW$48
     705              
     706                      .global ||LLC_ctrl_DF22||
     707 00000034               .sect   "controlVariables:init", RW
     708                      .align  2
     709                      .elfsym ||LLC_ctrl_DF22||,SYM_SIZE(18),SYM_BLOCKED(1)
     710 00000040       ||LLC_ctrl_DF22||:
     711 00000040 0000          .xfloat $strtod("0x1p+0")               ; LLC_ctrl_DF22.b0 @ 0
         00000041 3F80 
     712 00000042 0000          .xfloat $strtod("0x0p+0")               ; LLC_ctrl_DF22.b1 @ 32
         00000043 0000 
     713 00000044 0000          .xfloat $strtod("0x0p+0")               ; LLC_ctrl_DF22.b2 @ 64
         00000045 0000 
     714 00000046 0000          .xfloat $strtod("0x0p+0")               ; LLC_ctrl_DF22.a1 @ 96
         00000047 0000 
     715 00000048 0000          .xfloat $strtod("0x0p+0")               ; LLC_ctrl_DF22.a2 @ 128
         00000049 0000 
     716 0000004a 0000          .xfloat $strtod("0x0p+0")               ; LLC_ctrl_DF22.x1 @ 160
         0000004b 0000 
     717 0000004c 0000          .xfloat $strtod("0x0p+0")               ; LLC_ctrl_DF22.x2 @ 192
         0000004d 0000 
     718 0000004e 0000          .bits           0,32
         0000004f 0000 
     719                                      ; LLC_ctrl_DF22.sps @ 224
     720 00000050 0000          .bits           0,32
         00000051 0000 
     721                                      ; LLC_ctrl_DF22.css @ 256
     722              
     723              $C$DW$49        .dwtag  DW_TAG_variable
     724                      .dwattr $C$DW$49, DW_AT_name("LLC_ctrl_DF22")
     725                      .dwattr $C$DW$49, DW_AT_linkage_name("LLC_ctrl_DF22")
     726                      .dwattr $C$DW$49, DW_AT_location[DW_OP_addr ||LLC_ctrl_DF22||]
     727                      .dwattr $C$DW$49, DW_AT_type(*$C$DW$T$114)
     728                      .dwattr $C$DW$49, DW_AT_external
     729                      .dwattr $C$DW$49, DW_AT_decl_file("../llc.c")
     730                      .dwattr $C$DW$49, DW_AT_decl_line(0x53)
     731                      .dwattr $C$DW$49, DW_AT_decl_column(0x13)
     732              
     733                      .global ||LLC_ctrl_PID||
     734 00000052               .sect   "controlVariables:init", RW
     735                      .align  2
     736                      .elfsym ||LLC_ctrl_PID||,SYM_SIZE(28),SYM_BLOCKED(1)
     737 00000052       ||LLC_ctrl_PID||:
     738 00000052 0000          .xfloat $strtod("0x1p+0")               ; LLC_ctrl_PID.Kp @ 0
         00000053 3F80 
TMS320C2000 Assembler PC v22.6.1 Thu Mar 28 17:35:23 2024

Copyright (c) 1996-2018 Texas Instruments Incorporated
llc.asm                                                              PAGE   15

     739 00000054 0000          .xfloat $strtod("0x0p+0")               ; LLC_ctrl_PID.Ki @ 32
         00000055 0000 
     740 00000056 0000          .xfloat $strtod("0x0p+0")               ; LLC_ctrl_PID.Kd @ 64
         00000057 0000 
     741 00000058 0000          .xfloat $strtod("0x1p+0")               ; LLC_ctrl_PID.Kr @ 96
         00000059 3F80 
     742 0000005a 0000          .xfloat $strtod("0x1p+0")               ; LLC_ctrl_PID.c1 @ 128
         0000005b 3F80 
     743 0000005c 0000          .xfloat $strtod("0x0p+0")               ; LLC_ctrl_PID.c2 @ 160
         0000005d 0000 
     744 0000005e 0000          .xfloat $strtod("0x0p+0")               ; LLC_ctrl_PID.d2 @ 192
         0000005f 0000 
     745 00000060 0000          .xfloat $strtod("0x0p+0")               ; LLC_ctrl_PID.d3 @ 224
         00000061 0000 
     746 00000062 0000          .xfloat $strtod("0x0p+0")               ; LLC_ctrl_PID.i10 @ 256
         00000063 0000 
     747 00000064 0000          .xfloat $strtod("0x1p+0")               ; LLC_ctrl_PID.i14 @ 288
         00000065 3F80 
     748 00000066 0000          .xfloat $strtod("0x1p+0")               ; LLC_ctrl_PID.Umax @ 320
         00000067 3F80 
     749 00000068 0000          .xfloat $strtod("-0x1p+0")              ; LLC_ctrl_PID.Umin @ 352
         00000069 BF80 
     750 0000006a 0000          .bits           0,32
         0000006b 0000 
     751                                      ; LLC_ctrl_PID.sps @ 384
     752 0000006c 0000          .bits           0,32
         0000006d 0000 
     753                                      ; LLC_ctrl_PID.css @ 416
     754              
     755              $C$DW$50        .dwtag  DW_TAG_variable
     756                      .dwattr $C$DW$50, DW_AT_name("LLC_ctrl_PID")
     757                      .dwattr $C$DW$50, DW_AT_linkage_name("LLC_ctrl_PID")
     758                      .dwattr $C$DW$50, DW_AT_location[DW_OP_addr ||LLC_ctrl_PID||]
     759                      .dwattr $C$DW$50, DW_AT_type(*$C$DW$T$117)
     760                      .dwattr $C$DW$50, DW_AT_external
     761                      .dwattr $C$DW$50, DW_AT_decl_file("../llc.c")
     762                      .dwattr $C$DW$50, DW_AT_decl_line(0x4c)
     763                      .dwattr $C$DW$50, DW_AT_decl_column(0x13)
     764              
     765                      .sblock ".data"
     766                      .sblock "controlVariables:init"
     767                      .sblock "controlVariables:uninit"
     768              ;       C:\ti\ccs1250\ccs\tools\compiler\ti-cgt-c2000_22.6.1.LTS\bin\opt2000.exe C:\\Users\\Joel9\\AppData\\L
     769              ;       C:\ti\ccs1250\ccs\tools\compiler\ti-cgt-c2000_22.6.1.LTS\bin\acia2000.exe -@C:\\Users\\Joel9\\AppData
     770 00000000               .sect   ".text:__signbitl"
     771                      .clink
     772                      .global ||__signbitl||
     773              
     774              $C$DW$51        .dwtag  DW_TAG_subprogram
     775                      .dwattr $C$DW$51, DW_AT_name("__signbitl")
     776                      .dwattr $C$DW$51, DW_AT_low_pc(||__signbitl||)
     777                      .dwattr $C$DW$51, DW_AT_high_pc(0x00)
     778                      .dwattr $C$DW$51, DW_AT_linkage_name("__signbitl")
     779                      .dwattr $C$DW$51, DW_AT_external
     780                      .dwattr $C$DW$51, DW_AT_type(*$C$DW$T$10)
TMS320C2000 Assembler PC v22.6.1 Thu Mar 28 17:35:23 2024

Copyright (c) 1996-2018 Texas Instruments Incorporated
llc.asm                                                              PAGE   16

     781                      .dwattr $C$DW$51, DW_AT_decl_file("C:/ti/ccs1250/ccs/tools/compiler/ti-cgt-c2000_22.6.1.LTS/include/_
     782                      .dwattr $C$DW$51, DW_AT_decl_line(0x16f)
     783                      .dwattr $C$DW$51, DW_AT_decl_column(0x18)
     784                      .dwattr $C$DW$51, DW_AT_TI_max_frame_size(-6)
     785                      .dwpsn  file "C:/ti/ccs1250/ccs/tools/compiler/ti-cgt-c2000_22.6.1.LTS/include/_defs.h",line 368,colu
     786              
     787                      .dwfde $C$DW$CIE, ||__signbitl||
     788              $C$DW$52        .dwtag  DW_TAG_formal_parameter
     789                      .dwattr $C$DW$52, DW_AT_name("e")
     790                      .dwattr $C$DW$52, DW_AT_type(*$C$DW$T$110)
     791                      .dwattr $C$DW$52, DW_AT_location[DW_OP_reg12]
     792              
     793              
     794              ;***************************************************************
     795              ;* FNAME: __signbitl                    FR SIZE:   4           *
     796              ;*                                                             *
     797              ;* FUNCTION ENVIRONMENT                                        *
     798              ;*                                                             *
     799              ;* FUNCTION PROPERTIES                                         *
     800              ;*                            4 Parameter,  0 Auto,  0 SOE     *
     801              ;***************************************************************
     802              
     803              ||__signbitl||:
     804              ;* AR4   assigned to e
     805              $C$DW$53        .dwtag  DW_TAG_variable
     806                      .dwattr $C$DW$53, DW_AT_name("e")
     807                      .dwattr $C$DW$53, DW_AT_type(*$C$DW$T$111)
     808                      .dwattr $C$DW$53, DW_AT_location[DW_OP_reg12]
     809              
     810                      .dwcfi  cfa_offset, -2
     811                      .dwcfi  save_reg_to_mem, 26, 0
     812 00000000 FE04          ADDB      SP,#4                 ; [CPU_ARAU] 
     813                      .dwcfi  cfa_offset, -6
     814                      .dwpsn  file "C:/ti/ccs1250/ccs/tools/compiler/ti-cgt-c2000_22.6.1.LTS/include/_defs.h",line 368,colu
     815 00000001 0200          MOVB      ACC,#0                ; [CPU_ALU] |368| 
     816 00000002 1E44          MOVL      *-SP[4],ACC           ; [CPU_ALU] |368| 
     817 00000003 2B42          MOV       *-SP[2],#0            ; [CPU_ALU] |368| 
     818 00000004 2B41          MOV       *-SP[1],#0            ; [CPU_ALU] |368| 
     819 00000005 A3C4          MOVL      P,*+XAR4[0]           ; [CPU_ALU] |368| 
     820 00000006 06D4          MOVL      ACC,*+XAR4[2]         ; [CPU_ALU] |368| 
     821 00000007 18AB          AND       PL,#0                 ; [CPU_ALU] |368| 
         00000008 0000 
     822 00000009 18AA          AND       PH,#0                 ; [CPU_ALU] |368| 
         0000000a 0000 
     823 0000000b 9000          ANDB      AL,#0                 ; [CPU_ALU] |368| 
     824 0000000c 18A8          AND       AH,#32768             ; [CPU_ALU] |368| 
         0000000d 8000 
     825              $C$DW$54        .dwtag  DW_TAG_TI_branch
     826                      .dwattr $C$DW$54, DW_AT_low_pc(0x00)
     827                      .dwattr $C$DW$54, DW_AT_name("__c28xabi_cmpull")
     828                      .dwattr $C$DW$54, DW_AT_TI_call
     829              
     830 0000000e 7640!         LCR       #||__c28xabi_cmpull|| ; [CPU_ALU] |368| 
         0000000f 0000 
     831                      ; call occurs [#||__c28xabi_cmpull||] ; [] |368| 
TMS320C2000 Assembler PC v22.6.1 Thu Mar 28 17:35:23 2024

Copyright (c) 1996-2018 Texas Instruments Incorporated
llc.asm                                                              PAGE   17

     832 00000010 9B00          MOVB      AH,#0                 ; [CPU_ALU] |368| 
     833 00000011 5200          CMPB      AL,#0                 ; [CPU_ALU] |368| 
     834 00000012 56B0          MOVB      AH,#1,NEQ             ; [CPU_ALU] |368| 
         00000013 01A8 
     835 00000014 92A8          MOV       AL,AH                 ; [CPU_ALU] |368| 
     836 00000015 FE84          SUBB      SP,#4                 ; [CPU_ARAU] 
     837                      .dwcfi  cfa_offset, -2
     838              $C$DW$55        .dwtag  DW_TAG_TI_branch
     839                      .dwattr $C$DW$55, DW_AT_low_pc(0x00)
     840                      .dwattr $C$DW$55, DW_AT_TI_return
     841              
     842 00000016 0006          LRETR     ; [CPU_ALU] 
     843                      ; return occurs ; [] 
     844                      .dwattr $C$DW$51, DW_AT_TI_end_file("C:/ti/ccs1250/ccs/tools/compiler/ti-cgt-c2000_22.6.1.LTS/include
     845                      .dwattr $C$DW$51, DW_AT_TI_end_line(0x170)
     846                      .dwattr $C$DW$51, DW_AT_TI_end_column(0x2b)
     847                      .dwendentry
     848                      .dwendtag $C$DW$51
     849              
     850 00000000               .sect   ".text:__signbitf"
     851                      .clink
     852                      .global ||__signbitf||
     853              
     854              $C$DW$56        .dwtag  DW_TAG_subprogram
     855                      .dwattr $C$DW$56, DW_AT_name("__signbitf")
     856                      .dwattr $C$DW$56, DW_AT_low_pc(||__signbitf||)
     857                      .dwattr $C$DW$56, DW_AT_high_pc(0x00)
     858                      .dwattr $C$DW$56, DW_AT_linkage_name("__signbitf")
     859                      .dwattr $C$DW$56, DW_AT_external
     860                      .dwattr $C$DW$56, DW_AT_type(*$C$DW$T$10)
     861                      .dwattr $C$DW$56, DW_AT_decl_file("C:/ti/ccs1250/ccs/tools/compiler/ti-cgt-c2000_22.6.1.LTS/include/_
     862                      .dwattr $C$DW$56, DW_AT_decl_line(0x16d)
     863                      .dwattr $C$DW$56, DW_AT_decl_column(0x18)
     864                      .dwattr $C$DW$56, DW_AT_TI_max_frame_size(-2)
     865                      .dwpsn  file "C:/ti/ccs1250/ccs/tools/compiler/ti-cgt-c2000_22.6.1.LTS/include/_defs.h",line 366,colu
     866              
     867                      .dwfde $C$DW$CIE, ||__signbitf||
     868              $C$DW$57        .dwtag  DW_TAG_formal_parameter
     869                      .dwattr $C$DW$57, DW_AT_name("f")
     870                      .dwattr $C$DW$57, DW_AT_type(*$C$DW$T$16)
     871                      .dwattr $C$DW$57, DW_AT_location[DW_OP_regx 0x2b]
     872              
     873              
     874              ;***************************************************************
     875              ;* FNAME: __signbitf                    FR SIZE:   0           *
     876              ;*                                                             *
     877              ;* FUNCTION ENVIRONMENT                                        *
     878              ;*                                                             *
     879              ;* FUNCTION PROPERTIES                                         *
     880              ;*                            0 Parameter,  0 Auto,  0 SOE     *
     881              ;***************************************************************
     882              
     883              ||__signbitf||:
     884              ;* R0    assigned to f
     885              $C$DW$58        .dwtag  DW_TAG_variable
TMS320C2000 Assembler PC v22.6.1 Thu Mar 28 17:35:23 2024

Copyright (c) 1996-2018 Texas Instruments Incorporated
llc.asm                                                              PAGE   18

     886                      .dwattr $C$DW$58, DW_AT_name("f")
     887                      .dwattr $C$DW$58, DW_AT_type(*$C$DW$T$102)
     888                      .dwattr $C$DW$58, DW_AT_location[DW_OP_regx 0x2b]
     889              
     890                      .dwcfi  cfa_offset, -2
     891                      .dwcfi  save_reg_to_mem, 26, 0
     892                      .dwpsn  file "C:/ti/ccs1250/ccs/tools/compiler/ti-cgt-c2000_22.6.1.LTS/include/_defs.h",line 366,colu
     893 00000000 BFA9          MOV32     ACC,R0H               ; [CPU_FPU] |366| 
         00000001 0F12 
     894 00000002 BE00          MOVB      XAR6,#0               ; [CPU_ALU] |366| 
     895 00000003 9000          ANDB      AL,#0                 ; [CPU_ALU] |366| 
     896 00000004 18A8          AND       AH,#32768             ; [CPU_ALU] |366| 
         00000005 8000 
     897 00000006 FF58          TEST      ACC                   ; [CPU_ALU] |366| 
     898 00000007 56B0          MOVB      XAR6,#1,NEQ           ; [CPU_ALU] |366| 
         00000008 01A6 
     899 00000009 92A6          MOV       AL,AR6                ; [CPU_ALU] |366| 
     900              $C$DW$59        .dwtag  DW_TAG_TI_branch
     901                      .dwattr $C$DW$59, DW_AT_low_pc(0x00)
     902                      .dwattr $C$DW$59, DW_AT_TI_return
     903              
     904 0000000a 0006          LRETR     ; [CPU_ALU] 
     905                      ; return occurs ; [] 
     906                      .dwattr $C$DW$56, DW_AT_TI_end_file("C:/ti/ccs1250/ccs/tools/compiler/ti-cgt-c2000_22.6.1.LTS/include
     907                      .dwattr $C$DW$56, DW_AT_TI_end_line(0x16e)
     908                      .dwattr $C$DW$56, DW_AT_TI_end_column(0x29)
     909                      .dwendentry
     910                      .dwendtag $C$DW$56
     911              
     912 00000000               .sect   ".text:__signbit"
     913                      .clink
     914                      .global ||__signbit||
     915              
     916              $C$DW$60        .dwtag  DW_TAG_subprogram
     917                      .dwattr $C$DW$60, DW_AT_name("__signbit")
     918                      .dwattr $C$DW$60, DW_AT_low_pc(||__signbit||)
     919                      .dwattr $C$DW$60, DW_AT_high_pc(0x00)
     920                      .dwattr $C$DW$60, DW_AT_linkage_name("__signbit")
     921                      .dwattr $C$DW$60, DW_AT_external
     922                      .dwattr $C$DW$60, DW_AT_type(*$C$DW$T$10)
     923                      .dwattr $C$DW$60, DW_AT_decl_file("C:/ti/ccs1250/ccs/tools/compiler/ti-cgt-c2000_22.6.1.LTS/include/_
     924                      .dwattr $C$DW$60, DW_AT_decl_line(0x16b)
     925                      .dwattr $C$DW$60, DW_AT_decl_column(0x18)
     926                      .dwattr $C$DW$60, DW_AT_TI_max_frame_size(-6)
     927                      .dwpsn  file "C:/ti/ccs1250/ccs/tools/compiler/ti-cgt-c2000_22.6.1.LTS/include/_defs.h",line 364,colu
     928              
     929                      .dwfde $C$DW$CIE, ||__signbit||
     930              $C$DW$61        .dwtag  DW_TAG_formal_parameter
     931                      .dwattr $C$DW$61, DW_AT_name("d")
     932                      .dwattr $C$DW$61, DW_AT_type(*$C$DW$T$107)
     933                      .dwattr $C$DW$61, DW_AT_location[DW_OP_reg12]
     934              
     935              
     936              ;***************************************************************
     937              ;* FNAME: __signbit                     FR SIZE:   4           *
TMS320C2000 Assembler PC v22.6.1 Thu Mar 28 17:35:23 2024

Copyright (c) 1996-2018 Texas Instruments Incorporated
llc.asm                                                              PAGE   19

     938              ;*                                                             *
     939              ;* FUNCTION ENVIRONMENT                                        *
     940              ;*                                                             *
     941              ;* FUNCTION PROPERTIES                                         *
     942              ;*                            4 Parameter,  0 Auto,  0 SOE     *
     943              ;***************************************************************
     944              
     945              ||__signbit||:
     946              ;* AR4   assigned to d
     947              $C$DW$62        .dwtag  DW_TAG_variable
     948                      .dwattr $C$DW$62, DW_AT_name("d")
     949                      .dwattr $C$DW$62, DW_AT_type(*$C$DW$T$108)
     950                      .dwattr $C$DW$62, DW_AT_location[DW_OP_reg12]
     951              
     952                      .dwcfi  cfa_offset, -2
     953                      .dwcfi  save_reg_to_mem, 26, 0
     954 00000000 FE04          ADDB      SP,#4                 ; [CPU_ARAU] 
     955                      .dwcfi  cfa_offset, -6
     956                      .dwpsn  file "C:/ti/ccs1250/ccs/tools/compiler/ti-cgt-c2000_22.6.1.LTS/include/_defs.h",line 364,colu
     957 00000001 0200          MOVB      ACC,#0                ; [CPU_ALU] |364| 
     958 00000002 1E44          MOVL      *-SP[4],ACC           ; [CPU_ALU] |364| 
     959 00000003 2B42          MOV       *-SP[2],#0            ; [CPU_ALU] |364| 
     960 00000004 2B41          MOV       *-SP[1],#0            ; [CPU_ALU] |364| 
     961 00000005 A3C4          MOVL      P,*+XAR4[0]           ; [CPU_ALU] |364| 
     962 00000006 06D4          MOVL      ACC,*+XAR4[2]         ; [CPU_ALU] |364| 
     963 00000007 18AB          AND       PL,#0                 ; [CPU_ALU] |364| 
         00000008 0000 
     964 00000009 18AA          AND       PH,#0                 ; [CPU_ALU] |364| 
         0000000a 0000 
     965 0000000b 9000          ANDB      AL,#0                 ; [CPU_ALU] |364| 
     966 0000000c 18A8          AND       AH,#32768             ; [CPU_ALU] |364| 
         0000000d 8000 
     967              $C$DW$63        .dwtag  DW_TAG_TI_branch
     968                      .dwattr $C$DW$63, DW_AT_low_pc(0x00)
     969                      .dwattr $C$DW$63, DW_AT_name("__c28xabi_cmpull")
     970                      .dwattr $C$DW$63, DW_AT_TI_call
     971              
     972 0000000e 7640!         LCR       #||__c28xabi_cmpull|| ; [CPU_ALU] |364| 
         0000000f 0000 
     973                      ; call occurs [#||__c28xabi_cmpull||] ; [] |364| 
     974 00000010 9B00          MOVB      AH,#0                 ; [CPU_ALU] |364| 
     975 00000011 5200          CMPB      AL,#0                 ; [CPU_ALU] |364| 
     976 00000012 56B0          MOVB      AH,#1,NEQ             ; [CPU_ALU] |364| 
         00000013 01A8 
     977 00000014 92A8          MOV       AL,AH                 ; [CPU_ALU] |364| 
     978 00000015 FE84          SUBB      SP,#4                 ; [CPU_ARAU] 
     979                      .dwcfi  cfa_offset, -2
     980              $C$DW$64        .dwtag  DW_TAG_TI_branch
     981                      .dwattr $C$DW$64, DW_AT_low_pc(0x00)
     982                      .dwattr $C$DW$64, DW_AT_TI_return
     983              
     984 00000016 0006          LRETR     ; [CPU_ALU] 
     985                      ; return occurs ; [] 
     986                      .dwattr $C$DW$60, DW_AT_TI_end_file("C:/ti/ccs1250/ccs/tools/compiler/ti-cgt-c2000_22.6.1.LTS/include
     987                      .dwattr $C$DW$60, DW_AT_TI_end_line(0x16c)
TMS320C2000 Assembler PC v22.6.1 Thu Mar 28 17:35:23 2024

Copyright (c) 1996-2018 Texas Instruments Incorporated
llc.asm                                                              PAGE   20

     988                      .dwattr $C$DW$60, DW_AT_TI_end_column(0x2a)
     989                      .dwendentry
     990                      .dwendtag $C$DW$60
     991              
     992 00000000               .sect   ".text:__relaxed_sqrtf"
     993                      .clink
     994                      .global ||__relaxed_sqrtf||
     995              
     996              $C$DW$65        .dwtag  DW_TAG_subprogram
     997                      .dwattr $C$DW$65, DW_AT_name("__relaxed_sqrtf")
     998                      .dwattr $C$DW$65, DW_AT_low_pc(||__relaxed_sqrtf||)
     999                      .dwattr $C$DW$65, DW_AT_high_pc(0x00)
    1000                      .dwattr $C$DW$65, DW_AT_linkage_name("__relaxed_sqrtf")
    1001                      .dwattr $C$DW$65, DW_AT_external
    1002                      .dwattr $C$DW$65, DW_AT_type(*$C$DW$T$16)
    1003                      .dwattr $C$DW$65, DW_AT_decl_file("C:/ti/ccs1250/ccs/tools/compiler/ti-cgt-c2000_22.6.1.LTS/include/m
    1004                      .dwattr $C$DW$65, DW_AT_decl_line(0x103)
    1005                      .dwattr $C$DW$65, DW_AT_decl_column(0x10)
    1006                      .dwattr $C$DW$65, DW_AT_TI_max_frame_size(-2)
    1007                      .dwpsn  file "C:/ti/ccs1250/ccs/tools/compiler/ti-cgt-c2000_22.6.1.LTS/include/math.h",line 260,colum
    1008              
    1009                      .dwfde $C$DW$CIE, ||__relaxed_sqrtf||
    1010              $C$DW$66        .dwtag  DW_TAG_formal_parameter
    1011                      .dwattr $C$DW$66, DW_AT_name("x")
    1012                      .dwattr $C$DW$66, DW_AT_type(*$C$DW$T$16)
    1013                      .dwattr $C$DW$66, DW_AT_location[DW_OP_regx 0x2b]
    1014              
    1015              
    1016              ;***************************************************************
    1017              ;* FNAME: __relaxed_sqrtf               FR SIZE:   0           *
    1018              ;*                                                             *
    1019              ;* FUNCTION ENVIRONMENT                                        *
    1020              ;*                                                             *
    1021              ;* FUNCTION PROPERTIES                                         *
    1022              ;*                            0 Parameter,  0 Auto,  0 SOE     *
    1023              ;***************************************************************
    1024              
    1025              ||__relaxed_sqrtf||:
    1026              ;* R0    assigned to x
    1027              $C$DW$67        .dwtag  DW_TAG_variable
    1028                      .dwattr $C$DW$67, DW_AT_name("x")
    1029                      .dwattr $C$DW$67, DW_AT_type(*$C$DW$T$102)
    1030                      .dwattr $C$DW$67, DW_AT_location[DW_OP_regx 0x2b]
    1031              
    1032                      .dwcfi  cfa_offset, -2
    1033                      .dwcfi  save_reg_to_mem, 26, 0
    1034                      .dwpsn  file "C:/ti/ccs1250/ccs/tools/compiler/ti-cgt-c2000_22.6.1.LTS/include/math.h",line 261,colum
    1035 00000000 E277          SQRTF32   R0H,R0H               ; [CPU_FPU] |261| 
         00000001 0000 
    1036 00000002 7700          NOP       ; [CPU_ALU] 
    1037 00000003 7700          NOP       ; [CPU_ALU] 
    1038 00000004 7700          NOP       ; [CPU_ALU] 
    1039              $C$DW$68        .dwtag  DW_TAG_TI_branch
    1040                      .dwattr $C$DW$68, DW_AT_low_pc(0x00)
    1041                      .dwattr $C$DW$68, DW_AT_TI_return
TMS320C2000 Assembler PC v22.6.1 Thu Mar 28 17:35:23 2024

Copyright (c) 1996-2018 Texas Instruments Incorporated
llc.asm                                                              PAGE   21

    1042              
    1043 00000005 0006          LRETR     ; [CPU_ALU] 
    1044                      ; return occurs ; [] 
    1045                      .dwattr $C$DW$65, DW_AT_TI_end_file("C:/ti/ccs1250/ccs/tools/compiler/ti-cgt-c2000_22.6.1.LTS/include
    1046                      .dwattr $C$DW$65, DW_AT_TI_end_line(0x106)
    1047                      .dwattr $C$DW$65, DW_AT_TI_end_column(0x01)
    1048                      .dwendentry
    1049                      .dwendtag $C$DW$65
    1050              
    1051 00000000               .sect   ".text:__relaxed_sinf"
    1052                      .clink
    1053                      .global ||__relaxed_sinf||
    1054              
    1055              $C$DW$69        .dwtag  DW_TAG_subprogram
    1056                      .dwattr $C$DW$69, DW_AT_name("__relaxed_sinf")
    1057                      .dwattr $C$DW$69, DW_AT_low_pc(||__relaxed_sinf||)
    1058                      .dwattr $C$DW$69, DW_AT_high_pc(0x00)
    1059                      .dwattr $C$DW$69, DW_AT_linkage_name("__relaxed_sinf")
    1060                      .dwattr $C$DW$69, DW_AT_external
    1061                      .dwattr $C$DW$69, DW_AT_type(*$C$DW$T$16)
    1062                      .dwattr $C$DW$69, DW_AT_decl_file("C:/ti/ccs1250/ccs/tools/compiler/ti-cgt-c2000_22.6.1.LTS/include/m
    1063                      .dwattr $C$DW$69, DW_AT_decl_line(0x108)
    1064                      .dwattr $C$DW$69, DW_AT_decl_column(0x10)
    1065                      .dwattr $C$DW$69, DW_AT_TI_max_frame_size(-2)
    1066                      .dwpsn  file "C:/ti/ccs1250/ccs/tools/compiler/ti-cgt-c2000_22.6.1.LTS/include/math.h",line 265,colum
    1067              
    1068                      .dwfde $C$DW$CIE, ||__relaxed_sinf||
    1069              $C$DW$70        .dwtag  DW_TAG_formal_parameter
    1070                      .dwattr $C$DW$70, DW_AT_name("x")
    1071                      .dwattr $C$DW$70, DW_AT_type(*$C$DW$T$16)
    1072                      .dwattr $C$DW$70, DW_AT_location[DW_OP_regx 0x2b]
    1073              
    1074              
    1075              ;***************************************************************
    1076              ;* FNAME: __relaxed_sinf                FR SIZE:   0           *
    1077              ;*                                                             *
    1078              ;* FUNCTION ENVIRONMENT                                        *
    1079              ;*                                                             *
    1080              ;* FUNCTION PROPERTIES                                         *
    1081              ;*                            0 Parameter,  0 Auto,  0 SOE     *
    1082              ;***************************************************************
    1083              
    1084              ||__relaxed_sinf||:
    1085              ;* R0    assigned to x
    1086              $C$DW$71        .dwtag  DW_TAG_variable
    1087                      .dwattr $C$DW$71, DW_AT_name("x")
    1088                      .dwattr $C$DW$71, DW_AT_type(*$C$DW$T$102)
    1089                      .dwattr $C$DW$71, DW_AT_location[DW_OP_regx 0x2b]
    1090              
    1091                      .dwcfi  cfa_offset, -2
    1092                      .dwcfi  save_reg_to_mem, 26, 0
    1093                      .dwpsn  file "C:/ti/ccs1250/ccs/tools/compiler/ti-cgt-c2000_22.6.1.LTS/include/math.h",line 266,colum
    1094 00000000 E271          DIV2PIF32 R0H,R0H               ; [CPU_FPU] |266| 
         00000001 0000 
    1095 00000002 7700          NOP       ; [CPU_ALU] 
TMS320C2000 Assembler PC v22.6.1 Thu Mar 28 17:35:23 2024

Copyright (c) 1996-2018 Texas Instruments Incorporated
llc.asm                                                              PAGE   22

    1096 00000003 E278          SINPUF32  R0H,R0H               ; [CPU_FPU] |266| 
         00000004 0000 
    1097 00000005 7700          NOP       ; [CPU_ALU] 
    1098 00000006 7700          NOP       ; [CPU_ALU] 
    1099              $C$DW$72        .dwtag  DW_TAG_TI_branch
    1100                      .dwattr $C$DW$72, DW_AT_low_pc(0x00)
    1101                      .dwattr $C$DW$72, DW_AT_TI_return
    1102              
    1103 00000007 0006          LRETR     ; [CPU_ALU] 
    1104                      ; return occurs ; [] 
    1105                      .dwattr $C$DW$69, DW_AT_TI_end_file("C:/ti/ccs1250/ccs/tools/compiler/ti-cgt-c2000_22.6.1.LTS/include
    1106                      .dwattr $C$DW$69, DW_AT_TI_end_line(0x10b)
    1107                      .dwattr $C$DW$69, DW_AT_TI_end_column(0x01)
    1108                      .dwendentry
    1109                      .dwendtag $C$DW$69
    1110              
    1111 00000000               .sect   ".text:__relaxed_powf"
    1112                      .clink
    1113                      .global ||__relaxed_powf||
    1114              
    1115              $C$DW$73        .dwtag  DW_TAG_subprogram
    1116                      .dwattr $C$DW$73, DW_AT_name("__relaxed_powf")
    1117                      .dwattr $C$DW$73, DW_AT_low_pc(||__relaxed_powf||)
    1118                      .dwattr $C$DW$73, DW_AT_high_pc(0x00)
    1119                      .dwattr $C$DW$73, DW_AT_linkage_name("__relaxed_powf")
    1120                      .dwattr $C$DW$73, DW_AT_external
    1121                      .dwattr $C$DW$73, DW_AT_type(*$C$DW$T$16)
    1122                      .dwattr $C$DW$73, DW_AT_decl_file("C:/ti/ccs1250/ccs/tools/compiler/ti-cgt-c2000_22.6.1.LTS/include/m
    1123                      .dwattr $C$DW$73, DW_AT_decl_line(0x139)
    1124                      .dwattr $C$DW$73, DW_AT_decl_column(0x10)
    1125                      .dwattr $C$DW$73, DW_AT_TI_max_frame_size(-4)
    1126                      .dwpsn  file "C:/ti/ccs1250/ccs/tools/compiler/ti-cgt-c2000_22.6.1.LTS/include/math.h",line 314,colum
    1127              
    1128                      .dwfde $C$DW$CIE, ||__relaxed_powf||
    1129              $C$DW$74        .dwtag  DW_TAG_formal_parameter
    1130                      .dwattr $C$DW$74, DW_AT_name("x")
    1131                      .dwattr $C$DW$74, DW_AT_type(*$C$DW$T$16)
    1132                      .dwattr $C$DW$74, DW_AT_location[DW_OP_regx 0x2b]
    1133              
    1134              $C$DW$75        .dwtag  DW_TAG_formal_parameter
    1135                      .dwattr $C$DW$75, DW_AT_name("y")
    1136                      .dwattr $C$DW$75, DW_AT_type(*$C$DW$T$16)
    1137                      .dwattr $C$DW$75, DW_AT_location[DW_OP_regx 0x2f]
    1138              
    1139              
    1140              ;***************************************************************
    1141              ;* FNAME: __relaxed_powf                FR SIZE:   2           *
    1142              ;*                                                             *
    1143              ;* FUNCTION ENVIRONMENT                                        *
    1144              ;*                                                             *
    1145              ;* FUNCTION PROPERTIES                                         *
    1146              ;*                            2 Parameter,  0 Auto,  0 SOE     *
    1147              ;***************************************************************
    1148              
    1149              ||__relaxed_powf||:
TMS320C2000 Assembler PC v22.6.1 Thu Mar 28 17:35:23 2024

Copyright (c) 1996-2018 Texas Instruments Incorporated
llc.asm                                                              PAGE   23

    1150              ;* R1    assigned to $O$C1
    1151              ;* R0    assigned to $O$K6
    1152              ;* R0    assigned to x
    1153              $C$DW$76        .dwtag  DW_TAG_variable
    1154                      .dwattr $C$DW$76, DW_AT_name("x")
    1155                      .dwattr $C$DW$76, DW_AT_type(*$C$DW$T$102)
    1156                      .dwattr $C$DW$76, DW_AT_location[DW_OP_regx 0x2b]
    1157              
    1158              ;* R1    assigned to y
    1159              $C$DW$77        .dwtag  DW_TAG_variable
    1160                      .dwattr $C$DW$77, DW_AT_name("y")
    1161                      .dwattr $C$DW$77, DW_AT_type(*$C$DW$T$102)
    1162                      .dwattr $C$DW$77, DW_AT_location[DW_OP_regx 0x2f]
    1163              
    1164              ;* R0    assigned to exp2foflog2ofxtimesy
    1165              $C$DW$78        .dwtag  DW_TAG_variable
    1166                      .dwattr $C$DW$78, DW_AT_name("exp2foflog2ofxtimesy")
    1167                      .dwattr $C$DW$78, DW_AT_type(*$C$DW$T$16)
    1168                      .dwattr $C$DW$78, DW_AT_location[DW_OP_regx 0x2b]
    1169              
    1170                      .dwcfi  cfa_offset, -2
    1171                      .dwcfi  save_reg_to_mem, 26, 0
    1172 00000000 FE02          ADDB      SP,#2                 ; [CPU_ARAU] 
    1173                      .dwcfi  cfa_offset, -4
    1174                      .dwpsn  file "C:/ti/ccs1250/ccs/tools/compiler/ti-cgt-c2000_22.6.1.LTS/include/math.h",line 298,colum
    1175 00000001 E272          LOG2F32   R0H,R0H               ; [CPU_FPU] |298| 
         00000002 0000 
    1176 00000003 7700          NOP       ; [CPU_ALU] 
    1177 00000004 7700          NOP       ; [CPU_ALU] 
    1178 00000005 7700          NOP       ; [CPU_ALU] 
    1179 00000006 E700          MPYF32    R1H,R1H,R0H           ; [CPU_FPU] |298| 
         00000007 0009 
    1180 00000008 7700          NOP       ; [CPU_ALU] 
    1181 00000009 7700          NOP       ; [CPU_ALU] 
    1182 0000000a E273          IEXP2F32  R0H,R1H               ; [CPU_FPU] |298| 
         0000000b 0008 
    1183 0000000c E801          MOVIZ     R2H,#16256            ; [CPU_FPU] |298| 
         0000000d FC02 
    1184                      .dwpsn  file "C:/ti/ccs1250/ccs/tools/compiler/ti-cgt-c2000_22.6.1.LTS/include/math.h",line 320,colum
    1185 0000000e E5A1          CMPF32    R1H,#0                ; [CPU_FPU] |320| 
    1186 0000000f AD14          MOVST0    ZF, NF                ; [CPU_FPU] |320| 
    1187                      .dwpsn  file "C:/ti/ccs1250/ccs/tools/compiler/ti-cgt-c2000_22.6.1.LTS/include/math.h",line 298,colum
    1188 00000010 E274          DIVF32    R0H,R2H,R0H           ; [CPU_FPU] |298| 
         00000011 0010 
    1189                      .dwpsn  file "C:/ti/ccs1250/ccs/tools/compiler/ti-cgt-c2000_22.6.1.LTS/include/math.h",line 320,colum
    1190 00000012 6207          B         ||$C$L1||,GT          ; [CPU_ALU] |320| 
    1191                      ; branchcc occurs ; [] |320| 
    1192 00000013 E801          MOVIZ     R1H,#16256            ; [CPU_FPU] |320| 
         00000014 FC01 
    1193 00000015 E274          DIVF32    R0H,R1H,R0H           ; [CPU_FPU] |320| 
         00000016 0008 
    1194 00000017 7700          NOP       ; [CPU_ALU] 
    1195 00000018 7700          NOP       ; [CPU_ALU] 
    1196 00000019       ||$C$L1||:    
    1197 00000019 FE82          SUBB      SP,#2                 ; [CPU_ARAU] 
TMS320C2000 Assembler PC v22.6.1 Thu Mar 28 17:35:23 2024

Copyright (c) 1996-2018 Texas Instruments Incorporated
llc.asm                                                              PAGE   24

    1198                      .dwcfi  cfa_offset, -2
    1199              $C$DW$79        .dwtag  DW_TAG_TI_branch
    1200                      .dwattr $C$DW$79, DW_AT_low_pc(0x00)
    1201                      .dwattr $C$DW$79, DW_AT_TI_return
    1202              
    1203 0000001a 0006          LRETR     ; [CPU_ALU] 
    1204                      ; return occurs ; [] 
    1205                      .dwattr $C$DW$73, DW_AT_TI_end_file("C:/ti/ccs1250/ccs/tools/compiler/ti-cgt-c2000_22.6.1.LTS/include
    1206                      .dwattr $C$DW$73, DW_AT_TI_end_line(0x141)
    1207                      .dwattr $C$DW$73, DW_AT_TI_end_column(0x01)
    1208                      .dwendentry
    1209                      .dwendtag $C$DW$73
    1210              
    1211 00000000               .sect   ".text:__relaxed_logf"
    1212                      .clink
    1213                      .global ||__relaxed_logf||
    1214              
    1215              $C$DW$80        .dwtag  DW_TAG_subprogram
    1216                      .dwattr $C$DW$80, DW_AT_name("__relaxed_logf")
    1217                      .dwattr $C$DW$80, DW_AT_low_pc(||__relaxed_logf||)
    1218                      .dwattr $C$DW$80, DW_AT_high_pc(0x00)
    1219                      .dwattr $C$DW$80, DW_AT_linkage_name("__relaxed_logf")
    1220                      .dwattr $C$DW$80, DW_AT_external
    1221                      .dwattr $C$DW$80, DW_AT_type(*$C$DW$T$16)
    1222                      .dwattr $C$DW$80, DW_AT_decl_file("C:/ti/ccs1250/ccs/tools/compiler/ti-cgt-c2000_22.6.1.LTS/include/m
    1223                      .dwattr $C$DW$80, DW_AT_decl_line(0x133)
    1224                      .dwattr $C$DW$80, DW_AT_decl_column(0x10)
    1225                      .dwattr $C$DW$80, DW_AT_TI_max_frame_size(-2)
    1226                      .dwpsn  file "C:/ti/ccs1250/ccs/tools/compiler/ti-cgt-c2000_22.6.1.LTS/include/math.h",line 308,colum
    1227              
    1228                      .dwfde $C$DW$CIE, ||__relaxed_logf||
    1229              $C$DW$81        .dwtag  DW_TAG_formal_parameter
    1230                      .dwattr $C$DW$81, DW_AT_name("x")
    1231                      .dwattr $C$DW$81, DW_AT_type(*$C$DW$T$16)
    1232                      .dwattr $C$DW$81, DW_AT_location[DW_OP_regx 0x2b]
    1233              
    1234              
    1235              ;***************************************************************
    1236              ;* FNAME: __relaxed_logf                FR SIZE:   0           *
    1237              ;*                                                             *
    1238              ;* FUNCTION ENVIRONMENT                                        *
    1239              ;*                                                             *
    1240              ;* FUNCTION PROPERTIES                                         *
    1241              ;*                            0 Parameter,  0 Auto,  0 SOE     *
    1242              ;***************************************************************
    1243              
    1244              ||__relaxed_logf||:
    1245              ;* R0    assigned to x
    1246              $C$DW$82        .dwtag  DW_TAG_variable
    1247                      .dwattr $C$DW$82, DW_AT_name("x")
    1248                      .dwattr $C$DW$82, DW_AT_type(*$C$DW$T$102)
    1249                      .dwattr $C$DW$82, DW_AT_location[DW_OP_regx 0x2b]
    1250              
    1251                      .dwcfi  cfa_offset, -2
    1252                      .dwcfi  save_reg_to_mem, 26, 0
TMS320C2000 Assembler PC v22.6.1 Thu Mar 28 17:35:23 2024

Copyright (c) 1996-2018 Texas Instruments Incorporated
llc.asm                                                              PAGE   25

    1253                      .dwpsn  file "C:/ti/ccs1250/ccs/tools/compiler/ti-cgt-c2000_22.6.1.LTS/include/math.h",line 310,colum
    1254 00000000 E272          LOG2F32   R1H,R0H               ; [CPU_FPU] |310| 
         00000001 0001 
    1255 00000002 7700          NOP       ; [CPU_ALU] 
    1256 00000003 E801          MOVIZ     R0H,#16177            ; [CPU_FPU] |310| 
         00000004 F988 
    1257 00000005 E80B          MOVXI     R0H,#29205            ; [CPU_FPU] |310| 
         00000006 90A8 
    1258 00000007 E700          MPYF32    R0H,R0H,R1H           ; [CPU_FPU] |310| 
         00000008 0040 
    1259              $C$DW$83        .dwtag  DW_TAG_TI_branch
    1260                      .dwattr $C$DW$83, DW_AT_low_pc(0x00)
    1261                      .dwattr $C$DW$83, DW_AT_TI_return
    1262              
    1263 00000009 0006          LRETR     ; [CPU_ALU] 
    1264                      ; return occurs ; [] 
    1265                      .dwattr $C$DW$80, DW_AT_TI_end_file("C:/ti/ccs1250/ccs/tools/compiler/ti-cgt-c2000_22.6.1.LTS/include
    1266                      .dwattr $C$DW$80, DW_AT_TI_end_line(0x137)
    1267                      .dwattr $C$DW$80, DW_AT_TI_end_column(0x01)
    1268                      .dwendentry
    1269                      .dwendtag $C$DW$80
    1270              
    1271 00000000               .sect   ".text:__relaxed_log2f"
    1272                      .clink
    1273                      .global ||__relaxed_log2f||
    1274              
    1275              $C$DW$84        .dwtag  DW_TAG_subprogram
    1276                      .dwattr $C$DW$84, DW_AT_name("__relaxed_log2f")
    1277                      .dwattr $C$DW$84, DW_AT_low_pc(||__relaxed_log2f||)
    1278                      .dwattr $C$DW$84, DW_AT_high_pc(0x00)
    1279                      .dwattr $C$DW$84, DW_AT_linkage_name("__relaxed_log2f")
    1280                      .dwattr $C$DW$84, DW_AT_external
    1281                      .dwattr $C$DW$84, DW_AT_type(*$C$DW$T$16)
    1282                      .dwattr $C$DW$84, DW_AT_decl_file("C:/ti/ccs1250/ccs/tools/compiler/ti-cgt-c2000_22.6.1.LTS/include/m
    1283                      .dwattr $C$DW$84, DW_AT_decl_line(0x123)
    1284                      .dwattr $C$DW$84, DW_AT_decl_column(0x10)
    1285                      .dwattr $C$DW$84, DW_AT_TI_max_frame_size(-2)
    1286                      .dwpsn  file "C:/ti/ccs1250/ccs/tools/compiler/ti-cgt-c2000_22.6.1.LTS/include/math.h",line 292,colum
    1287              
    1288                      .dwfde $C$DW$CIE, ||__relaxed_log2f||
    1289              $C$DW$85        .dwtag  DW_TAG_formal_parameter
    1290                      .dwattr $C$DW$85, DW_AT_name("x")
    1291                      .dwattr $C$DW$85, DW_AT_type(*$C$DW$T$16)
    1292                      .dwattr $C$DW$85, DW_AT_location[DW_OP_regx 0x2b]
    1293              
    1294              
    1295              ;***************************************************************
    1296              ;* FNAME: __relaxed_log2f               FR SIZE:   0           *
    1297              ;*                                                             *
    1298              ;* FUNCTION ENVIRONMENT                                        *
    1299              ;*                                                             *
    1300              ;* FUNCTION PROPERTIES                                         *
    1301              ;*                            0 Parameter,  0 Auto,  0 SOE     *
    1302              ;***************************************************************
    1303              
TMS320C2000 Assembler PC v22.6.1 Thu Mar 28 17:35:23 2024

Copyright (c) 1996-2018 Texas Instruments Incorporated
llc.asm                                                              PAGE   26

    1304              ||__relaxed_log2f||:
    1305              ;* R0    assigned to x
    1306              $C$DW$86        .dwtag  DW_TAG_variable
    1307                      .dwattr $C$DW$86, DW_AT_name("x")
    1308                      .dwattr $C$DW$86, DW_AT_type(*$C$DW$T$102)
    1309                      .dwattr $C$DW$86, DW_AT_location[DW_OP_regx 0x2b]
    1310              
    1311                      .dwcfi  cfa_offset, -2
    1312                      .dwcfi  save_reg_to_mem, 26, 0
    1313                      .dwpsn  file "C:/ti/ccs1250/ccs/tools/compiler/ti-cgt-c2000_22.6.1.LTS/include/math.h",line 293,colum
    1314 00000000 E272          LOG2F32   R0H,R0H               ; [CPU_FPU] |293| 
         00000001 0000 
    1315 00000002 7700          NOP       ; [CPU_ALU] 
    1316 00000003 7700          NOP       ; [CPU_ALU] 
    1317              $C$DW$87        .dwtag  DW_TAG_TI_branch
    1318                      .dwattr $C$DW$87, DW_AT_low_pc(0x00)
    1319                      .dwattr $C$DW$87, DW_AT_TI_return
    1320              
    1321 00000004 0006          LRETR     ; [CPU_ALU] 
    1322                      ; return occurs ; [] 
    1323                      .dwattr $C$DW$84, DW_AT_TI_end_file("C:/ti/ccs1250/ccs/tools/compiler/ti-cgt-c2000_22.6.1.LTS/include
    1324                      .dwattr $C$DW$84, DW_AT_TI_end_line(0x126)
    1325                      .dwattr $C$DW$84, DW_AT_TI_end_column(0x01)
    1326                      .dwendentry
    1327                      .dwendtag $C$DW$84
    1328              
    1329 00000000               .sect   ".text:__relaxed_fmodf"
    1330                      .clink
    1331                      .global ||__relaxed_fmodf||
    1332              
    1333              $C$DW$88        .dwtag  DW_TAG_subprogram
    1334                      .dwattr $C$DW$88, DW_AT_name("__relaxed_fmodf")
    1335                      .dwattr $C$DW$88, DW_AT_low_pc(||__relaxed_fmodf||)
    1336                      .dwattr $C$DW$88, DW_AT_high_pc(0x00)
    1337                      .dwattr $C$DW$88, DW_AT_linkage_name("__relaxed_fmodf")
    1338                      .dwattr $C$DW$88, DW_AT_external
    1339                      .dwattr $C$DW$88, DW_AT_type(*$C$DW$T$16)
    1340                      .dwattr $C$DW$88, DW_AT_decl_file("C:/ti/ccs1250/ccs/tools/compiler/ti-cgt-c2000_22.6.1.LTS/include/m
    1341                      .dwattr $C$DW$88, DW_AT_decl_line(0x11c)
    1342                      .dwattr $C$DW$88, DW_AT_decl_column(0x10)
    1343                      .dwattr $C$DW$88, DW_AT_TI_max_frame_size(-2)
    1344                      .dwpsn  file "C:/ti/ccs1250/ccs/tools/compiler/ti-cgt-c2000_22.6.1.LTS/include/math.h",line 285,colum
    1345              
    1346                      .dwfde $C$DW$CIE, ||__relaxed_fmodf||
    1347              $C$DW$89        .dwtag  DW_TAG_formal_parameter
    1348                      .dwattr $C$DW$89, DW_AT_name("y")
    1349                      .dwattr $C$DW$89, DW_AT_type(*$C$DW$T$16)
    1350                      .dwattr $C$DW$89, DW_AT_location[DW_OP_regx 0x2b]
    1351              
    1352              $C$DW$90        .dwtag  DW_TAG_formal_parameter
    1353                      .dwattr $C$DW$90, DW_AT_name("x")
    1354                      .dwattr $C$DW$90, DW_AT_type(*$C$DW$T$16)
    1355                      .dwattr $C$DW$90, DW_AT_location[DW_OP_regx 0x2f]
    1356              
    1357              
TMS320C2000 Assembler PC v22.6.1 Thu Mar 28 17:35:23 2024

Copyright (c) 1996-2018 Texas Instruments Incorporated
llc.asm                                                              PAGE   27

    1358              ;***************************************************************
    1359              ;* FNAME: __relaxed_fmodf               FR SIZE:   0           *
    1360              ;*                                                             *
    1361              ;* FUNCTION ENVIRONMENT                                        *
    1362              ;*                                                             *
    1363              ;* FUNCTION PROPERTIES                                         *
    1364              ;*                            0 Parameter,  0 Auto,  0 SOE     *
    1365              ;***************************************************************
    1366              
    1367              ||__relaxed_fmodf||:
    1368              ;* R0    assigned to y
    1369              $C$DW$91        .dwtag  DW_TAG_variable
    1370                      .dwattr $C$DW$91, DW_AT_name("y")
    1371                      .dwattr $C$DW$91, DW_AT_type(*$C$DW$T$102)
    1372                      .dwattr $C$DW$91, DW_AT_location[DW_OP_regx 0x2b]
    1373              
    1374              ;* R1    assigned to x
    1375              $C$DW$92        .dwtag  DW_TAG_variable
    1376                      .dwattr $C$DW$92, DW_AT_name("x")
    1377                      .dwattr $C$DW$92, DW_AT_type(*$C$DW$T$102)
    1378                      .dwattr $C$DW$92, DW_AT_location[DW_OP_regx 0x2f]
    1379              
    1380                      .dwcfi  cfa_offset, -2
    1381                      .dwcfi  save_reg_to_mem, 26, 0
    1382                      .dwpsn  file "C:/ti/ccs1250/ccs/tools/compiler/ti-cgt-c2000_22.6.1.LTS/include/math.h",line 286,colum
    1383 00000000 E274          DIVF32    R2H,R0H,R1H           ; [CPU_FPU] |286| 
         00000001 0042 
    1384 00000002 7700          NOP       ; [CPU_ALU] 
    1385 00000003 7700          NOP       ; [CPU_ALU] 
    1386 00000004 7700          NOP       ; [CPU_ALU] 
    1387 00000005 7700          NOP       ; [CPU_ALU] 
    1388 00000006 E688          F32TOI32  R2H,R2H               ; [CPU_FPU] |286| 
         00000007 0012 
    1389 00000008 7700          NOP       ; [CPU_ALU] 
    1390 00000009 E689          I32TOF32  R2H,R2H               ; [CPU_FPU] |286| 
         0000000a 0012 
    1391 0000000b 7700          NOP       ; [CPU_ALU] 
    1392 0000000c E700          MPYF32    R1H,R1H,R2H           ; [CPU_FPU] |286| 
         0000000d 0089 
    1393 0000000e 7700          NOP       ; [CPU_ALU] 
    1394 0000000f E720          SUBF32    R0H,R0H,R1H           ; [CPU_FPU] |286| 
         00000010 0040 
    1395              $C$DW$93        .dwtag  DW_TAG_TI_branch
    1396                      .dwattr $C$DW$93, DW_AT_low_pc(0x00)
    1397                      .dwattr $C$DW$93, DW_AT_TI_return
    1398              
    1399 00000011 0006          LRETR     ; [CPU_ALU] 
    1400                      ; return occurs ; [] 
    1401                      .dwattr $C$DW$88, DW_AT_TI_end_file("C:/ti/ccs1250/ccs/tools/compiler/ti-cgt-c2000_22.6.1.LTS/include
    1402                      .dwattr $C$DW$88, DW_AT_TI_end_line(0x11f)
    1403                      .dwattr $C$DW$88, DW_AT_TI_end_column(0x01)
    1404                      .dwendentry
    1405                      .dwendtag $C$DW$88
    1406              
    1407 00000000               .sect   ".text:__relaxed_fminf"
TMS320C2000 Assembler PC v22.6.1 Thu Mar 28 17:35:23 2024

Copyright (c) 1996-2018 Texas Instruments Incorporated
llc.asm                                                              PAGE   28

    1408                      .clink
    1409                      .global ||__relaxed_fminf||
    1410              
    1411              $C$DW$94        .dwtag  DW_TAG_subprogram
    1412                      .dwattr $C$DW$94, DW_AT_name("__relaxed_fminf")
    1413                      .dwattr $C$DW$94, DW_AT_low_pc(||__relaxed_fminf||)
    1414                      .dwattr $C$DW$94, DW_AT_high_pc(0x00)
    1415                      .dwattr $C$DW$94, DW_AT_linkage_name("__relaxed_fminf")
    1416                      .dwattr $C$DW$94, DW_AT_external
    1417                      .dwattr $C$DW$94, DW_AT_type(*$C$DW$T$16)
    1418                      .dwattr $C$DW$94, DW_AT_decl_file("C:/ti/ccs1250/ccs/tools/compiler/ti-cgt-c2000_22.6.1.LTS/include/m
    1419                      .dwattr $C$DW$94, DW_AT_decl_line(0xee)
    1420                      .dwattr $C$DW$94, DW_AT_decl_column(0x10)
    1421                      .dwattr $C$DW$94, DW_AT_TI_max_frame_size(-2)
    1422                      .dwpsn  file "C:/ti/ccs1250/ccs/tools/compiler/ti-cgt-c2000_22.6.1.LTS/include/math.h",line 239,colum
    1423              
    1424                      .dwfde $C$DW$CIE, ||__relaxed_fminf||
    1425              $C$DW$95        .dwtag  DW_TAG_formal_parameter
    1426                      .dwattr $C$DW$95, DW_AT_name("x")
    1427                      .dwattr $C$DW$95, DW_AT_type(*$C$DW$T$16)
    1428                      .dwattr $C$DW$95, DW_AT_location[DW_OP_regx 0x2b]
    1429              
    1430              $C$DW$96        .dwtag  DW_TAG_formal_parameter
    1431                      .dwattr $C$DW$96, DW_AT_name("y")
    1432                      .dwattr $C$DW$96, DW_AT_type(*$C$DW$T$16)
    1433                      .dwattr $C$DW$96, DW_AT_location[DW_OP_regx 0x2f]
    1434              
    1435              
    1436              ;***************************************************************
    1437              ;* FNAME: __relaxed_fminf               FR SIZE:   0           *
    1438              ;*                                                             *
    1439              ;* FUNCTION ENVIRONMENT                                        *
    1440              ;*                                                             *
    1441              ;* FUNCTION PROPERTIES                                         *
    1442              ;*                            0 Parameter,  0 Auto,  0 SOE     *
    1443              ;***************************************************************
    1444              
    1445              ||__relaxed_fminf||:
    1446              ;* R1    assigned to y
    1447              $C$DW$97        .dwtag  DW_TAG_variable
    1448                      .dwattr $C$DW$97, DW_AT_name("y")
    1449                      .dwattr $C$DW$97, DW_AT_type(*$C$DW$T$102)
    1450                      .dwattr $C$DW$97, DW_AT_location[DW_OP_regx 0x2f]
    1451              
    1452                      .dwcfi  cfa_offset, -2
    1453                      .dwcfi  save_reg_to_mem, 26, 0
    1454                      .dwpsn  file "C:/ti/ccs1250/ccs/tools/compiler/ti-cgt-c2000_22.6.1.LTS/include/math.h",line 240,colum
    1455 00000000 E697          MINF32    R0H,R1H               ; [CPU_FPU] |240| 
         00000001 0008 
    1456              $C$DW$98        .dwtag  DW_TAG_TI_branch
    1457                      .dwattr $C$DW$98, DW_AT_low_pc(0x00)
    1458                      .dwattr $C$DW$98, DW_AT_TI_return
    1459              
    1460 00000002 0006          LRETR     ; [CPU_ALU] 
    1461                      ; return occurs ; [] 
TMS320C2000 Assembler PC v22.6.1 Thu Mar 28 17:35:23 2024

Copyright (c) 1996-2018 Texas Instruments Incorporated
llc.asm                                                              PAGE   29

    1462                      .dwattr $C$DW$94, DW_AT_TI_end_file("C:/ti/ccs1250/ccs/tools/compiler/ti-cgt-c2000_22.6.1.LTS/include
    1463                      .dwattr $C$DW$94, DW_AT_TI_end_line(0xf1)
    1464                      .dwattr $C$DW$94, DW_AT_TI_end_column(0x01)
    1465                      .dwendentry
    1466                      .dwendtag $C$DW$94
    1467              
    1468 00000000               .sect   ".text:__relaxed_fmaxf"
    1469                      .clink
    1470                      .global ||__relaxed_fmaxf||
    1471              
    1472              $C$DW$99        .dwtag  DW_TAG_subprogram
    1473                      .dwattr $C$DW$99, DW_AT_name("__relaxed_fmaxf")
    1474                      .dwattr $C$DW$99, DW_AT_low_pc(||__relaxed_fmaxf||)
    1475                      .dwattr $C$DW$99, DW_AT_high_pc(0x00)
    1476                      .dwattr $C$DW$99, DW_AT_linkage_name("__relaxed_fmaxf")
    1477                      .dwattr $C$DW$99, DW_AT_external
    1478                      .dwattr $C$DW$99, DW_AT_type(*$C$DW$T$16)
    1479                      .dwattr $C$DW$99, DW_AT_decl_file("C:/ti/ccs1250/ccs/tools/compiler/ti-cgt-c2000_22.6.1.LTS/include/m
    1480                      .dwattr $C$DW$99, DW_AT_decl_line(0xe8)
    1481                      .dwattr $C$DW$99, DW_AT_decl_column(0x10)
    1482                      .dwattr $C$DW$99, DW_AT_TI_max_frame_size(-2)
    1483                      .dwpsn  file "C:/ti/ccs1250/ccs/tools/compiler/ti-cgt-c2000_22.6.1.LTS/include/math.h",line 233,colum
    1484              
    1485                      .dwfde $C$DW$CIE, ||__relaxed_fmaxf||
    1486              $C$DW$100       .dwtag  DW_TAG_formal_parameter
    1487                      .dwattr $C$DW$100, DW_AT_name("x")
    1488                      .dwattr $C$DW$100, DW_AT_type(*$C$DW$T$16)
    1489                      .dwattr $C$DW$100, DW_AT_location[DW_OP_regx 0x2b]
    1490              
    1491              $C$DW$101       .dwtag  DW_TAG_formal_parameter
    1492                      .dwattr $C$DW$101, DW_AT_name("y")
    1493                      .dwattr $C$DW$101, DW_AT_type(*$C$DW$T$16)
    1494                      .dwattr $C$DW$101, DW_AT_location[DW_OP_regx 0x2f]
    1495              
    1496              
    1497              ;***************************************************************
    1498              ;* FNAME: __relaxed_fmaxf               FR SIZE:   0           *
    1499              ;*                                                             *
    1500              ;* FUNCTION ENVIRONMENT                                        *
    1501              ;*                                                             *
    1502              ;* FUNCTION PROPERTIES                                         *
    1503              ;*                            0 Parameter,  0 Auto,  0 SOE     *
    1504              ;***************************************************************
    1505              
    1506              ||__relaxed_fmaxf||:
    1507              ;* R1    assigned to y
    1508              $C$DW$102       .dwtag  DW_TAG_variable
    1509                      .dwattr $C$DW$102, DW_AT_name("y")
    1510                      .dwattr $C$DW$102, DW_AT_type(*$C$DW$T$102)
    1511                      .dwattr $C$DW$102, DW_AT_location[DW_OP_regx 0x2f]
    1512              
    1513                      .dwcfi  cfa_offset, -2
    1514                      .dwcfi  save_reg_to_mem, 26, 0
    1515                      .dwpsn  file "C:/ti/ccs1250/ccs/tools/compiler/ti-cgt-c2000_22.6.1.LTS/include/math.h",line 234,colum
    1516 00000000 E696          MAXF32    R0H,R1H               ; [CPU_FPU] |234| 
TMS320C2000 Assembler PC v22.6.1 Thu Mar 28 17:35:23 2024

Copyright (c) 1996-2018 Texas Instruments Incorporated
llc.asm                                                              PAGE   30

         00000001 0008 
    1517              $C$DW$103       .dwtag  DW_TAG_TI_branch
    1518                      .dwattr $C$DW$103, DW_AT_low_pc(0x00)
    1519                      .dwattr $C$DW$103, DW_AT_TI_return
    1520              
    1521 00000002 0006          LRETR     ; [CPU_ALU] 
    1522                      ; return occurs ; [] 
    1523                      .dwattr $C$DW$99, DW_AT_TI_end_file("C:/ti/ccs1250/ccs/tools/compiler/ti-cgt-c2000_22.6.1.LTS/include
    1524                      .dwattr $C$DW$99, DW_AT_TI_end_line(0xeb)
    1525                      .dwattr $C$DW$99, DW_AT_TI_end_column(0x01)
    1526                      .dwendentry
    1527                      .dwendtag $C$DW$99
    1528              
    1529 00000000               .sect   ".text:__relaxed_expf"
    1530                      .clink
    1531                      .global ||__relaxed_expf||
    1532              
    1533              $C$DW$104       .dwtag  DW_TAG_subprogram
    1534                      .dwattr $C$DW$104, DW_AT_name("__relaxed_expf")
    1535                      .dwattr $C$DW$104, DW_AT_low_pc(||__relaxed_expf||)
    1536                      .dwattr $C$DW$104, DW_AT_high_pc(0x00)
    1537                      .dwattr $C$DW$104, DW_AT_linkage_name("__relaxed_expf")
    1538                      .dwattr $C$DW$104, DW_AT_external
    1539                      .dwattr $C$DW$104, DW_AT_type(*$C$DW$T$16)
    1540                      .dwattr $C$DW$104, DW_AT_decl_file("C:/ti/ccs1250/ccs/tools/compiler/ti-cgt-c2000_22.6.1.LTS/include/
    1541                      .dwattr $C$DW$104, DW_AT_decl_line(0x12d)
    1542                      .dwattr $C$DW$104, DW_AT_decl_column(0x10)
    1543                      .dwattr $C$DW$104, DW_AT_TI_max_frame_size(-2)
    1544                      .dwpsn  file "C:/ti/ccs1250/ccs/tools/compiler/ti-cgt-c2000_22.6.1.LTS/include/math.h",line 302,colum
    1545              
    1546                      .dwfde $C$DW$CIE, ||__relaxed_expf||
    1547              $C$DW$105       .dwtag  DW_TAG_formal_parameter
    1548                      .dwattr $C$DW$105, DW_AT_name("x")
    1549                      .dwattr $C$DW$105, DW_AT_type(*$C$DW$T$16)
    1550                      .dwattr $C$DW$105, DW_AT_location[DW_OP_regx 0x2b]
    1551              
    1552              
    1553              ;***************************************************************
    1554              ;* FNAME: __relaxed_expf                FR SIZE:   0           *
    1555              ;*                                                             *
    1556              ;* FUNCTION ENVIRONMENT                                        *
    1557              ;*                                                             *
    1558              ;* FUNCTION PROPERTIES                                         *
    1559              ;*                            0 Parameter,  0 Auto,  0 SOE     *
    1560              ;***************************************************************
    1561              
    1562              ||__relaxed_expf||:
    1563              ;* R0    assigned to x
    1564              $C$DW$106       .dwtag  DW_TAG_variable
    1565                      .dwattr $C$DW$106, DW_AT_name("x")
    1566                      .dwattr $C$DW$106, DW_AT_type(*$C$DW$T$102)
    1567                      .dwattr $C$DW$106, DW_AT_location[DW_OP_regx 0x2b]
    1568              
    1569                      .dwcfi  cfa_offset, -2
    1570                      .dwcfi  save_reg_to_mem, 26, 0
TMS320C2000 Assembler PC v22.6.1 Thu Mar 28 17:35:23 2024

Copyright (c) 1996-2018 Texas Instruments Incorporated
llc.asm                                                              PAGE   31

    1571                      .dwpsn  file "C:/ti/ccs1250/ccs/tools/compiler/ti-cgt-c2000_22.6.1.LTS/include/math.h",line 298,colum
    1572 00000000 E801          MOVIZ     R1H,#16312            ; [CPU_FPU] |298| 
         00000001 FDC1 
    1573 00000002 E80D          MOVXI     R1H,#43537            ; [CPU_FPU] |298| 
         00000003 5089 
    1574 00000004 E700          MPYF32    R0H,R1H,R0H           ; [CPU_FPU] |298| 
         00000005 0008 
    1575 00000006 7700          NOP       ; [CPU_ALU] 
    1576 00000007 7700          NOP       ; [CPU_ALU] 
    1577 00000008 E273          IEXP2F32  R0H,R0H               ; [CPU_FPU] |298| 
         00000009 0000 
    1578 0000000a 7700          NOP       ; [CPU_ALU] 
    1579 0000000b 7700          NOP       ; [CPU_ALU] 
    1580 0000000c E801          MOVIZ     R1H,#16256            ; [CPU_FPU] |298| 
         0000000d FC01 
    1581 0000000e E274          DIVF32    R0H,R1H,R0H           ; [CPU_FPU] |298| 
         0000000f 0008 
    1582 00000010 7700          NOP       ; [CPU_ALU] 
    1583 00000011 7700          NOP       ; [CPU_ALU] 
    1584 00000012 7700          NOP       ; [CPU_ALU] 
    1585              $C$DW$107       .dwtag  DW_TAG_TI_branch
    1586                      .dwattr $C$DW$107, DW_AT_low_pc(0x00)
    1587                      .dwattr $C$DW$107, DW_AT_TI_return
    1588              
    1589 00000013 0006          LRETR     ; [CPU_ALU] 
    1590                      ; return occurs ; [] 
    1591                      .dwattr $C$DW$104, DW_AT_TI_end_file("C:/ti/ccs1250/ccs/tools/compiler/ti-cgt-c2000_22.6.1.LTS/includ
    1592                      .dwattr $C$DW$104, DW_AT_TI_end_line(0x131)
    1593                      .dwattr $C$DW$104, DW_AT_TI_end_column(0x01)
    1594                      .dwendentry
    1595                      .dwendtag $C$DW$104
    1596              
    1597 00000000               .sect   ".text:__relaxed_cosf"
    1598                      .clink
    1599                      .global ||__relaxed_cosf||
    1600              
    1601              $C$DW$108       .dwtag  DW_TAG_subprogram
    1602                      .dwattr $C$DW$108, DW_AT_name("__relaxed_cosf")
    1603                      .dwattr $C$DW$108, DW_AT_low_pc(||__relaxed_cosf||)
    1604                      .dwattr $C$DW$108, DW_AT_high_pc(0x00)
    1605                      .dwattr $C$DW$108, DW_AT_linkage_name("__relaxed_cosf")
    1606                      .dwattr $C$DW$108, DW_AT_external
    1607                      .dwattr $C$DW$108, DW_AT_type(*$C$DW$T$16)
    1608                      .dwattr $C$DW$108, DW_AT_decl_file("C:/ti/ccs1250/ccs/tools/compiler/ti-cgt-c2000_22.6.1.LTS/include/
    1609                      .dwattr $C$DW$108, DW_AT_decl_line(0x10d)
    1610                      .dwattr $C$DW$108, DW_AT_decl_column(0x10)
    1611                      .dwattr $C$DW$108, DW_AT_TI_max_frame_size(-2)
    1612                      .dwpsn  file "C:/ti/ccs1250/ccs/tools/compiler/ti-cgt-c2000_22.6.1.LTS/include/math.h",line 270,colum
    1613              
    1614                      .dwfde $C$DW$CIE, ||__relaxed_cosf||
    1615              $C$DW$109       .dwtag  DW_TAG_formal_parameter
    1616                      .dwattr $C$DW$109, DW_AT_name("x")
    1617                      .dwattr $C$DW$109, DW_AT_type(*$C$DW$T$16)
    1618                      .dwattr $C$DW$109, DW_AT_location[DW_OP_regx 0x2b]
    1619              
TMS320C2000 Assembler PC v22.6.1 Thu Mar 28 17:35:23 2024

Copyright (c) 1996-2018 Texas Instruments Incorporated
llc.asm                                                              PAGE   32

    1620              
    1621              ;***************************************************************
    1622              ;* FNAME: __relaxed_cosf                FR SIZE:   0           *
    1623              ;*                                                             *
    1624              ;* FUNCTION ENVIRONMENT                                        *
    1625              ;*                                                             *
    1626              ;* FUNCTION PROPERTIES                                         *
    1627              ;*                            0 Parameter,  0 Auto,  0 SOE     *
    1628              ;***************************************************************
    1629              
    1630              ||__relaxed_cosf||:
    1631              ;* R0    assigned to x
    1632              $C$DW$110       .dwtag  DW_TAG_variable
    1633                      .dwattr $C$DW$110, DW_AT_name("x")
    1634                      .dwattr $C$DW$110, DW_AT_type(*$C$DW$T$102)
    1635                      .dwattr $C$DW$110, DW_AT_location[DW_OP_regx 0x2b]
    1636              
    1637                      .dwcfi  cfa_offset, -2
    1638                      .dwcfi  save_reg_to_mem, 26, 0
    1639                      .dwpsn  file "C:/ti/ccs1250/ccs/tools/compiler/ti-cgt-c2000_22.6.1.LTS/include/math.h",line 271,colum
    1640 00000000 E271          DIV2PIF32 R0H,R0H               ; [CPU_FPU] |271| 
         00000001 0000 
    1641 00000002 7700          NOP       ; [CPU_ALU] 
    1642 00000003 E279          COSPUF32  R0H,R0H               ; [CPU_FPU] |271| 
         00000004 0000 
    1643 00000005 7700          NOP       ; [CPU_ALU] 
    1644 00000006 7700          NOP       ; [CPU_ALU] 
    1645              $C$DW$111       .dwtag  DW_TAG_TI_branch
    1646                      .dwattr $C$DW$111, DW_AT_low_pc(0x00)
    1647                      .dwattr $C$DW$111, DW_AT_TI_return
    1648              
    1649 00000007 0006          LRETR     ; [CPU_ALU] 
    1650                      ; return occurs ; [] 
    1651                      .dwattr $C$DW$108, DW_AT_TI_end_file("C:/ti/ccs1250/ccs/tools/compiler/ti-cgt-c2000_22.6.1.LTS/includ
    1652                      .dwattr $C$DW$108, DW_AT_TI_end_line(0x110)
    1653                      .dwattr $C$DW$108, DW_AT_TI_end_column(0x01)
    1654                      .dwendentry
    1655                      .dwendtag $C$DW$108
    1656              
    1657 00000000               .sect   ".text:__relaxed_atanf"
    1658                      .clink
    1659                      .global ||__relaxed_atanf||
    1660              
    1661              $C$DW$112       .dwtag  DW_TAG_subprogram
    1662                      .dwattr $C$DW$112, DW_AT_name("__relaxed_atanf")
    1663                      .dwattr $C$DW$112, DW_AT_low_pc(||__relaxed_atanf||)
    1664                      .dwattr $C$DW$112, DW_AT_high_pc(0x00)
    1665                      .dwattr $C$DW$112, DW_AT_linkage_name("__relaxed_atanf")
    1666                      .dwattr $C$DW$112, DW_AT_external
    1667                      .dwattr $C$DW$112, DW_AT_type(*$C$DW$T$16)
    1668                      .dwattr $C$DW$112, DW_AT_decl_file("C:/ti/ccs1250/ccs/tools/compiler/ti-cgt-c2000_22.6.1.LTS/include/
    1669                      .dwattr $C$DW$112, DW_AT_decl_line(0x112)
    1670                      .dwattr $C$DW$112, DW_AT_decl_column(0x10)
    1671                      .dwattr $C$DW$112, DW_AT_TI_max_frame_size(-2)
    1672                      .dwpsn  file "C:/ti/ccs1250/ccs/tools/compiler/ti-cgt-c2000_22.6.1.LTS/include/math.h",line 275,colum
TMS320C2000 Assembler PC v22.6.1 Thu Mar 28 17:35:23 2024

Copyright (c) 1996-2018 Texas Instruments Incorporated
llc.asm                                                              PAGE   33

    1673              
    1674                      .dwfde $C$DW$CIE, ||__relaxed_atanf||
    1675              $C$DW$113       .dwtag  DW_TAG_formal_parameter
    1676                      .dwattr $C$DW$113, DW_AT_name("x")
    1677                      .dwattr $C$DW$113, DW_AT_type(*$C$DW$T$16)
    1678                      .dwattr $C$DW$113, DW_AT_location[DW_OP_regx 0x2b]
    1679              
    1680              
    1681              ;***************************************************************
    1682              ;* FNAME: __relaxed_atanf               FR SIZE:   0           *
    1683              ;*                                                             *
    1684              ;* FUNCTION ENVIRONMENT                                        *
    1685              ;*                                                             *
    1686              ;* FUNCTION PROPERTIES                                         *
    1687              ;*                            0 Parameter,  0 Auto,  0 SOE     *
    1688              ;***************************************************************
    1689              
    1690              ||__relaxed_atanf||:
    1691              ;* R0    assigned to x
    1692              $C$DW$114       .dwtag  DW_TAG_variable
    1693                      .dwattr $C$DW$114, DW_AT_name("x")
    1694                      .dwattr $C$DW$114, DW_AT_type(*$C$DW$T$102)
    1695                      .dwattr $C$DW$114, DW_AT_location[DW_OP_regx 0x2b]
    1696              
    1697                      .dwcfi  cfa_offset, -2
    1698                      .dwcfi  save_reg_to_mem, 26, 0
    1699                      .dwpsn  file "C:/ti/ccs1250/ccs/tools/compiler/ti-cgt-c2000_22.6.1.LTS/include/math.h",line 276,colum
    1700 00000000 E801          MOVIZ     R1H,#16256            ; [CPU_FPU] |276| 
         00000001 FC01 
    1701 00000002 E27C          QUADF32   R1H,R0H,R0H,R1H       ; [CPU_FPU] |276| 
         00000003 0201 
    1702 00000004 7700          NOP       ; [CPU_ALU] 
    1703 00000005 7700          NOP       ; [CPU_ALU] 
    1704 00000006 7700          NOP       ; [CPU_ALU] 
    1705 00000007 7700          NOP       ; [CPU_ALU] 
    1706 00000008 E27A          ATANPUF32 R0H,R0H               ; [CPU_FPU] |276| 
         00000009 0000 
    1707 0000000a 7700          NOP       ; [CPU_ALU] 
    1708 0000000b 7700          NOP       ; [CPU_ALU] 
    1709 0000000c 7700          NOP       ; [CPU_ALU] 
    1710 0000000d E710          ADDF32    R0H,R0H,R1H           ; [CPU_FPU] |276| 
         0000000e 0040 
    1711 0000000f 7700          NOP       ; [CPU_ALU] 
    1712 00000010 7700          NOP       ; [CPU_ALU] 
    1713 00000011 E270          MPY2PIF32 R0H,R0H               ; [CPU_FPU] |276| 
         00000012 0000 
    1714 00000013 7700          NOP       ; [CPU_ALU] 
    1715              $C$DW$115       .dwtag  DW_TAG_TI_branch
    1716                      .dwattr $C$DW$115, DW_AT_low_pc(0x00)
    1717                      .dwattr $C$DW$115, DW_AT_TI_return
    1718              
    1719 00000014 0006          LRETR     ; [CPU_ALU] 
    1720                      ; return occurs ; [] 
    1721                      .dwattr $C$DW$112, DW_AT_TI_end_file("C:/ti/ccs1250/ccs/tools/compiler/ti-cgt-c2000_22.6.1.LTS/includ
    1722                      .dwattr $C$DW$112, DW_AT_TI_end_line(0x115)
TMS320C2000 Assembler PC v22.6.1 Thu Mar 28 17:35:23 2024

Copyright (c) 1996-2018 Texas Instruments Incorporated
llc.asm                                                              PAGE   34

    1723                      .dwattr $C$DW$112, DW_AT_TI_end_column(0x01)
    1724                      .dwendentry
    1725                      .dwendtag $C$DW$112
    1726              
    1727 00000000               .sect   ".text:__relaxed_atan2f"
    1728                      .clink
    1729                      .global ||__relaxed_atan2f||
    1730              
    1731              $C$DW$116       .dwtag  DW_TAG_subprogram
    1732                      .dwattr $C$DW$116, DW_AT_name("__relaxed_atan2f")
    1733                      .dwattr $C$DW$116, DW_AT_low_pc(||__relaxed_atan2f||)
    1734                      .dwattr $C$DW$116, DW_AT_high_pc(0x00)
    1735                      .dwattr $C$DW$116, DW_AT_linkage_name("__relaxed_atan2f")
    1736                      .dwattr $C$DW$116, DW_AT_external
    1737                      .dwattr $C$DW$116, DW_AT_type(*$C$DW$T$16)
    1738                      .dwattr $C$DW$116, DW_AT_decl_file("C:/ti/ccs1250/ccs/tools/compiler/ti-cgt-c2000_22.6.1.LTS/include/
    1739                      .dwattr $C$DW$116, DW_AT_decl_line(0x117)
    1740                      .dwattr $C$DW$116, DW_AT_decl_column(0x10)
    1741                      .dwattr $C$DW$116, DW_AT_TI_max_frame_size(-2)
    1742                      .dwpsn  file "C:/ti/ccs1250/ccs/tools/compiler/ti-cgt-c2000_22.6.1.LTS/include/math.h",line 280,colum
    1743              
    1744                      .dwfde $C$DW$CIE, ||__relaxed_atan2f||
    1745              $C$DW$117       .dwtag  DW_TAG_formal_parameter
    1746                      .dwattr $C$DW$117, DW_AT_name("y")
    1747                      .dwattr $C$DW$117, DW_AT_type(*$C$DW$T$16)
    1748                      .dwattr $C$DW$117, DW_AT_location[DW_OP_regx 0x2b]
    1749              
    1750              $C$DW$118       .dwtag  DW_TAG_formal_parameter
    1751                      .dwattr $C$DW$118, DW_AT_name("x")
    1752                      .dwattr $C$DW$118, DW_AT_type(*$C$DW$T$16)
    1753                      .dwattr $C$DW$118, DW_AT_location[DW_OP_regx 0x2f]
    1754              
    1755              
    1756              ;***************************************************************
    1757              ;* FNAME: __relaxed_atan2f              FR SIZE:   0           *
    1758              ;*                                                             *
    1759              ;* FUNCTION ENVIRONMENT                                        *
    1760              ;*                                                             *
    1761              ;* FUNCTION PROPERTIES                                         *
    1762              ;*                            0 Parameter,  0 Auto,  0 SOE     *
    1763              ;***************************************************************
    1764              
    1765              ||__relaxed_atan2f||:
    1766              ;* R0    assigned to y
    1767              $C$DW$119       .dwtag  DW_TAG_variable
    1768                      .dwattr $C$DW$119, DW_AT_name("y")
    1769                      .dwattr $C$DW$119, DW_AT_type(*$C$DW$T$102)
    1770                      .dwattr $C$DW$119, DW_AT_location[DW_OP_regx 0x2b]
    1771              
    1772              ;* R1    assigned to x
    1773              $C$DW$120       .dwtag  DW_TAG_variable
    1774                      .dwattr $C$DW$120, DW_AT_name("x")
    1775                      .dwattr $C$DW$120, DW_AT_type(*$C$DW$T$102)
    1776                      .dwattr $C$DW$120, DW_AT_location[DW_OP_regx 0x2f]
    1777              
TMS320C2000 Assembler PC v22.6.1 Thu Mar 28 17:35:23 2024

Copyright (c) 1996-2018 Texas Instruments Incorporated
llc.asm                                                              PAGE   35

    1778                      .dwcfi  cfa_offset, -2
    1779                      .dwcfi  save_reg_to_mem, 26, 0
    1780                      .dwpsn  file "C:/ti/ccs1250/ccs/tools/compiler/ti-cgt-c2000_22.6.1.LTS/include/math.h",line 281,colum
    1781 00000000 E27C          QUADF32   R1H,R0H,R0H,R1H       ; [CPU_FPU] |281| 
         00000001 0201 
    1782 00000002 7700          NOP       ; [CPU_ALU] 
    1783 00000003 7700          NOP       ; [CPU_ALU] 
    1784 00000004 7700          NOP       ; [CPU_ALU] 
    1785 00000005 7700          NOP       ; [CPU_ALU] 
    1786 00000006 E27A          ATANPUF32 R0H,R0H               ; [CPU_FPU] |281| 
         00000007 0000 
    1787 00000008 7700          NOP       ; [CPU_ALU] 
    1788 00000009 7700          NOP       ; [CPU_ALU] 
    1789 0000000a 7700          NOP       ; [CPU_ALU] 
    1790 0000000b E710          ADDF32    R0H,R0H,R1H           ; [CPU_FPU] |281| 
         0000000c 0040 
    1791 0000000d 7700          NOP       ; [CPU_ALU] 
    1792 0000000e 7700          NOP       ; [CPU_ALU] 
    1793 0000000f E270          MPY2PIF32 R0H,R0H               ; [CPU_FPU] |281| 
         00000010 0000 
    1794 00000011 7700          NOP       ; [CPU_ALU] 
    1795              $C$DW$121       .dwtag  DW_TAG_TI_branch
    1796                      .dwattr $C$DW$121, DW_AT_low_pc(0x00)
    1797                      .dwattr $C$DW$121, DW_AT_TI_return
    1798              
    1799 00000012 0006          LRETR     ; [CPU_ALU] 
    1800                      ; return occurs ; [] 
    1801                      .dwattr $C$DW$116, DW_AT_TI_end_file("C:/ti/ccs1250/ccs/tools/compiler/ti-cgt-c2000_22.6.1.LTS/includ
    1802                      .dwattr $C$DW$116, DW_AT_TI_end_line(0x11a)
    1803                      .dwattr $C$DW$116, DW_AT_TI_end_column(0x01)
    1804                      .dwendentry
    1805                      .dwendtag $C$DW$116
    1806              
    1807 00000000               .sect   ".text:__isnormall"
    1808                      .clink
    1809                      .global ||__isnormall||
    1810              
    1811              $C$DW$122       .dwtag  DW_TAG_subprogram
    1812                      .dwattr $C$DW$122, DW_AT_name("__isnormall")
    1813                      .dwattr $C$DW$122, DW_AT_low_pc(||__isnormall||)
    1814                      .dwattr $C$DW$122, DW_AT_high_pc(0x00)
    1815                      .dwattr $C$DW$122, DW_AT_linkage_name("__isnormall")
    1816                      .dwattr $C$DW$122, DW_AT_external
    1817                      .dwattr $C$DW$122, DW_AT_type(*$C$DW$T$10)
    1818                      .dwattr $C$DW$122, DW_AT_decl_file("C:/ti/ccs1250/ccs/tools/compiler/ti-cgt-c2000_22.6.1.LTS/include/
    1819                      .dwattr $C$DW$122, DW_AT_decl_line(0x167)
    1820                      .dwattr $C$DW$122, DW_AT_decl_column(0x18)
    1821                      .dwattr $C$DW$122, DW_AT_TI_max_frame_size(-6)
    1822                      .dwpsn  file "C:/ti/ccs1250/ccs/tools/compiler/ti-cgt-c2000_22.6.1.LTS/include/_defs.h",line 360,colu
    1823              
    1824                      .dwfde $C$DW$CIE, ||__isnormall||
    1825              $C$DW$123       .dwtag  DW_TAG_formal_parameter
    1826                      .dwattr $C$DW$123, DW_AT_name("e")
    1827                      .dwattr $C$DW$123, DW_AT_type(*$C$DW$T$110)
    1828                      .dwattr $C$DW$123, DW_AT_location[DW_OP_reg12]
TMS320C2000 Assembler PC v22.6.1 Thu Mar 28 17:35:23 2024

Copyright (c) 1996-2018 Texas Instruments Incorporated
llc.asm                                                              PAGE   36

    1829              
    1830              
    1831              ;***************************************************************
    1832              ;* FNAME: __isnormall                   FR SIZE:   4           *
    1833              ;*                                                             *
    1834              ;* FUNCTION ENVIRONMENT                                        *
    1835              ;*                                                             *
    1836              ;* FUNCTION PROPERTIES                                         *
    1837              ;*                            4 Parameter,  0 Auto,  0 SOE     *
    1838              ;***************************************************************
    1839              
    1840              ||__isnormall||:
    1841              ;* AR5   assigned to $O$C2
    1842              ;* AR6   assigned to $O$S1
    1843              ;* AR4   assigned to e
    1844              $C$DW$124       .dwtag  DW_TAG_variable
    1845                      .dwattr $C$DW$124, DW_AT_name("e")
    1846                      .dwattr $C$DW$124, DW_AT_type(*$C$DW$T$111)
    1847                      .dwattr $C$DW$124, DW_AT_location[DW_OP_reg12]
    1848              
    1849                      .dwcfi  cfa_offset, -2
    1850                      .dwcfi  save_reg_to_mem, 26, 0
    1851 00000000 FE04          ADDB      SP,#4                 ; [CPU_ARAU] 
    1852                      .dwcfi  cfa_offset, -6
    1853                      .dwpsn  file "C:/ti/ccs1250/ccs/tools/compiler/ti-cgt-c2000_22.6.1.LTS/include/_defs.h",line 360,colu
    1854 00000001 83C4          MOVL      XAR5,*+XAR4[0]        ; [CPU_ALU] |360| 
    1855 00000002 8AD4          MOVL      XAR4,*+XAR4[2]        ; [CPU_ALU] |360| 
    1856 00000003 BE00          MOVB      XAR6,#0               ; [CPU_ALU] |360| 
    1857 00000004 28AC          MOV       T,#52                 ; [CPU_ALU] |360| 
         00000005 0034 
    1858 00000006 A0AB          MOVL      P,XAR5                ; [CPU_ALU] |360| 
    1859 00000007 A8A9          MOVL      ACC,XAR4              ; [CPU_ALU] |360| 
    1860 00000008 C244          MOVL      *-SP[4],XAR6          ; [CPU_ALU] |360| 
    1861 00000009 2B42          MOV       *-SP[2],#0            ; [CPU_ALU] |360| 
    1862 0000000a 565B          LSR64     ACC:P,T               ; [CPU_ALU] |360| 
    1863 0000000b 2B41          MOV       *-SP[1],#0            ; [CPU_FPU] |360| 
    1864 0000000c 9000          ANDB      AL,#0                 ; [CPU_ALU] |360| 
    1865 0000000d 9100          ANDB      AH,#0                 ; [CPU_ALU] |360| 
    1866 0000000e 18AB          AND       PL,#2047              ; [CPU_ALU] |360| 
         0000000f 07FF 
    1867 00000010 18AA          AND       PH,#0                 ; [CPU_ALU] |360| 
         00000011 0000 
    1868              $C$DW$125       .dwtag  DW_TAG_TI_branch
    1869                      .dwattr $C$DW$125, DW_AT_low_pc(0x00)
    1870                      .dwattr $C$DW$125, DW_AT_name("__c28xabi_cmpull")
    1871                      .dwattr $C$DW$125, DW_AT_TI_call
    1872              
    1873 00000012 7640!         LCR       #||__c28xabi_cmpull|| ; [CPU_ALU] |360| 
         00000013 0000 
    1874                      ; call occurs [#||__c28xabi_cmpull||] ; [] |360| 
    1875 00000014 BE00          MOVB      XAR6,#0               ; [CPU_ALU] |360| 
    1876 00000015 5200          CMPB      AL,#0                 ; [CPU_ALU] |360| 
    1877 00000016 610E          B         ||$C$L2||,EQ          ; [CPU_ALU] |360| 
    1878                      ; branchcc occurs ; [] |360| 
    1879 00000017 A0AB          MOVL      P,XAR5                ; [CPU_ALU] |360| 
TMS320C2000 Assembler PC v22.6.1 Thu Mar 28 17:35:23 2024

Copyright (c) 1996-2018 Texas Instruments Incorporated
llc.asm                                                              PAGE   37

    1880 00000018 A8A9          MOVL      ACC,XAR4              ; [CPU_ALU] |360| 
    1881 00000019 28AC          MOV       T,#48                 ; [CPU_ALU] |360| 
         0000001a 0030 
    1882 0000001b 565B          LSR64     ACC:P,T               ; [CPU_ALU] |360| 
    1883 0000001c 18AB          AND       PL,#0x7ff0            ; [CPU_ALU] |360| 
         0000001d 7FF0 
    1884 0000001e 80AB          MOVZ      AR7,PL                ; [CPU_ALU] |360| 
    1885 0000001f FF20          MOV       ACC,#32752            ; [CPU_ALU] |360| 
         00000020 7FF0 
    1886 00000021 0FA7          CMPL      ACC,XAR7              ; [CPU_ALU] |360| 
    1887 00000022 56B0          MOVB      XAR6,#1,NEQ           ; [CPU_ALU] |360| 
         00000023 01A6 
    1888 00000024       ||$C$L2||:    
    1889 00000024 FE84          SUBB      SP,#4                 ; [CPU_ARAU] 
    1890                      .dwcfi  cfa_offset, -2
    1891 00000025 92A6          MOV       AL,AR6                ; [CPU_ALU] |360| 
    1892              $C$DW$126       .dwtag  DW_TAG_TI_branch
    1893                      .dwattr $C$DW$126, DW_AT_low_pc(0x00)
    1894                      .dwattr $C$DW$126, DW_AT_TI_return
    1895              
    1896 00000026 0006          LRETR     ; [CPU_ALU] 
    1897                      ; return occurs ; [] 
    1898                      .dwattr $C$DW$122, DW_AT_TI_end_file("C:/ti/ccs1250/ccs/tools/compiler/ti-cgt-c2000_22.6.1.LTS/includ
    1899                      .dwattr $C$DW$122, DW_AT_TI_end_line(0x169)
    1900                      .dwattr $C$DW$122, DW_AT_TI_end_column(0x31)
    1901                      .dwendentry
    1902                      .dwendtag $C$DW$122
    1903              
    1904 00000000               .sect   ".text:__isnormalf"
    1905                      .clink
    1906                      .global ||__isnormalf||
    1907              
    1908              $C$DW$127       .dwtag  DW_TAG_subprogram
    1909                      .dwattr $C$DW$127, DW_AT_name("__isnormalf")
    1910                      .dwattr $C$DW$127, DW_AT_low_pc(||__isnormalf||)
    1911                      .dwattr $C$DW$127, DW_AT_high_pc(0x00)
    1912                      .dwattr $C$DW$127, DW_AT_linkage_name("__isnormalf")
    1913                      .dwattr $C$DW$127, DW_AT_external
    1914                      .dwattr $C$DW$127, DW_AT_type(*$C$DW$T$10)
    1915                      .dwattr $C$DW$127, DW_AT_decl_file("C:/ti/ccs1250/ccs/tools/compiler/ti-cgt-c2000_22.6.1.LTS/include/
    1916                      .dwattr $C$DW$127, DW_AT_decl_line(0x163)
    1917                      .dwattr $C$DW$127, DW_AT_decl_column(0x18)
    1918                      .dwattr $C$DW$127, DW_AT_TI_max_frame_size(-2)
    1919                      .dwpsn  file "C:/ti/ccs1250/ccs/tools/compiler/ti-cgt-c2000_22.6.1.LTS/include/_defs.h",line 356,colu
    1920              
    1921                      .dwfde $C$DW$CIE, ||__isnormalf||
    1922              $C$DW$128       .dwtag  DW_TAG_formal_parameter
    1923                      .dwattr $C$DW$128, DW_AT_name("f")
    1924                      .dwattr $C$DW$128, DW_AT_type(*$C$DW$T$16)
    1925                      .dwattr $C$DW$128, DW_AT_location[DW_OP_regx 0x2b]
    1926              
    1927              
    1928              ;***************************************************************
    1929              ;* FNAME: __isnormalf                   FR SIZE:   0           *
    1930              ;*                                                             *
TMS320C2000 Assembler PC v22.6.1 Thu Mar 28 17:35:23 2024

Copyright (c) 1996-2018 Texas Instruments Incorporated
llc.asm                                                              PAGE   38

    1931              ;* FUNCTION ENVIRONMENT                                        *
    1932              ;*                                                             *
    1933              ;* FUNCTION PROPERTIES                                         *
    1934              ;*                            0 Parameter,  0 Auto,  0 SOE     *
    1935              ;***************************************************************
    1936              
    1937              ||__isnormalf||:
    1938              ;* PL    assigned to $O$K3
    1939              ;* AR6   assigned to $O$S1
    1940              ;* R0    assigned to f
    1941              $C$DW$129       .dwtag  DW_TAG_variable
    1942                      .dwattr $C$DW$129, DW_AT_name("f")
    1943                      .dwattr $C$DW$129, DW_AT_type(*$C$DW$T$102)
    1944                      .dwattr $C$DW$129, DW_AT_location[DW_OP_regx 0x2b]
    1945              
    1946                      .dwcfi  cfa_offset, -2
    1947                      .dwcfi  save_reg_to_mem, 26, 0
    1948                      .dwpsn  file "C:/ti/ccs1250/ccs/tools/compiler/ti-cgt-c2000_22.6.1.LTS/include/_defs.h",line 356,colu
    1949 00000000 BFAB          MOV32     P,R0H                 ; [CPU_FPU] |356| 
         00000001 0F12 
    1950 00000002 28AC          MOV       T,#23                 ; [CPU_ALU] |356| 
         00000003 0017 
    1951 00000004 A9A9          MOVL      ACC,P                 ; [CPU_ALU] |356| 
    1952 00000005 BE00          MOVB      XAR6,#0               ; [CPU_ALU] |356| 
    1953 00000006 5622          LSRL      ACC,T                 ; [CPU_ALU] |356| 
    1954 00000007 90FF          ANDB      AL,#0xff              ; [CPU_ALU] |356| 
    1955 00000008 6109          B         ||$C$L3||,EQ          ; [CPU_ALU] |356| 
    1956                      ; branchcc occurs ; [] |356| 
    1957 00000009 CCAA          AND       AL,PH,#0x7f80         ; [CPU_ALU] |356| 
         0000000a 7F80 
    1958 0000000b 80A9          MOVZ      AR7,AL                ; [CPU_ALU] |356| 
    1959 0000000c FF20          MOV       ACC,#32640            ; [CPU_ALU] |356| 
         0000000d 7F80 
    1960 0000000e 0FA7          CMPL      ACC,XAR7              ; [CPU_ALU] |356| 
    1961 0000000f 56B0          MOVB      XAR6,#1,NEQ           ; [CPU_ALU] |356| 
         00000010 01A6 
    1962 00000011       ||$C$L3||:    
    1963 00000011 92A6          MOV       AL,AR6                ; [CPU_ALU] |356| 
    1964              $C$DW$130       .dwtag  DW_TAG_TI_branch
    1965                      .dwattr $C$DW$130, DW_AT_low_pc(0x00)
    1966                      .dwattr $C$DW$130, DW_AT_TI_return
    1967              
    1968 00000012 0006          LRETR     ; [CPU_ALU] 
    1969                      ; return occurs ; [] 
    1970                      .dwattr $C$DW$127, DW_AT_TI_end_file("C:/ti/ccs1250/ccs/tools/compiler/ti-cgt-c2000_22.6.1.LTS/includ
    1971                      .dwattr $C$DW$127, DW_AT_TI_end_line(0x165)
    1972                      .dwattr $C$DW$127, DW_AT_TI_end_column(0x2f)
    1973                      .dwendentry
    1974                      .dwendtag $C$DW$127
    1975              
    1976 00000000               .sect   ".text:__isnormal"
    1977                      .clink
    1978                      .global ||__isnormal||
    1979              
    1980              $C$DW$131       .dwtag  DW_TAG_subprogram
TMS320C2000 Assembler PC v22.6.1 Thu Mar 28 17:35:23 2024

Copyright (c) 1996-2018 Texas Instruments Incorporated
llc.asm                                                              PAGE   39

    1981                      .dwattr $C$DW$131, DW_AT_name("__isnormal")
    1982                      .dwattr $C$DW$131, DW_AT_low_pc(||__isnormal||)
    1983                      .dwattr $C$DW$131, DW_AT_high_pc(0x00)
    1984                      .dwattr $C$DW$131, DW_AT_linkage_name("__isnormal")
    1985                      .dwattr $C$DW$131, DW_AT_external
    1986                      .dwattr $C$DW$131, DW_AT_type(*$C$DW$T$10)
    1987                      .dwattr $C$DW$131, DW_AT_decl_file("C:/ti/ccs1250/ccs/tools/compiler/ti-cgt-c2000_22.6.1.LTS/include/
    1988                      .dwattr $C$DW$131, DW_AT_decl_line(0x15f)
    1989                      .dwattr $C$DW$131, DW_AT_decl_column(0x18)
    1990                      .dwattr $C$DW$131, DW_AT_TI_max_frame_size(-6)
    1991                      .dwpsn  file "C:/ti/ccs1250/ccs/tools/compiler/ti-cgt-c2000_22.6.1.LTS/include/_defs.h",line 352,colu
    1992              
    1993                      .dwfde $C$DW$CIE, ||__isnormal||
    1994              $C$DW$132       .dwtag  DW_TAG_formal_parameter
    1995                      .dwattr $C$DW$132, DW_AT_name("d")
    1996                      .dwattr $C$DW$132, DW_AT_type(*$C$DW$T$107)
    1997                      .dwattr $C$DW$132, DW_AT_location[DW_OP_reg12]
    1998              
    1999              
    2000              ;***************************************************************
    2001              ;* FNAME: __isnormal                    FR SIZE:   4           *
    2002              ;*                                                             *
    2003              ;* FUNCTION ENVIRONMENT                                        *
    2004              ;*                                                             *
    2005              ;* FUNCTION PROPERTIES                                         *
    2006              ;*                            4 Parameter,  0 Auto,  0 SOE     *
    2007              ;***************************************************************
    2008              
    2009              ||__isnormal||:
    2010              ;* AR5   assigned to $O$C2
    2011              ;* AR6   assigned to $O$S1
    2012              ;* AR4   assigned to d
    2013              $C$DW$133       .dwtag  DW_TAG_variable
    2014                      .dwattr $C$DW$133, DW_AT_name("d")
    2015                      .dwattr $C$DW$133, DW_AT_type(*$C$DW$T$108)
    2016                      .dwattr $C$DW$133, DW_AT_location[DW_OP_reg12]
    2017              
    2018                      .dwcfi  cfa_offset, -2
    2019                      .dwcfi  save_reg_to_mem, 26, 0
    2020 00000000 FE04          ADDB      SP,#4                 ; [CPU_ARAU] 
    2021                      .dwcfi  cfa_offset, -6
    2022                      .dwpsn  file "C:/ti/ccs1250/ccs/tools/compiler/ti-cgt-c2000_22.6.1.LTS/include/_defs.h",line 352,colu
    2023 00000001 83C4          MOVL      XAR5,*+XAR4[0]        ; [CPU_ALU] |352| 
    2024 00000002 8AD4          MOVL      XAR4,*+XAR4[2]        ; [CPU_ALU] |352| 
    2025 00000003 BE00          MOVB      XAR6,#0               ; [CPU_ALU] |352| 
    2026 00000004 28AC          MOV       T,#52                 ; [CPU_ALU] |352| 
         00000005 0034 
    2027 00000006 A0AB          MOVL      P,XAR5                ; [CPU_ALU] |352| 
    2028 00000007 A8A9          MOVL      ACC,XAR4              ; [CPU_ALU] |352| 
    2029 00000008 C244          MOVL      *-SP[4],XAR6          ; [CPU_ALU] |352| 
    2030 00000009 2B42          MOV       *-SP[2],#0            ; [CPU_ALU] |352| 
    2031 0000000a 565B          LSR64     ACC:P,T               ; [CPU_ALU] |352| 
    2032 0000000b 2B41          MOV       *-SP[1],#0            ; [CPU_FPU] |352| 
    2033 0000000c 9000          ANDB      AL,#0                 ; [CPU_ALU] |352| 
    2034 0000000d 9100          ANDB      AH,#0                 ; [CPU_ALU] |352| 
TMS320C2000 Assembler PC v22.6.1 Thu Mar 28 17:35:23 2024

Copyright (c) 1996-2018 Texas Instruments Incorporated
llc.asm                                                              PAGE   40

    2035 0000000e 18AB          AND       PL,#2047              ; [CPU_ALU] |352| 
         0000000f 07FF 
    2036 00000010 18AA          AND       PH,#0                 ; [CPU_ALU] |352| 
         00000011 0000 
    2037              $C$DW$134       .dwtag  DW_TAG_TI_branch
    2038                      .dwattr $C$DW$134, DW_AT_low_pc(0x00)
    2039                      .dwattr $C$DW$134, DW_AT_name("__c28xabi_cmpull")
    2040                      .dwattr $C$DW$134, DW_AT_TI_call
    2041              
    2042 00000012 7640!         LCR       #||__c28xabi_cmpull|| ; [CPU_ALU] |352| 
         00000013 0000 
    2043                      ; call occurs [#||__c28xabi_cmpull||] ; [] |352| 
    2044 00000014 BE00          MOVB      XAR6,#0               ; [CPU_ALU] |352| 
    2045 00000015 5200          CMPB      AL,#0                 ; [CPU_ALU] |352| 
    2046 00000016 610E          B         ||$C$L4||,EQ          ; [CPU_ALU] |352| 
    2047                      ; branchcc occurs ; [] |352| 
    2048 00000017 A0AB          MOVL      P,XAR5                ; [CPU_ALU] |352| 
    2049 00000018 A8A9          MOVL      ACC,XAR4              ; [CPU_ALU] |352| 
    2050 00000019 28AC          MOV       T,#48                 ; [CPU_ALU] |352| 
         0000001a 0030 
    2051 0000001b 565B          LSR64     ACC:P,T               ; [CPU_ALU] |352| 
    2052 0000001c 18AB          AND       PL,#0x7ff0            ; [CPU_ALU] |352| 
         0000001d 7FF0 
    2053 0000001e 80AB          MOVZ      AR7,PL                ; [CPU_ALU] |352| 
    2054 0000001f FF20          MOV       ACC,#32752            ; [CPU_ALU] |352| 
         00000020 7FF0 
    2055 00000021 0FA7          CMPL      ACC,XAR7              ; [CPU_ALU] |352| 
    2056 00000022 56B0          MOVB      XAR6,#1,NEQ           ; [CPU_ALU] |352| 
         00000023 01A6 
    2057 00000024       ||$C$L4||:    
    2058 00000024 FE84          SUBB      SP,#4                 ; [CPU_ARAU] 
    2059                      .dwcfi  cfa_offset, -2
    2060 00000025 92A6          MOV       AL,AR6                ; [CPU_ALU] |352| 
    2061              $C$DW$135       .dwtag  DW_TAG_TI_branch
    2062                      .dwattr $C$DW$135, DW_AT_low_pc(0x00)
    2063                      .dwattr $C$DW$135, DW_AT_TI_return
    2064              
    2065 00000026 0006          LRETR     ; [CPU_ALU] 
    2066                      ; return occurs ; [] 
    2067                      .dwattr $C$DW$131, DW_AT_TI_end_file("C:/ti/ccs1250/ccs/tools/compiler/ti-cgt-c2000_22.6.1.LTS/includ
    2068                      .dwattr $C$DW$131, DW_AT_TI_end_line(0x161)
    2069                      .dwattr $C$DW$131, DW_AT_TI_end_column(0x30)
    2070                      .dwendentry
    2071                      .dwendtag $C$DW$131
    2072              
    2073 00000000               .sect   ".text:__isnanl"
    2074                      .clink
    2075                      .global ||__isnanl||
    2076              
    2077              $C$DW$136       .dwtag  DW_TAG_subprogram
    2078                      .dwattr $C$DW$136, DW_AT_name("__isnanl")
    2079                      .dwattr $C$DW$136, DW_AT_low_pc(||__isnanl||)
    2080                      .dwattr $C$DW$136, DW_AT_high_pc(0x00)
    2081                      .dwattr $C$DW$136, DW_AT_linkage_name("__isnanl")
    2082                      .dwattr $C$DW$136, DW_AT_external
TMS320C2000 Assembler PC v22.6.1 Thu Mar 28 17:35:23 2024

Copyright (c) 1996-2018 Texas Instruments Incorporated
llc.asm                                                              PAGE   41

    2083                      .dwattr $C$DW$136, DW_AT_type(*$C$DW$T$10)
    2084                      .dwattr $C$DW$136, DW_AT_decl_file("C:/ti/ccs1250/ccs/tools/compiler/ti-cgt-c2000_22.6.1.LTS/include/
    2085                      .dwattr $C$DW$136, DW_AT_decl_line(0x15b)
    2086                      .dwattr $C$DW$136, DW_AT_decl_column(0x18)
    2087                      .dwattr $C$DW$136, DW_AT_TI_max_frame_size(-6)
    2088                      .dwpsn  file "C:/ti/ccs1250/ccs/tools/compiler/ti-cgt-c2000_22.6.1.LTS/include/_defs.h",line 348,colu
    2089              
    2090                      .dwfde $C$DW$CIE, ||__isnanl||
    2091              $C$DW$137       .dwtag  DW_TAG_formal_parameter
    2092                      .dwattr $C$DW$137, DW_AT_name("e")
    2093                      .dwattr $C$DW$137, DW_AT_type(*$C$DW$T$110)
    2094                      .dwattr $C$DW$137, DW_AT_location[DW_OP_reg12]
    2095              
    2096              
    2097              ;***************************************************************
    2098              ;* FNAME: __isnanl                      FR SIZE:   4           *
    2099              ;*                                                             *
    2100              ;* FUNCTION ENVIRONMENT                                        *
    2101              ;*                                                             *
    2102              ;* FUNCTION PROPERTIES                                         *
    2103              ;*                            4 Parameter,  0 Auto,  0 SOE     *
    2104              ;***************************************************************
    2105              
    2106              ||__isnanl||:
    2107              ;* AR7   assigned to $O$C2
    2108              ;* AR4   assigned to $O$S1
    2109              ;* AR4   assigned to e
    2110              $C$DW$138       .dwtag  DW_TAG_variable
    2111                      .dwattr $C$DW$138, DW_AT_name("e")
    2112                      .dwattr $C$DW$138, DW_AT_type(*$C$DW$T$111)
    2113                      .dwattr $C$DW$138, DW_AT_location[DW_OP_reg12]
    2114              
    2115                      .dwcfi  cfa_offset, -2
    2116                      .dwcfi  save_reg_to_mem, 26, 0
    2117 00000000 FE04          ADDB      SP,#4                 ; [CPU_ARAU] 
    2118                      .dwcfi  cfa_offset, -6
    2119                      .dwpsn  file "C:/ti/ccs1250/ccs/tools/compiler/ti-cgt-c2000_22.6.1.LTS/include/_defs.h",line 348,colu
    2120 00000001 C5C4          MOVL      XAR7,*+XAR4[0]        ; [CPU_ALU] |348| 
    2121 00000002 06D4          MOVL      ACC,*+XAR4[2]         ; [CPU_ALU] |348| 
    2122 00000003 28AC          MOV       T,#48                 ; [CPU_ALU] |348| 
         00000004 0030 
    2123 00000005 1EA6          MOVL      XAR6,ACC              ; [CPU_ALU] |348| 
    2124 00000006 A3A7          MOVL      P,XAR7                ; [CPU_ALU] |348| 
    2125 00000007 D400          MOVB      XAR4,#0               ; [CPU_ALU] |348| 
    2126 00000008 565B          LSR64     ACC:P,T               ; [CPU_ALU] |348| 
    2127 00000009 2BAA          MOV       PH,#0                 ; [CPU_ALU] |348| 
    2128 0000000a 18AB          AND       PL,#0x7ff0            ; [CPU_ALU] |348| 
         0000000b 7FF0 
    2129 0000000c FF20          MOV       ACC,#32752            ; [CPU_ALU] |348| 
         0000000d 7FF0 
    2130 0000000e 0FAB          CMPL      ACC,P                 ; [CPU_ALU] |348| 
    2131 0000000f 6013          B         ||$C$L5||,NEQ         ; [CPU_ALU] |348| 
    2132                      ; branchcc occurs ; [] |348| 
    2133 00000010 06A6          MOVL      ACC,XAR6              ; [CPU_ALU] |348| 
    2134 00000011 A3A7          MOVL      P,XAR7                ; [CPU_ALU] |348| 
TMS320C2000 Assembler PC v22.6.1 Thu Mar 28 17:35:23 2024

Copyright (c) 1996-2018 Texas Instruments Incorporated
llc.asm                                                              PAGE   42

    2135 00000012 BE00          MOVB      XAR6,#0               ; [CPU_ALU] |348| 
    2136 00000013 18A9          AND       AL,#65535             ; [CPU_ALU] |348| 
         00000014 FFFF 
    2137 00000015 910F          ANDB      AH,#15                ; [CPU_ALU] |348| 
    2138 00000016 18AB          AND       PL,#65535             ; [CPU_ALU] |348| 
         00000017 FFFF 
    2139 00000018 18AA          AND       PH,#65535             ; [CPU_ALU] |348| 
         00000019 FFFF 
    2140 0000001a C244          MOVL      *-SP[4],XAR6          ; [CPU_FPU] |348| 
    2141 0000001b 2B42          MOV       *-SP[2],#0            ; [CPU_FPU] |348| 
    2142 0000001c 2B41          MOV       *-SP[1],#0            ; [CPU_FPU] |348| 
    2143              $C$DW$139       .dwtag  DW_TAG_TI_branch
    2144                      .dwattr $C$DW$139, DW_AT_low_pc(0x00)
    2145                      .dwattr $C$DW$139, DW_AT_name("__c28xabi_cmpull")
    2146                      .dwattr $C$DW$139, DW_AT_TI_call
    2147              
    2148 0000001d 7640!         LCR       #||__c28xabi_cmpull|| ; [CPU_ALU] |348| 
         0000001e 0000 
    2149                      ; call occurs [#||__c28xabi_cmpull||] ; [] |348| 
    2150 0000001f 5200          CMPB      AL,#0                 ; [CPU_ALU] |348| 
    2151 00000020 56B0          MOVB      XAR4,#1,NEQ           ; [CPU_ALU] |348| 
         00000021 01A4 
    2152 00000022       ||$C$L5||:    
    2153 00000022 FE84          SUBB      SP,#4                 ; [CPU_ARAU] 
    2154                      .dwcfi  cfa_offset, -2
    2155 00000023 92A4          MOV       AL,AR4                ; [CPU_ALU] |348| 
    2156              $C$DW$140       .dwtag  DW_TAG_TI_branch
    2157                      .dwattr $C$DW$140, DW_AT_low_pc(0x00)
    2158                      .dwattr $C$DW$140, DW_AT_TI_return
    2159              
    2160 00000024 0006          LRETR     ; [CPU_ALU] 
    2161                      ; return occurs ; [] 
    2162                      .dwattr $C$DW$136, DW_AT_TI_end_file("C:/ti/ccs1250/ccs/tools/compiler/ti-cgt-c2000_22.6.1.LTS/includ
    2163                      .dwattr $C$DW$136, DW_AT_TI_end_line(0x15d)
    2164                      .dwattr $C$DW$136, DW_AT_TI_end_column(0x30)
    2165                      .dwendentry
    2166                      .dwendtag $C$DW$136
    2167              
    2168 00000000               .sect   ".text:__isnanf"
    2169                      .clink
    2170                      .global ||__isnanf||
    2171              
    2172              $C$DW$141       .dwtag  DW_TAG_subprogram
    2173                      .dwattr $C$DW$141, DW_AT_name("__isnanf")
    2174                      .dwattr $C$DW$141, DW_AT_low_pc(||__isnanf||)
    2175                      .dwattr $C$DW$141, DW_AT_high_pc(0x00)
    2176                      .dwattr $C$DW$141, DW_AT_linkage_name("__isnanf")
    2177                      .dwattr $C$DW$141, DW_AT_external
    2178                      .dwattr $C$DW$141, DW_AT_type(*$C$DW$T$10)
    2179                      .dwattr $C$DW$141, DW_AT_decl_file("C:/ti/ccs1250/ccs/tools/compiler/ti-cgt-c2000_22.6.1.LTS/include/
    2180                      .dwattr $C$DW$141, DW_AT_decl_line(0x158)
    2181                      .dwattr $C$DW$141, DW_AT_decl_column(0x18)
    2182                      .dwattr $C$DW$141, DW_AT_TI_max_frame_size(-2)
    2183                      .dwpsn  file "C:/ti/ccs1250/ccs/tools/compiler/ti-cgt-c2000_22.6.1.LTS/include/_defs.h",line 345,colu
    2184              
TMS320C2000 Assembler PC v22.6.1 Thu Mar 28 17:35:23 2024

Copyright (c) 1996-2018 Texas Instruments Incorporated
llc.asm                                                              PAGE   43

    2185                      .dwfde $C$DW$CIE, ||__isnanf||
    2186              $C$DW$142       .dwtag  DW_TAG_formal_parameter
    2187                      .dwattr $C$DW$142, DW_AT_name("f")
    2188                      .dwattr $C$DW$142, DW_AT_type(*$C$DW$T$16)
    2189                      .dwattr $C$DW$142, DW_AT_location[DW_OP_regx 0x2b]
    2190              
    2191              
    2192              ;***************************************************************
    2193              ;* FNAME: __isnanf                      FR SIZE:   0           *
    2194              ;*                                                             *
    2195              ;* FUNCTION ENVIRONMENT                                        *
    2196              ;*                                                             *
    2197              ;* FUNCTION PROPERTIES                                         *
    2198              ;*                            0 Parameter,  0 Auto,  0 SOE     *
    2199              ;***************************************************************
    2200              
    2201              ||__isnanf||:
    2202              ;* PL    assigned to $O$K3
    2203              ;* AR6   assigned to $O$S1
    2204              ;* R0    assigned to f
    2205              $C$DW$143       .dwtag  DW_TAG_variable
    2206                      .dwattr $C$DW$143, DW_AT_name("f")
    2207                      .dwattr $C$DW$143, DW_AT_type(*$C$DW$T$102)
    2208                      .dwattr $C$DW$143, DW_AT_location[DW_OP_regx 0x2b]
    2209              
    2210                      .dwcfi  cfa_offset, -2
    2211                      .dwcfi  save_reg_to_mem, 26, 0
    2212                      .dwpsn  file "C:/ti/ccs1250/ccs/tools/compiler/ti-cgt-c2000_22.6.1.LTS/include/_defs.h",line 345,colu
    2213 00000000 BFAB          MOV32     P,R0H                 ; [CPU_FPU] |345| 
         00000001 0F12 
    2214 00000002 CCAA          AND       AL,PH,#0x7f80         ; [CPU_ALU] |345| 
         00000003 7F80 
    2215 00000004 80A9          MOVZ      AR7,AL                ; [CPU_ALU] |345| 
    2216 00000005 BE00          MOVB      XAR6,#0               ; [CPU_ALU] |345| 
    2217 00000006 FF20          MOV       ACC,#32640            ; [CPU_ALU] |345| 
         00000007 7F80 
    2218 00000008 0FA7          CMPL      ACC,XAR7              ; [CPU_ALU] |345| 
    2219 00000009 6006          B         ||$C$L6||,NEQ         ; [CPU_ALU] |345| 
    2220                      ; branchcc occurs ; [] |345| 
    2221 0000000a A9A9          MOVL      ACC,P                 ; [CPU_ALU] |345| 
    2222 0000000b 917F          ANDB      AH,#127               ; [CPU_ALU] |345| 
    2223 0000000c FF58          TEST      ACC                   ; [CPU_ALU] |345| 
    2224 0000000d 56B0          MOVB      XAR6,#1,NEQ           ; [CPU_ALU] |345| 
         0000000e 01A6 
    2225 0000000f       ||$C$L6||:    
    2226 0000000f 92A6          MOV       AL,AR6                ; [CPU_ALU] |345| 
    2227              $C$DW$144       .dwtag  DW_TAG_TI_branch
    2228                      .dwattr $C$DW$144, DW_AT_low_pc(0x00)
    2229                      .dwattr $C$DW$144, DW_AT_TI_return
    2230              
    2231 00000010 0006          LRETR     ; [CPU_ALU] 
    2232                      ; return occurs ; [] 
    2233                      .dwattr $C$DW$141, DW_AT_TI_end_file("C:/ti/ccs1250/ccs/tools/compiler/ti-cgt-c2000_22.6.1.LTS/includ
    2234                      .dwattr $C$DW$141, DW_AT_TI_end_line(0x15a)
    2235                      .dwattr $C$DW$141, DW_AT_TI_end_column(0x2e)
TMS320C2000 Assembler PC v22.6.1 Thu Mar 28 17:35:23 2024

Copyright (c) 1996-2018 Texas Instruments Incorporated
llc.asm                                                              PAGE   44

    2236                      .dwendentry
    2237                      .dwendtag $C$DW$141
    2238              
    2239 00000000               .sect   ".text:__isnan"
    2240                      .clink
    2241                      .global ||__isnan||
    2242              
    2243              $C$DW$145       .dwtag  DW_TAG_subprogram
    2244                      .dwattr $C$DW$145, DW_AT_name("__isnan")
    2245                      .dwattr $C$DW$145, DW_AT_low_pc(||__isnan||)
    2246                      .dwattr $C$DW$145, DW_AT_high_pc(0x00)
    2247                      .dwattr $C$DW$145, DW_AT_linkage_name("__isnan")
    2248                      .dwattr $C$DW$145, DW_AT_external
    2249                      .dwattr $C$DW$145, DW_AT_type(*$C$DW$T$10)
    2250                      .dwattr $C$DW$145, DW_AT_decl_file("C:/ti/ccs1250/ccs/tools/compiler/ti-cgt-c2000_22.6.1.LTS/include/
    2251                      .dwattr $C$DW$145, DW_AT_decl_line(0x155)
    2252                      .dwattr $C$DW$145, DW_AT_decl_column(0x18)
    2253                      .dwattr $C$DW$145, DW_AT_TI_max_frame_size(-6)
    2254                      .dwpsn  file "C:/ti/ccs1250/ccs/tools/compiler/ti-cgt-c2000_22.6.1.LTS/include/_defs.h",line 342,colu
    2255              
    2256                      .dwfde $C$DW$CIE, ||__isnan||
    2257              $C$DW$146       .dwtag  DW_TAG_formal_parameter
    2258                      .dwattr $C$DW$146, DW_AT_name("d")
    2259                      .dwattr $C$DW$146, DW_AT_type(*$C$DW$T$107)
    2260                      .dwattr $C$DW$146, DW_AT_location[DW_OP_reg12]
    2261              
    2262              
    2263              ;***************************************************************
    2264              ;* FNAME: __isnan                       FR SIZE:   4           *
    2265              ;*                                                             *
    2266              ;* FUNCTION ENVIRONMENT                                        *
    2267              ;*                                                             *
    2268              ;* FUNCTION PROPERTIES                                         *
    2269              ;*                            4 Parameter,  0 Auto,  0 SOE     *
    2270              ;***************************************************************
    2271              
    2272              ||__isnan||:
    2273              ;* AR7   assigned to $O$C2
    2274              ;* AR4   assigned to $O$S1
    2275              ;* AR4   assigned to d
    2276              $C$DW$147       .dwtag  DW_TAG_variable
    2277                      .dwattr $C$DW$147, DW_AT_name("d")
    2278                      .dwattr $C$DW$147, DW_AT_type(*$C$DW$T$108)
    2279                      .dwattr $C$DW$147, DW_AT_location[DW_OP_reg12]
    2280              
    2281                      .dwcfi  cfa_offset, -2
    2282                      .dwcfi  save_reg_to_mem, 26, 0
    2283 00000000 FE04          ADDB      SP,#4                 ; [CPU_ARAU] 
    2284                      .dwcfi  cfa_offset, -6
    2285                      .dwpsn  file "C:/ti/ccs1250/ccs/tools/compiler/ti-cgt-c2000_22.6.1.LTS/include/_defs.h",line 342,colu
    2286 00000001 C5C4          MOVL      XAR7,*+XAR4[0]        ; [CPU_ALU] |342| 
    2287 00000002 06D4          MOVL      ACC,*+XAR4[2]         ; [CPU_ALU] |342| 
    2288 00000003 28AC          MOV       T,#48                 ; [CPU_ALU] |342| 
         00000004 0030 
    2289 00000005 1EA6          MOVL      XAR6,ACC              ; [CPU_ALU] |342| 
TMS320C2000 Assembler PC v22.6.1 Thu Mar 28 17:35:23 2024

Copyright (c) 1996-2018 Texas Instruments Incorporated
llc.asm                                                              PAGE   45

    2290 00000006 A3A7          MOVL      P,XAR7                ; [CPU_ALU] |342| 
    2291 00000007 D400          MOVB      XAR4,#0               ; [CPU_ALU] |342| 
    2292 00000008 565B          LSR64     ACC:P,T               ; [CPU_ALU] |342| 
    2293 00000009 2BAA          MOV       PH,#0                 ; [CPU_ALU] |342| 
    2294 0000000a 18AB          AND       PL,#0x7ff0            ; [CPU_ALU] |342| 
         0000000b 7FF0 
    2295 0000000c FF20          MOV       ACC,#32752            ; [CPU_ALU] |342| 
         0000000d 7FF0 
    2296 0000000e 0FAB          CMPL      ACC,P                 ; [CPU_ALU] |342| 
    2297 0000000f 6013          B         ||$C$L7||,NEQ         ; [CPU_ALU] |342| 
    2298                      ; branchcc occurs ; [] |342| 
    2299 00000010 06A6          MOVL      ACC,XAR6              ; [CPU_ALU] |342| 
    2300 00000011 A3A7          MOVL      P,XAR7                ; [CPU_ALU] |342| 
    2301 00000012 BE00          MOVB      XAR6,#0               ; [CPU_ALU] |342| 
    2302 00000013 18A9          AND       AL,#65535             ; [CPU_ALU] |342| 
         00000014 FFFF 
    2303 00000015 910F          ANDB      AH,#15                ; [CPU_ALU] |342| 
    2304 00000016 18AB          AND       PL,#65535             ; [CPU_ALU] |342| 
         00000017 FFFF 
    2305 00000018 18AA          AND       PH,#65535             ; [CPU_ALU] |342| 
         00000019 FFFF 
    2306 0000001a C244          MOVL      *-SP[4],XAR6          ; [CPU_FPU] |342| 
    2307 0000001b 2B42          MOV       *-SP[2],#0            ; [CPU_FPU] |342| 
    2308 0000001c 2B41          MOV       *-SP[1],#0            ; [CPU_FPU] |342| 
    2309              $C$DW$148       .dwtag  DW_TAG_TI_branch
    2310                      .dwattr $C$DW$148, DW_AT_low_pc(0x00)
    2311                      .dwattr $C$DW$148, DW_AT_name("__c28xabi_cmpull")
    2312                      .dwattr $C$DW$148, DW_AT_TI_call
    2313              
    2314 0000001d 7640!         LCR       #||__c28xabi_cmpull|| ; [CPU_ALU] |342| 
         0000001e 0000 
    2315                      ; call occurs [#||__c28xabi_cmpull||] ; [] |342| 
    2316 0000001f 5200          CMPB      AL,#0                 ; [CPU_ALU] |342| 
    2317 00000020 56B0          MOVB      XAR4,#1,NEQ           ; [CPU_ALU] |342| 
         00000021 01A4 
    2318 00000022       ||$C$L7||:    
    2319 00000022 FE84          SUBB      SP,#4                 ; [CPU_ARAU] 
    2320                      .dwcfi  cfa_offset, -2
    2321 00000023 92A4          MOV       AL,AR4                ; [CPU_ALU] |342| 
    2322              $C$DW$149       .dwtag  DW_TAG_TI_branch
    2323                      .dwattr $C$DW$149, DW_AT_low_pc(0x00)
    2324                      .dwattr $C$DW$149, DW_AT_TI_return
    2325              
    2326 00000024 0006          LRETR     ; [CPU_ALU] 
    2327                      ; return occurs ; [] 
    2328                      .dwattr $C$DW$145, DW_AT_TI_end_file("C:/ti/ccs1250/ccs/tools/compiler/ti-cgt-c2000_22.6.1.LTS/includ
    2329                      .dwattr $C$DW$145, DW_AT_TI_end_line(0x157)
    2330                      .dwattr $C$DW$145, DW_AT_TI_end_column(0x2f)
    2331                      .dwendentry
    2332                      .dwendtag $C$DW$145
    2333              
    2334 00000000               .sect   ".text:__isinfl"
    2335                      .clink
    2336                      .global ||__isinfl||
    2337              
TMS320C2000 Assembler PC v22.6.1 Thu Mar 28 17:35:23 2024

Copyright (c) 1996-2018 Texas Instruments Incorporated
llc.asm                                                              PAGE   46

    2338              $C$DW$150       .dwtag  DW_TAG_subprogram
    2339                      .dwattr $C$DW$150, DW_AT_name("__isinfl")
    2340                      .dwattr $C$DW$150, DW_AT_low_pc(||__isinfl||)
    2341                      .dwattr $C$DW$150, DW_AT_high_pc(0x00)
    2342                      .dwattr $C$DW$150, DW_AT_linkage_name("__isinfl")
    2343                      .dwattr $C$DW$150, DW_AT_external
    2344                      .dwattr $C$DW$150, DW_AT_type(*$C$DW$T$10)
    2345                      .dwattr $C$DW$150, DW_AT_decl_file("C:/ti/ccs1250/ccs/tools/compiler/ti-cgt-c2000_22.6.1.LTS/include/
    2346                      .dwattr $C$DW$150, DW_AT_decl_line(0x17a)
    2347                      .dwattr $C$DW$150, DW_AT_decl_column(0x18)
    2348                      .dwattr $C$DW$150, DW_AT_TI_max_frame_size(-6)
    2349                      .dwpsn  file "C:/ti/ccs1250/ccs/tools/compiler/ti-cgt-c2000_22.6.1.LTS/include/_defs.h",line 379,colu
    2350              
    2351                      .dwfde $C$DW$CIE, ||__isinfl||
    2352              $C$DW$151       .dwtag  DW_TAG_formal_parameter
    2353                      .dwattr $C$DW$151, DW_AT_name("e")
    2354                      .dwattr $C$DW$151, DW_AT_type(*$C$DW$T$110)
    2355                      .dwattr $C$DW$151, DW_AT_location[DW_OP_reg12]
    2356              
    2357              
    2358              ;***************************************************************
    2359              ;* FNAME: __isinfl                      FR SIZE:   4           *
    2360              ;*                                                             *
    2361              ;* FUNCTION ENVIRONMENT                                        *
    2362              ;*                                                             *
    2363              ;* FUNCTION PROPERTIES                                         *
    2364              ;*                            4 Parameter,  0 Auto,  0 SOE     *
    2365              ;***************************************************************
    2366              
    2367              ||__isinfl||:
    2368              ;* AR7   assigned to $O$C2
    2369              ;* AR4   assigned to $O$S1
    2370              ;* AR4   assigned to e
    2371              $C$DW$152       .dwtag  DW_TAG_variable
    2372                      .dwattr $C$DW$152, DW_AT_name("e")
    2373                      .dwattr $C$DW$152, DW_AT_type(*$C$DW$T$111)
    2374                      .dwattr $C$DW$152, DW_AT_location[DW_OP_reg12]
    2375              
    2376                      .dwcfi  cfa_offset, -2
    2377                      .dwcfi  save_reg_to_mem, 26, 0
    2378 00000000 FE04          ADDB      SP,#4                 ; [CPU_ARAU] 
    2379                      .dwcfi  cfa_offset, -6
    2380                      .dwpsn  file "C:/ti/ccs1250/ccs/tools/compiler/ti-cgt-c2000_22.6.1.LTS/include/_defs.h",line 379,colu
    2381 00000001 C5C4          MOVL      XAR7,*+XAR4[0]        ; [CPU_ALU] |379| 
    2382 00000002 06D4          MOVL      ACC,*+XAR4[2]         ; [CPU_ALU] |379| 
    2383 00000003 28AC          MOV       T,#48                 ; [CPU_ALU] |379| 
         00000004 0030 
    2384 00000005 1EA6          MOVL      XAR6,ACC              ; [CPU_ALU] |379| 
    2385 00000006 A3A7          MOVL      P,XAR7                ; [CPU_ALU] |379| 
    2386 00000007 D400          MOVB      XAR4,#0               ; [CPU_ALU] |379| 
    2387 00000008 565B          LSR64     ACC:P,T               ; [CPU_ALU] |379| 
    2388 00000009 2BAA          MOV       PH,#0                 ; [CPU_ALU] |379| 
    2389 0000000a 18AB          AND       PL,#0x7ff0            ; [CPU_ALU] |379| 
         0000000b 7FF0 
    2390 0000000c FF20          MOV       ACC,#32752            ; [CPU_ALU] |379| 
TMS320C2000 Assembler PC v22.6.1 Thu Mar 28 17:35:23 2024

Copyright (c) 1996-2018 Texas Instruments Incorporated
llc.asm                                                              PAGE   47

         0000000d 7FF0 
    2391 0000000e 0FAB          CMPL      ACC,P                 ; [CPU_ALU] |379| 
    2392 0000000f 6013          B         ||$C$L8||,NEQ         ; [CPU_ALU] |379| 
    2393                      ; branchcc occurs ; [] |379| 
    2394 00000010 06A6          MOVL      ACC,XAR6              ; [CPU_ALU] |379| 
    2395 00000011 A3A7          MOVL      P,XAR7                ; [CPU_ALU] |379| 
    2396 00000012 BE00          MOVB      XAR6,#0               ; [CPU_ALU] |379| 
    2397 00000013 18A9          AND       AL,#65535             ; [CPU_ALU] |379| 
         00000014 FFFF 
    2398 00000015 910F          ANDB      AH,#15                ; [CPU_ALU] |379| 
    2399 00000016 18AB          AND       PL,#65535             ; [CPU_ALU] |379| 
         00000017 FFFF 
    2400 00000018 18AA          AND       PH,#65535             ; [CPU_ALU] |379| 
         00000019 FFFF 
    2401 0000001a C244          MOVL      *-SP[4],XAR6          ; [CPU_FPU] |379| 
    2402 0000001b 2B42          MOV       *-SP[2],#0            ; [CPU_FPU] |379| 
    2403 0000001c 2B41          MOV       *-SP[1],#0            ; [CPU_FPU] |379| 
    2404              $C$DW$153       .dwtag  DW_TAG_TI_branch
    2405                      .dwattr $C$DW$153, DW_AT_low_pc(0x00)
    2406                      .dwattr $C$DW$153, DW_AT_name("__c28xabi_cmpull")
    2407                      .dwattr $C$DW$153, DW_AT_TI_call
    2408              
    2409 0000001d 7640!         LCR       #||__c28xabi_cmpull|| ; [CPU_ALU] |379| 
         0000001e 0000 
    2410                      ; call occurs [#||__c28xabi_cmpull||] ; [] |379| 
    2411 0000001f 5200          CMPB      AL,#0                 ; [CPU_ALU] |379| 
    2412 00000020 56B1          MOVB      XAR4,#1,EQ            ; [CPU_ALU] |379| 
         00000021 01A4 
    2413 00000022       ||$C$L8||:    
    2414 00000022 FE84          SUBB      SP,#4                 ; [CPU_ARAU] 
    2415                      .dwcfi  cfa_offset, -2
    2416 00000023 92A4          MOV       AL,AR4                ; [CPU_ALU] |379| 
    2417              $C$DW$154       .dwtag  DW_TAG_TI_branch
    2418                      .dwattr $C$DW$154, DW_AT_low_pc(0x00)
    2419                      .dwattr $C$DW$154, DW_AT_TI_return
    2420              
    2421 00000024 0006          LRETR     ; [CPU_ALU] 
    2422                      ; return occurs ; [] 
    2423                      .dwattr $C$DW$150, DW_AT_TI_end_file("C:/ti/ccs1250/ccs/tools/compiler/ti-cgt-c2000_22.6.1.LTS/includ
    2424                      .dwattr $C$DW$150, DW_AT_TI_end_line(0x17b)
    2425                      .dwattr $C$DW$150, DW_AT_TI_end_column(0x4c)
    2426                      .dwendentry
    2427                      .dwendtag $C$DW$150
    2428              
    2429 00000000               .sect   ".text:__isinff"
    2430                      .clink
    2431                      .global ||__isinff||
    2432              
    2433              $C$DW$155       .dwtag  DW_TAG_subprogram
    2434                      .dwattr $C$DW$155, DW_AT_name("__isinff")
    2435                      .dwattr $C$DW$155, DW_AT_low_pc(||__isinff||)
    2436                      .dwattr $C$DW$155, DW_AT_high_pc(0x00)
    2437                      .dwattr $C$DW$155, DW_AT_linkage_name("__isinff")
    2438                      .dwattr $C$DW$155, DW_AT_external
    2439                      .dwattr $C$DW$155, DW_AT_type(*$C$DW$T$10)
TMS320C2000 Assembler PC v22.6.1 Thu Mar 28 17:35:23 2024

Copyright (c) 1996-2018 Texas Instruments Incorporated
llc.asm                                                              PAGE   48

    2440                      .dwattr $C$DW$155, DW_AT_decl_file("C:/ti/ccs1250/ccs/tools/compiler/ti-cgt-c2000_22.6.1.LTS/include/
    2441                      .dwattr $C$DW$155, DW_AT_decl_line(0x176)
    2442                      .dwattr $C$DW$155, DW_AT_decl_column(0x18)
    2443                      .dwattr $C$DW$155, DW_AT_TI_max_frame_size(-2)
    2444                      .dwpsn  file "C:/ti/ccs1250/ccs/tools/compiler/ti-cgt-c2000_22.6.1.LTS/include/_defs.h",line 375,colu
    2445              
    2446                      .dwfde $C$DW$CIE, ||__isinff||
    2447              $C$DW$156       .dwtag  DW_TAG_formal_parameter
    2448                      .dwattr $C$DW$156, DW_AT_name("f")
    2449                      .dwattr $C$DW$156, DW_AT_type(*$C$DW$T$16)
    2450                      .dwattr $C$DW$156, DW_AT_location[DW_OP_regx 0x2b]
    2451              
    2452              
    2453              ;***************************************************************
    2454              ;* FNAME: __isinff                      FR SIZE:   0           *
    2455              ;*                                                             *
    2456              ;* FUNCTION ENVIRONMENT                                        *
    2457              ;*                                                             *
    2458              ;* FUNCTION PROPERTIES                                         *
    2459              ;*                            0 Parameter,  0 Auto,  0 SOE     *
    2460              ;***************************************************************
    2461              
    2462              ||__isinff||:
    2463              ;* PL    assigned to $O$K3
    2464              ;* AR6   assigned to $O$S1
    2465              ;* R0    assigned to f
    2466              $C$DW$157       .dwtag  DW_TAG_variable
    2467                      .dwattr $C$DW$157, DW_AT_name("f")
    2468                      .dwattr $C$DW$157, DW_AT_type(*$C$DW$T$102)
    2469                      .dwattr $C$DW$157, DW_AT_location[DW_OP_regx 0x2b]
    2470              
    2471                      .dwcfi  cfa_offset, -2
    2472                      .dwcfi  save_reg_to_mem, 26, 0
    2473                      .dwpsn  file "C:/ti/ccs1250/ccs/tools/compiler/ti-cgt-c2000_22.6.1.LTS/include/_defs.h",line 375,colu
    2474 00000000 BFAB          MOV32     P,R0H                 ; [CPU_FPU] |375| 
         00000001 0F12 
    2475 00000002 CCAA          AND       AL,PH,#0x7f80         ; [CPU_ALU] |375| 
         00000003 7F80 
    2476 00000004 80A9          MOVZ      AR7,AL                ; [CPU_ALU] |375| 
    2477 00000005 BE00          MOVB      XAR6,#0               ; [CPU_ALU] |375| 
    2478 00000006 FF20          MOV       ACC,#32640            ; [CPU_ALU] |375| 
         00000007 7F80 
    2479 00000008 0FA7          CMPL      ACC,XAR7              ; [CPU_ALU] |375| 
    2480 00000009 6006          B         ||$C$L9||,NEQ         ; [CPU_ALU] |375| 
    2481                      ; branchcc occurs ; [] |375| 
    2482 0000000a A9A9          MOVL      ACC,P                 ; [CPU_ALU] |375| 
    2483 0000000b 917F          ANDB      AH,#127               ; [CPU_ALU] |375| 
    2484 0000000c FF58          TEST      ACC                   ; [CPU_ALU] |375| 
    2485 0000000d 56B1          MOVB      XAR6,#1,EQ            ; [CPU_ALU] |375| 
         0000000e 01A6 
    2486 0000000f       ||$C$L9||:    
    2487 0000000f 92A6          MOV       AL,AR6                ; [CPU_ALU] |375| 
    2488              $C$DW$158       .dwtag  DW_TAG_TI_branch
    2489                      .dwattr $C$DW$158, DW_AT_low_pc(0x00)
    2490                      .dwattr $C$DW$158, DW_AT_TI_return
TMS320C2000 Assembler PC v22.6.1 Thu Mar 28 17:35:23 2024

Copyright (c) 1996-2018 Texas Instruments Incorporated
llc.asm                                                              PAGE   49

    2491              
    2492 00000010 0006          LRETR     ; [CPU_ALU] 
    2493                      ; return occurs ; [] 
    2494                      .dwattr $C$DW$155, DW_AT_TI_end_file("C:/ti/ccs1250/ccs/tools/compiler/ti-cgt-c2000_22.6.1.LTS/includ
    2495                      .dwattr $C$DW$155, DW_AT_TI_end_line(0x177)
    2496                      .dwattr $C$DW$155, DW_AT_TI_end_column(0x48)
    2497                      .dwendentry
    2498                      .dwendtag $C$DW$155
    2499              
    2500 00000000               .sect   ".text:__isinf"
    2501                      .clink
    2502                      .global ||__isinf||
    2503              
    2504              $C$DW$159       .dwtag  DW_TAG_subprogram
    2505                      .dwattr $C$DW$159, DW_AT_name("__isinf")
    2506                      .dwattr $C$DW$159, DW_AT_low_pc(||__isinf||)
    2507                      .dwattr $C$DW$159, DW_AT_high_pc(0x00)
    2508                      .dwattr $C$DW$159, DW_AT_linkage_name("__isinf")
    2509                      .dwattr $C$DW$159, DW_AT_external
    2510                      .dwattr $C$DW$159, DW_AT_type(*$C$DW$T$10)
    2511                      .dwattr $C$DW$159, DW_AT_decl_file("C:/ti/ccs1250/ccs/tools/compiler/ti-cgt-c2000_22.6.1.LTS/include/
    2512                      .dwattr $C$DW$159, DW_AT_decl_line(0x178)
    2513                      .dwattr $C$DW$159, DW_AT_decl_column(0x18)
    2514                      .dwattr $C$DW$159, DW_AT_TI_max_frame_size(-6)
    2515                      .dwpsn  file "C:/ti/ccs1250/ccs/tools/compiler/ti-cgt-c2000_22.6.1.LTS/include/_defs.h",line 377,colu
    2516              
    2517                      .dwfde $C$DW$CIE, ||__isinf||
    2518              $C$DW$160       .dwtag  DW_TAG_formal_parameter
    2519                      .dwattr $C$DW$160, DW_AT_name("d")
    2520                      .dwattr $C$DW$160, DW_AT_type(*$C$DW$T$107)
    2521                      .dwattr $C$DW$160, DW_AT_location[DW_OP_reg12]
    2522              
    2523              
    2524              ;***************************************************************
    2525              ;* FNAME: __isinf                       FR SIZE:   4           *
    2526              ;*                                                             *
    2527              ;* FUNCTION ENVIRONMENT                                        *
    2528              ;*                                                             *
    2529              ;* FUNCTION PROPERTIES                                         *
    2530              ;*                            4 Parameter,  0 Auto,  0 SOE     *
    2531              ;***************************************************************
    2532              
    2533              ||__isinf||:
    2534              ;* AR7   assigned to $O$C2
    2535              ;* AR4   assigned to $O$S1
    2536              ;* AR4   assigned to d
    2537              $C$DW$161       .dwtag  DW_TAG_variable
    2538                      .dwattr $C$DW$161, DW_AT_name("d")
    2539                      .dwattr $C$DW$161, DW_AT_type(*$C$DW$T$108)
    2540                      .dwattr $C$DW$161, DW_AT_location[DW_OP_reg12]
    2541              
    2542                      .dwcfi  cfa_offset, -2
    2543                      .dwcfi  save_reg_to_mem, 26, 0
    2544 00000000 FE04          ADDB      SP,#4                 ; [CPU_ARAU] 
    2545                      .dwcfi  cfa_offset, -6
TMS320C2000 Assembler PC v22.6.1 Thu Mar 28 17:35:23 2024

Copyright (c) 1996-2018 Texas Instruments Incorporated
llc.asm                                                              PAGE   50

    2546                      .dwpsn  file "C:/ti/ccs1250/ccs/tools/compiler/ti-cgt-c2000_22.6.1.LTS/include/_defs.h",line 377,colu
    2547 00000001 C5C4          MOVL      XAR7,*+XAR4[0]        ; [CPU_ALU] |377| 
    2548 00000002 06D4          MOVL      ACC,*+XAR4[2]         ; [CPU_ALU] |377| 
    2549 00000003 28AC          MOV       T,#48                 ; [CPU_ALU] |377| 
         00000004 0030 
    2550 00000005 1EA6          MOVL      XAR6,ACC              ; [CPU_ALU] |377| 
    2551 00000006 A3A7          MOVL      P,XAR7                ; [CPU_ALU] |377| 
    2552 00000007 D400          MOVB      XAR4,#0               ; [CPU_ALU] |377| 
    2553 00000008 565B          LSR64     ACC:P,T               ; [CPU_ALU] |377| 
    2554 00000009 2BAA          MOV       PH,#0                 ; [CPU_ALU] |377| 
    2555 0000000a 18AB          AND       PL,#0x7ff0            ; [CPU_ALU] |377| 
         0000000b 7FF0 
    2556 0000000c FF20          MOV       ACC,#32752            ; [CPU_ALU] |377| 
         0000000d 7FF0 
    2557 0000000e 0FAB          CMPL      ACC,P                 ; [CPU_ALU] |377| 
    2558 0000000f 6013          B         ||$C$L10||,NEQ        ; [CPU_ALU] |377| 
    2559                      ; branchcc occurs ; [] |377| 
    2560 00000010 06A6          MOVL      ACC,XAR6              ; [CPU_ALU] |377| 
    2561 00000011 A3A7          MOVL      P,XAR7                ; [CPU_ALU] |377| 
    2562 00000012 BE00          MOVB      XAR6,#0               ; [CPU_ALU] |377| 
    2563 00000013 18A9          AND       AL,#65535             ; [CPU_ALU] |377| 
         00000014 FFFF 
    2564 00000015 910F          ANDB      AH,#15                ; [CPU_ALU] |377| 
    2565 00000016 18AB          AND       PL,#65535             ; [CPU_ALU] |377| 
         00000017 FFFF 
    2566 00000018 18AA          AND       PH,#65535             ; [CPU_ALU] |377| 
         00000019 FFFF 
    2567 0000001a C244          MOVL      *-SP[4],XAR6          ; [CPU_FPU] |377| 
    2568 0000001b 2B42          MOV       *-SP[2],#0            ; [CPU_FPU] |377| 
    2569 0000001c 2B41          MOV       *-SP[1],#0            ; [CPU_FPU] |377| 
    2570              $C$DW$162       .dwtag  DW_TAG_TI_branch
    2571                      .dwattr $C$DW$162, DW_AT_low_pc(0x00)
    2572                      .dwattr $C$DW$162, DW_AT_name("__c28xabi_cmpull")
    2573                      .dwattr $C$DW$162, DW_AT_TI_call
    2574              
    2575 0000001d 7640!         LCR       #||__c28xabi_cmpull|| ; [CPU_ALU] |377| 
         0000001e 0000 
    2576                      ; call occurs [#||__c28xabi_cmpull||] ; [] |377| 
    2577 0000001f 5200          CMPB      AL,#0                 ; [CPU_ALU] |377| 
    2578 00000020 56B1          MOVB      XAR4,#1,EQ            ; [CPU_ALU] |377| 
         00000021 01A4 
    2579 00000022       ||$C$L10||:    
    2580 00000022 FE84          SUBB      SP,#4                 ; [CPU_ARAU] 
    2581                      .dwcfi  cfa_offset, -2
    2582 00000023 92A4          MOV       AL,AR4                ; [CPU_ALU] |377| 
    2583              $C$DW$163       .dwtag  DW_TAG_TI_branch
    2584                      .dwattr $C$DW$163, DW_AT_low_pc(0x00)
    2585                      .dwattr $C$DW$163, DW_AT_TI_return
    2586              
    2587 00000024 0006          LRETR     ; [CPU_ALU] 
    2588                      ; return occurs ; [] 
    2589                      .dwattr $C$DW$159, DW_AT_TI_end_file("C:/ti/ccs1250/ccs/tools/compiler/ti-cgt-c2000_22.6.1.LTS/includ
    2590                      .dwattr $C$DW$159, DW_AT_TI_end_line(0x179)
    2591                      .dwattr $C$DW$159, DW_AT_TI_end_column(0x4a)
    2592                      .dwendentry
TMS320C2000 Assembler PC v22.6.1 Thu Mar 28 17:35:23 2024

Copyright (c) 1996-2018 Texas Instruments Incorporated
llc.asm                                                              PAGE   51

    2593                      .dwendtag $C$DW$159
    2594              
    2595 00000000               .sect   ".text:__isfinitel"
    2596                      .clink
    2597                      .global ||__isfinitel||
    2598              
    2599              $C$DW$164       .dwtag  DW_TAG_subprogram
    2600                      .dwattr $C$DW$164, DW_AT_name("__isfinitel")
    2601                      .dwattr $C$DW$164, DW_AT_low_pc(||__isfinitel||)
    2602                      .dwattr $C$DW$164, DW_AT_high_pc(0x00)
    2603                      .dwattr $C$DW$164, DW_AT_linkage_name("__isfinitel")
    2604                      .dwattr $C$DW$164, DW_AT_external
    2605                      .dwattr $C$DW$164, DW_AT_type(*$C$DW$T$10)
    2606                      .dwattr $C$DW$164, DW_AT_decl_file("C:/ti/ccs1250/ccs/tools/compiler/ti-cgt-c2000_22.6.1.LTS/include/
    2607                      .dwattr $C$DW$164, DW_AT_decl_line(0x152)
    2608                      .dwattr $C$DW$164, DW_AT_decl_column(0x18)
    2609                      .dwattr $C$DW$164, DW_AT_TI_max_frame_size(-2)
    2610                      .dwpsn  file "C:/ti/ccs1250/ccs/tools/compiler/ti-cgt-c2000_22.6.1.LTS/include/_defs.h",line 339,colu
    2611              
    2612                      .dwfde $C$DW$CIE, ||__isfinitel||
    2613              $C$DW$165       .dwtag  DW_TAG_formal_parameter
    2614                      .dwattr $C$DW$165, DW_AT_name("e")
    2615                      .dwattr $C$DW$165, DW_AT_type(*$C$DW$T$110)
    2616                      .dwattr $C$DW$165, DW_AT_location[DW_OP_reg12]
    2617              
    2618              
    2619              ;***************************************************************
    2620              ;* FNAME: __isfinitel                   FR SIZE:   0           *
    2621              ;*                                                             *
    2622              ;* FUNCTION ENVIRONMENT                                        *
    2623              ;*                                                             *
    2624              ;* FUNCTION PROPERTIES                                         *
    2625              ;*                            0 Parameter,  0 Auto,  0 SOE     *
    2626              ;***************************************************************
    2627              
    2628              ||__isfinitel||:
    2629              ;* AR4   assigned to e
    2630              $C$DW$166       .dwtag  DW_TAG_variable
    2631                      .dwattr $C$DW$166, DW_AT_name("e")
    2632                      .dwattr $C$DW$166, DW_AT_type(*$C$DW$T$111)
    2633                      .dwattr $C$DW$166, DW_AT_location[DW_OP_reg12]
    2634              
    2635                      .dwcfi  cfa_offset, -2
    2636                      .dwcfi  save_reg_to_mem, 26, 0
    2637                      .dwpsn  file "C:/ti/ccs1250/ccs/tools/compiler/ti-cgt-c2000_22.6.1.LTS/include/_defs.h",line 339,colu
    2638 00000000 A3C4          MOVL      P,*+XAR4[0]           ; [CPU_ALU] |339| 
    2639 00000001 06D4          MOVL      ACC,*+XAR4[2]         ; [CPU_ALU] |339| 
    2640 00000002 28AC          MOV       T,#48                 ; [CPU_ALU] |339| 
         00000003 0030 
    2641 00000004 565B          LSR64     ACC:P,T               ; [CPU_ALU] |339| 
    2642 00000005 18AB          AND       PL,#0x7ff0            ; [CPU_ALU] |339| 
         00000006 7FF0 
    2643 00000007 80AB          MOVZ      AR7,PL                ; [CPU_ALU] |339| 
    2644 00000008 FF20          MOV       ACC,#32752            ; [CPU_ALU] |339| 
         00000009 7FF0 
TMS320C2000 Assembler PC v22.6.1 Thu Mar 28 17:35:23 2024

Copyright (c) 1996-2018 Texas Instruments Incorporated
llc.asm                                                              PAGE   52

    2645 0000000a BE00          MOVB      XAR6,#0               ; [CPU_ALU] |339| 
    2646 0000000b 0FA7          CMPL      ACC,XAR7              ; [CPU_ALU] |339| 
    2647 0000000c 56B0          MOVB      XAR6,#1,NEQ           ; [CPU_ALU] |339| 
         0000000d 01A6 
    2648 0000000e 92A6          MOV       AL,AR6                ; [CPU_ALU] |339| 
    2649              $C$DW$167       .dwtag  DW_TAG_TI_branch
    2650                      .dwattr $C$DW$167, DW_AT_low_pc(0x00)
    2651                      .dwattr $C$DW$167, DW_AT_TI_return
    2652              
    2653 0000000f 0006          LRETR     ; [CPU_ALU] 
    2654                      ; return occurs ; [] 
    2655                      .dwattr $C$DW$164, DW_AT_TI_end_file("C:/ti/ccs1250/ccs/tools/compiler/ti-cgt-c2000_22.6.1.LTS/includ
    2656                      .dwattr $C$DW$164, DW_AT_TI_end_line(0x153)
    2657                      .dwattr $C$DW$164, DW_AT_TI_end_column(0x2f)
    2658                      .dwendentry
    2659                      .dwendtag $C$DW$164
    2660              
    2661 00000000               .sect   ".text:__isfinitef"
    2662                      .clink
    2663                      .global ||__isfinitef||
    2664              
    2665              $C$DW$168       .dwtag  DW_TAG_subprogram
    2666                      .dwattr $C$DW$168, DW_AT_name("__isfinitef")
    2667                      .dwattr $C$DW$168, DW_AT_low_pc(||__isfinitef||)
    2668                      .dwattr $C$DW$168, DW_AT_high_pc(0x00)
    2669                      .dwattr $C$DW$168, DW_AT_linkage_name("__isfinitef")
    2670                      .dwattr $C$DW$168, DW_AT_external
    2671                      .dwattr $C$DW$168, DW_AT_type(*$C$DW$T$10)
    2672                      .dwattr $C$DW$168, DW_AT_decl_file("C:/ti/ccs1250/ccs/tools/compiler/ti-cgt-c2000_22.6.1.LTS/include/
    2673                      .dwattr $C$DW$168, DW_AT_decl_line(0x150)
    2674                      .dwattr $C$DW$168, DW_AT_decl_column(0x18)
    2675                      .dwattr $C$DW$168, DW_AT_TI_max_frame_size(-2)
    2676                      .dwpsn  file "C:/ti/ccs1250/ccs/tools/compiler/ti-cgt-c2000_22.6.1.LTS/include/_defs.h",line 337,colu
    2677              
    2678                      .dwfde $C$DW$CIE, ||__isfinitef||
    2679              $C$DW$169       .dwtag  DW_TAG_formal_parameter
    2680                      .dwattr $C$DW$169, DW_AT_name("f")
    2681                      .dwattr $C$DW$169, DW_AT_type(*$C$DW$T$16)
    2682                      .dwattr $C$DW$169, DW_AT_location[DW_OP_regx 0x2b]
    2683              
    2684              
    2685              ;***************************************************************
    2686              ;* FNAME: __isfinitef                   FR SIZE:   0           *
    2687              ;*                                                             *
    2688              ;* FUNCTION ENVIRONMENT                                        *
    2689              ;*                                                             *
    2690              ;* FUNCTION PROPERTIES                                         *
    2691              ;*                            0 Parameter,  0 Auto,  0 SOE     *
    2692              ;***************************************************************
    2693              
    2694              ||__isfinitef||:
    2695              ;* R0    assigned to f
    2696              $C$DW$170       .dwtag  DW_TAG_variable
    2697                      .dwattr $C$DW$170, DW_AT_name("f")
    2698                      .dwattr $C$DW$170, DW_AT_type(*$C$DW$T$102)
TMS320C2000 Assembler PC v22.6.1 Thu Mar 28 17:35:23 2024

Copyright (c) 1996-2018 Texas Instruments Incorporated
llc.asm                                                              PAGE   53

    2699                      .dwattr $C$DW$170, DW_AT_location[DW_OP_regx 0x2b]
    2700              
    2701                      .dwcfi  cfa_offset, -2
    2702                      .dwcfi  save_reg_to_mem, 26, 0
    2703                      .dwpsn  file "C:/ti/ccs1250/ccs/tools/compiler/ti-cgt-c2000_22.6.1.LTS/include/_defs.h",line 337,colu
    2704 00000000 BFAB          MOV32     P,R0H                 ; [CPU_FPU] |337| 
         00000001 0F12 
    2705 00000002 18AA          AND       PH,#0x7f80            ; [CPU_ALU] |337| 
         00000003 7F80 
    2706 00000004 80AA          MOVZ      AR7,PH                ; [CPU_ALU] |337| 
    2707 00000005 FF20          MOV       ACC,#32640            ; [CPU_ALU] |337| 
         00000006 7F80 
    2708 00000007 BE00          MOVB      XAR6,#0               ; [CPU_ALU] |337| 
    2709 00000008 0FA7          CMPL      ACC,XAR7              ; [CPU_ALU] |337| 
    2710 00000009 56B0          MOVB      XAR6,#1,NEQ           ; [CPU_ALU] |337| 
         0000000a 01A6 
    2711 0000000b 92A6          MOV       AL,AR6                ; [CPU_ALU] |337| 
    2712              $C$DW$171       .dwtag  DW_TAG_TI_branch
    2713                      .dwattr $C$DW$171, DW_AT_low_pc(0x00)
    2714                      .dwattr $C$DW$171, DW_AT_TI_return
    2715              
    2716 0000000c 0006          LRETR     ; [CPU_ALU] 
    2717                      ; return occurs ; [] 
    2718                      .dwattr $C$DW$168, DW_AT_TI_end_file("C:/ti/ccs1250/ccs/tools/compiler/ti-cgt-c2000_22.6.1.LTS/includ
    2719                      .dwattr $C$DW$168, DW_AT_TI_end_line(0x151)
    2720                      .dwattr $C$DW$168, DW_AT_TI_end_column(0x2d)
    2721                      .dwendentry
    2722                      .dwendtag $C$DW$168
    2723              
    2724 00000000               .sect   ".text:__isfinite"
    2725                      .clink
    2726                      .global ||__isfinite||
    2727              
    2728              $C$DW$172       .dwtag  DW_TAG_subprogram
    2729                      .dwattr $C$DW$172, DW_AT_name("__isfinite")
    2730                      .dwattr $C$DW$172, DW_AT_low_pc(||__isfinite||)
    2731                      .dwattr $C$DW$172, DW_AT_high_pc(0x00)
    2732                      .dwattr $C$DW$172, DW_AT_linkage_name("__isfinite")
    2733                      .dwattr $C$DW$172, DW_AT_external
    2734                      .dwattr $C$DW$172, DW_AT_type(*$C$DW$T$10)
    2735                      .dwattr $C$DW$172, DW_AT_decl_file("C:/ti/ccs1250/ccs/tools/compiler/ti-cgt-c2000_22.6.1.LTS/include/
    2736                      .dwattr $C$DW$172, DW_AT_decl_line(0x14e)
    2737                      .dwattr $C$DW$172, DW_AT_decl_column(0x18)
    2738                      .dwattr $C$DW$172, DW_AT_TI_max_frame_size(-2)
    2739                      .dwpsn  file "C:/ti/ccs1250/ccs/tools/compiler/ti-cgt-c2000_22.6.1.LTS/include/_defs.h",line 335,colu
    2740              
    2741                      .dwfde $C$DW$CIE, ||__isfinite||
    2742              $C$DW$173       .dwtag  DW_TAG_formal_parameter
    2743                      .dwattr $C$DW$173, DW_AT_name("d")
    2744                      .dwattr $C$DW$173, DW_AT_type(*$C$DW$T$107)
    2745                      .dwattr $C$DW$173, DW_AT_location[DW_OP_reg12]
    2746              
    2747              
    2748              ;***************************************************************
    2749              ;* FNAME: __isfinite                    FR SIZE:   0           *
TMS320C2000 Assembler PC v22.6.1 Thu Mar 28 17:35:23 2024

Copyright (c) 1996-2018 Texas Instruments Incorporated
llc.asm                                                              PAGE   54

    2750              ;*                                                             *
    2751              ;* FUNCTION ENVIRONMENT                                        *
    2752              ;*                                                             *
    2753              ;* FUNCTION PROPERTIES                                         *
    2754              ;*                            0 Parameter,  0 Auto,  0 SOE     *
    2755              ;***************************************************************
    2756              
    2757              ||__isfinite||:
    2758              ;* AR4   assigned to d
    2759              $C$DW$174       .dwtag  DW_TAG_variable
    2760                      .dwattr $C$DW$174, DW_AT_name("d")
    2761                      .dwattr $C$DW$174, DW_AT_type(*$C$DW$T$108)
    2762                      .dwattr $C$DW$174, DW_AT_location[DW_OP_reg12]
    2763              
    2764                      .dwcfi  cfa_offset, -2
    2765                      .dwcfi  save_reg_to_mem, 26, 0
    2766                      .dwpsn  file "C:/ti/ccs1250/ccs/tools/compiler/ti-cgt-c2000_22.6.1.LTS/include/_defs.h",line 335,colu
    2767 00000000 A3C4          MOVL      P,*+XAR4[0]           ; [CPU_ALU] |335| 
    2768 00000001 06D4          MOVL      ACC,*+XAR4[2]         ; [CPU_ALU] |335| 
    2769 00000002 28AC          MOV       T,#48                 ; [CPU_ALU] |335| 
         00000003 0030 
    2770 00000004 565B          LSR64     ACC:P,T               ; [CPU_ALU] |335| 
    2771 00000005 18AB          AND       PL,#0x7ff0            ; [CPU_ALU] |335| 
         00000006 7FF0 
    2772 00000007 80AB          MOVZ      AR7,PL                ; [CPU_ALU] |335| 
    2773 00000008 FF20          MOV       ACC,#32752            ; [CPU_ALU] |335| 
         00000009 7FF0 
    2774 0000000a BE00          MOVB      XAR6,#0               ; [CPU_ALU] |335| 
    2775 0000000b 0FA7          CMPL      ACC,XAR7              ; [CPU_ALU] |335| 
    2776 0000000c 56B0          MOVB      XAR6,#1,NEQ           ; [CPU_ALU] |335| 
         0000000d 01A6 
    2777 0000000e 92A6          MOV       AL,AR6                ; [CPU_ALU] |335| 
    2778              $C$DW$175       .dwtag  DW_TAG_TI_branch
    2779                      .dwattr $C$DW$175, DW_AT_low_pc(0x00)
    2780                      .dwattr $C$DW$175, DW_AT_TI_return
    2781              
    2782 0000000f 0006          LRETR     ; [CPU_ALU] 
    2783                      ; return occurs ; [] 
    2784                      .dwattr $C$DW$172, DW_AT_TI_end_file("C:/ti/ccs1250/ccs/tools/compiler/ti-cgt-c2000_22.6.1.LTS/includ
    2785                      .dwattr $C$DW$172, DW_AT_TI_end_line(0x14f)
    2786                      .dwattr $C$DW$172, DW_AT_TI_end_column(0x2e)
    2787                      .dwendentry
    2788                      .dwendtag $C$DW$172
    2789              
    2790 00000000               .sect   ".text:__fpclassifyl"
    2791                      .clink
    2792                      .global ||__fpclassifyl||
    2793              
    2794              $C$DW$176       .dwtag  DW_TAG_subprogram
    2795                      .dwattr $C$DW$176, DW_AT_name("__fpclassifyl")
    2796                      .dwattr $C$DW$176, DW_AT_low_pc(||__fpclassifyl||)
    2797                      .dwattr $C$DW$176, DW_AT_high_pc(0x00)
    2798                      .dwattr $C$DW$176, DW_AT_linkage_name("__fpclassifyl")
    2799                      .dwattr $C$DW$176, DW_AT_external
    2800                      .dwattr $C$DW$176, DW_AT_type(*$C$DW$T$10)
TMS320C2000 Assembler PC v22.6.1 Thu Mar 28 17:35:23 2024

Copyright (c) 1996-2018 Texas Instruments Incorporated
llc.asm                                                              PAGE   55

    2801                      .dwattr $C$DW$176, DW_AT_decl_file("C:/ti/ccs1250/ccs/tools/compiler/ti-cgt-c2000_22.6.1.LTS/include/
    2802                      .dwattr $C$DW$176, DW_AT_decl_line(0x1ae)
    2803                      .dwattr $C$DW$176, DW_AT_decl_column(0x18)
    2804                      .dwattr $C$DW$176, DW_AT_TI_max_frame_size(-10)
    2805                      .dwpsn  file "C:/ti/ccs1250/ccs/tools/compiler/ti-cgt-c2000_22.6.1.LTS/include/_defs.h",line 431,colu
    2806              
    2807                      .dwfde $C$DW$CIE, ||__fpclassifyl||
    2808              $C$DW$177       .dwtag  DW_TAG_formal_parameter
    2809                      .dwattr $C$DW$177, DW_AT_name("e")
    2810                      .dwattr $C$DW$177, DW_AT_type(*$C$DW$T$110)
    2811                      .dwattr $C$DW$177, DW_AT_location[DW_OP_reg12]
    2812              
    2813              
    2814              ;***************************************************************
    2815              ;* FNAME: __fpclassifyl                 FR SIZE:   8           *
    2816              ;*                                                             *
    2817              ;* FUNCTION ENVIRONMENT                                        *
    2818              ;*                                                             *
    2819              ;* FUNCTION PROPERTIES                                         *
    2820              ;*                            4 Parameter,  4 Auto,  0 SOE     *
    2821              ;***************************************************************
    2822              
    2823              ||__fpclassifyl||:
    2824              $C$DW$178       .dwtag  DW_TAG_variable
    2825                      .dwattr $C$DW$178, DW_AT_name("e")
    2826                      .dwattr $C$DW$178, DW_AT_type(*$C$DW$T$18)
    2827                      .dwattr $C$DW$178, DW_AT_location[DW_OP_breg20 -8]
    2828              
    2829              ;* AR5   assigned to $O$C1
    2830              ;* AR4   assigned to e
    2831              $C$DW$179       .dwtag  DW_TAG_variable
    2832                      .dwattr $C$DW$179, DW_AT_name("e")
    2833                      .dwattr $C$DW$179, DW_AT_type(*$C$DW$T$111)
    2834                      .dwattr $C$DW$179, DW_AT_location[DW_OP_reg12]
    2835              
    2836                      .dwcfi  cfa_offset, -2
    2837                      .dwcfi  save_reg_to_mem, 26, 0
    2838 00000000 FE08          ADDB      SP,#8                 ; [CPU_ARAU] 
    2839                      .dwcfi  cfa_offset, -10
    2840 00000001 C4D4          MOVL      XAR6,*+XAR4[2]        ; [CPU_ALU] |431| 
    2841 00000002 06C4          MOVL      ACC,*+XAR4[0]         ; [CPU_ALU] |431| 
    2842 00000003 1E48          MOVL      *-SP[8],ACC           ; [CPU_ALU] |431| 
    2843 00000004 C246          MOVL      *-SP[6],XAR6          ; [CPU_ALU] |431| 
    2844                      .dwpsn  file "C:/ti/ccs1250/ccs/tools/compiler/ti-cgt-c2000_22.6.1.LTS/include/_defs.h",line 432,colu
    2845 00000005 8348          MOVL      XAR5,*-SP[8]          ; [CPU_ALU] |432| 
    2846 00000006 8A46          MOVL      XAR4,*-SP[6]          ; [CPU_ALU] |432| 
    2847                      .dwpsn  file "C:/ti/ccs1250/ccs/tools/compiler/ti-cgt-c2000_22.6.1.LTS/include/_defs.h",line 436,colu
    2848 00000007 28AC          MOV       T,#48                 ; [CPU_ALU] |436| 
         00000008 0030 
    2849 00000009 A0AB          MOVL      P,XAR5                ; [CPU_ALU] |436| 
    2850 0000000a A8A9          MOVL      ACC,XAR4              ; [CPU_ALU] |436| 
    2851 0000000b 565B          LSR64     ACC:P,T               ; [CPU_ALU] |436| 
    2852 0000000c 18AB          AND       PL,#0x7ff0            ; [CPU_ALU] |436| 
         0000000d 7FF0 
    2853 0000000e 88AB          MOVZ      AR6,PL                ; [CPU_ALU] |436| 
TMS320C2000 Assembler PC v22.6.1 Thu Mar 28 17:35:23 2024

Copyright (c) 1996-2018 Texas Instruments Incorporated
llc.asm                                                              PAGE   56

    2854 0000000f FF20          MOV       ACC,#32752            ; [CPU_ALU] |436| 
         00000010 7FF0 
    2855 00000011 0FA6          CMPL      ACC,XAR6              ; [CPU_ALU] |436| 
    2856 00000012 6016          B         ||$C$L12||,NEQ        ; [CPU_ALU] |436| 
    2857                      ; branchcc occurs ; [] |436| 
    2858 00000013 0200          MOVB      ACC,#0                ; [CPU_ALU] |436| 
    2859 00000014 1E44          MOVL      *-SP[4],ACC           ; [CPU_ALU] |436| 
    2860 00000015 2B42          MOV       *-SP[2],#0            ; [CPU_ALU] |436| 
    2861 00000016 2B41          MOV       *-SP[1],#0            ; [CPU_ALU] |436| 
    2862 00000017 A348          MOVL      P,*-SP[8]             ; [CPU_ALU] |436| 
    2863 00000018 0646          MOVL      ACC,*-SP[6]           ; [CPU_ALU] |436| 
    2864 00000019 18AB          AND       PL,#65535             ; [CPU_ALU] |436| 
         0000001a FFFF 
    2865 0000001b 18AA          AND       PH,#65535             ; [CPU_ALU] |436| 
         0000001c FFFF 
    2866 0000001d 18A9          AND       AL,#65535             ; [CPU_ALU] |436| 
         0000001e FFFF 
    2867 0000001f 910F          ANDB      AH,#15                ; [CPU_ALU] |436| 
    2868              $C$DW$180       .dwtag  DW_TAG_TI_branch
    2869                      .dwattr $C$DW$180, DW_AT_low_pc(0x00)
    2870                      .dwattr $C$DW$180, DW_AT_name("__c28xabi_cmpull")
    2871                      .dwattr $C$DW$180, DW_AT_TI_call
    2872              
    2873 00000020 7640!         LCR       #||__c28xabi_cmpull|| ; [CPU_ALU] |436| 
         00000021 0000 
    2874                      ; call occurs [#||__c28xabi_cmpull||] ; [] |436| 
    2875 00000022 5200          CMPB      AL,#0                 ; [CPU_ALU] |436| 
    2876 00000023 6103          B         ||$C$L11||,EQ         ; [CPU_ALU] |436| 
    2877                      ; branchcc occurs ; [] |436| 
    2878 00000024 9A02          MOVB      AL,#2                 ; [CPU_ALU] |436| 
    2879 00000025 6F2D          B         ||$C$L15||,UNC        ; [CPU_ALU] |436| 
    2880                      ; branch occurs ; [] |436| 
    2881 00000026       ||$C$L11||:    
    2882 00000026 9A01          MOVB      AL,#1                 ; [CPU_ALU] |436| 
    2883 00000027 6F2B          B         ||$C$L15||,UNC        ; [CPU_ALU] |436| 
    2884                      ; branch occurs ; [] |436| 
    2885 00000028       ||$C$L12||:    
    2886 00000028 BE00          MOVB      XAR6,#0               ; [CPU_ALU] |436| 
    2887 00000029 A0AB          MOVL      P,XAR5                ; [CPU_ALU] |436| 
    2888 0000002a A8A9          MOVL      ACC,XAR4              ; [CPU_ALU] |436| 
    2889 0000002b 28AC          MOV       T,#52                 ; [CPU_ALU] |436| 
         0000002c 0034 
    2890 0000002d C244          MOVL      *-SP[4],XAR6          ; [CPU_ALU] |436| 
    2891 0000002e 2B42          MOV       *-SP[2],#0            ; [CPU_ALU] |436| 
    2892 0000002f 565B          LSR64     ACC:P,T               ; [CPU_ALU] |436| 
    2893 00000030 2B41          MOV       *-SP[1],#0            ; [CPU_FPU] |436| 
    2894 00000031 9000          ANDB      AL,#0                 ; [CPU_ALU] |436| 
    2895 00000032 9100          ANDB      AH,#0                 ; [CPU_ALU] |436| 
    2896 00000033 18AB          AND       PL,#2047              ; [CPU_ALU] |436| 
         00000034 07FF 
    2897 00000035 18AA          AND       PH,#0                 ; [CPU_ALU] |436| 
         00000036 0000 
    2898              $C$DW$181       .dwtag  DW_TAG_TI_branch
    2899                      .dwattr $C$DW$181, DW_AT_low_pc(0x00)
    2900                      .dwattr $C$DW$181, DW_AT_name("__c28xabi_cmpull")
TMS320C2000 Assembler PC v22.6.1 Thu Mar 28 17:35:23 2024

Copyright (c) 1996-2018 Texas Instruments Incorporated
llc.asm                                                              PAGE   57

    2901                      .dwattr $C$DW$181, DW_AT_TI_call
    2902              
    2903 00000037 7640!         LCR       #||__c28xabi_cmpull|| ; [CPU_ALU] |436| 
         00000038 0000 
    2904                      ; call occurs [#||__c28xabi_cmpull||] ; [] |436| 
    2905 00000039 5200          CMPB      AL,#0                 ; [CPU_ALU] |436| 
    2906 0000003a 6104          B         ||$C$L13||,EQ         ; [CPU_ALU] |436| 
    2907                      ; branchcc occurs ; [] |436| 
    2908 0000003b 28A9          MOV       AL,#-1                ; [CPU_ALU] |436| 
         0000003c FFFF 
    2909 0000003d 6F15          B         ||$C$L15||,UNC        ; [CPU_ALU] |436| 
    2910                      ; branch occurs ; [] |436| 
    2911 0000003e       ||$C$L13||:    
    2912 0000003e C244          MOVL      *-SP[4],XAR6          ; [CPU_ALU] |436| 
    2913 0000003f A8A9          MOVL      ACC,XAR4              ; [CPU_ALU] |436| 
    2914 00000040 A0AB          MOVL      P,XAR5                ; [CPU_ALU] |436| 
    2915 00000041 2B42          MOV       *-SP[2],#0            ; [CPU_ALU] |436| 
    2916 00000042 18A9          AND       AL,#65535             ; [CPU_ALU] |436| 
         00000043 FFFF 
    2917 00000044 910F          ANDB      AH,#15                ; [CPU_ALU] |436| 
    2918 00000045 18AB          AND       PL,#65535             ; [CPU_ALU] |436| 
         00000046 FFFF 
    2919 00000047 18AA          AND       PH,#65535             ; [CPU_ALU] |436| 
         00000048 FFFF 
    2920 00000049 2B41          MOV       *-SP[1],#0            ; [CPU_FPU] |436| 
    2921              $C$DW$182       .dwtag  DW_TAG_TI_branch
    2922                      .dwattr $C$DW$182, DW_AT_low_pc(0x00)
    2923                      .dwattr $C$DW$182, DW_AT_name("__c28xabi_cmpull")
    2924                      .dwattr $C$DW$182, DW_AT_TI_call
    2925              
    2926 0000004a 7640!         LCR       #||__c28xabi_cmpull|| ; [CPU_ALU] |436| 
         0000004b 0000 
    2927                      ; call occurs [#||__c28xabi_cmpull||] ; [] |436| 
    2928 0000004c 5200          CMPB      AL,#0                 ; [CPU_ALU] |436| 
    2929 0000004d 6104          B         ||$C$L14||,EQ         ; [CPU_ALU] |436| 
    2930                      ; branchcc occurs ; [] |436| 
    2931 0000004e 28A9          MOV       AL,#-2                ; [CPU_ALU] |436| 
         0000004f FFFE 
    2932 00000050 6F02          B         ||$C$L15||,UNC        ; [CPU_ALU] |436| 
    2933                      ; branch occurs ; [] |436| 
    2934 00000051       ||$C$L14||:    
    2935 00000051 9A00          MOVB      AL,#0                 ; [CPU_ALU] |436| 
    2936 00000052       ||$C$L15||:    
    2937 00000052 FE88          SUBB      SP,#8                 ; [CPU_ARAU] 
    2938                      .dwcfi  cfa_offset, -2
    2939              $C$DW$183       .dwtag  DW_TAG_TI_branch
    2940                      .dwattr $C$DW$183, DW_AT_low_pc(0x00)
    2941                      .dwattr $C$DW$183, DW_AT_TI_return
    2942              
    2943 00000053 0006          LRETR     ; [CPU_ALU] 
    2944                      ; return occurs ; [] 
    2945                      .dwattr $C$DW$176, DW_AT_TI_end_file("C:/ti/ccs1250/ccs/tools/compiler/ti-cgt-c2000_22.6.1.LTS/includ
    2946                      .dwattr $C$DW$176, DW_AT_TI_end_line(0x1bd)
    2947                      .dwattr $C$DW$176, DW_AT_TI_end_column(0x01)
    2948                      .dwendentry
TMS320C2000 Assembler PC v22.6.1 Thu Mar 28 17:35:23 2024

Copyright (c) 1996-2018 Texas Instruments Incorporated
llc.asm                                                              PAGE   58

    2949                      .dwendtag $C$DW$176
    2950              
    2951 00000000               .sect   ".text:__fpclassifyf"
    2952                      .clink
    2953                      .global ||__fpclassifyf||
    2954              
    2955              $C$DW$184       .dwtag  DW_TAG_subprogram
    2956                      .dwattr $C$DW$184, DW_AT_name("__fpclassifyf")
    2957                      .dwattr $C$DW$184, DW_AT_low_pc(||__fpclassifyf||)
    2958                      .dwattr $C$DW$184, DW_AT_high_pc(0x00)
    2959                      .dwattr $C$DW$184, DW_AT_linkage_name("__fpclassifyf")
    2960                      .dwattr $C$DW$184, DW_AT_external
    2961                      .dwattr $C$DW$184, DW_AT_type(*$C$DW$T$10)
    2962                      .dwattr $C$DW$184, DW_AT_decl_file("C:/ti/ccs1250/ccs/tools/compiler/ti-cgt-c2000_22.6.1.LTS/include/
    2963                      .dwattr $C$DW$184, DW_AT_decl_line(0x18c)
    2964                      .dwattr $C$DW$184, DW_AT_decl_column(0x18)
    2965                      .dwattr $C$DW$184, DW_AT_TI_max_frame_size(-2)
    2966                      .dwpsn  file "C:/ti/ccs1250/ccs/tools/compiler/ti-cgt-c2000_22.6.1.LTS/include/_defs.h",line 397,colu
    2967              
    2968                      .dwfde $C$DW$CIE, ||__fpclassifyf||
    2969              $C$DW$185       .dwtag  DW_TAG_formal_parameter
    2970                      .dwattr $C$DW$185, DW_AT_name("f")
    2971                      .dwattr $C$DW$185, DW_AT_type(*$C$DW$T$16)
    2972                      .dwattr $C$DW$185, DW_AT_location[DW_OP_regx 0x2b]
    2973              
    2974              
    2975              ;***************************************************************
    2976              ;* FNAME: __fpclassifyf                 FR SIZE:   0           *
    2977              ;*                                                             *
    2978              ;* FUNCTION ENVIRONMENT                                        *
    2979              ;*                                                             *
    2980              ;* FUNCTION PROPERTIES                                         *
    2981              ;*                            0 Parameter,  0 Auto,  0 SOE     *
    2982              ;***************************************************************
    2983              
    2984              ||__fpclassifyf||:
    2985              ;* PL    assigned to $O$K1
    2986              ;* R0    assigned to f
    2987              $C$DW$186       .dwtag  DW_TAG_variable
    2988                      .dwattr $C$DW$186, DW_AT_name("f")
    2989                      .dwattr $C$DW$186, DW_AT_type(*$C$DW$T$102)
    2990                      .dwattr $C$DW$186, DW_AT_location[DW_OP_regx 0x2b]
    2991              
    2992                      .dwcfi  cfa_offset, -2
    2993                      .dwcfi  save_reg_to_mem, 26, 0
    2994                      .dwpsn  file "C:/ti/ccs1250/ccs/tools/compiler/ti-cgt-c2000_22.6.1.LTS/include/_defs.h",line 398,colu
    2995 00000000 BFAB          MOV32     P,R0H                 ; [CPU_FPU] |398| 
         00000001 0F12 
    2996                      .dwpsn  file "C:/ti/ccs1250/ccs/tools/compiler/ti-cgt-c2000_22.6.1.LTS/include/_defs.h",line 402,colu
    2997 00000002 CCAA          AND       AL,PH,#0x7f80         ; [CPU_ALU] |402| 
         00000003 7F80 
    2998 00000004 88A9          MOVZ      AR6,AL                ; [CPU_ALU] |402| 
    2999 00000005 FF20          MOV       ACC,#32640            ; [CPU_ALU] |402| 
         00000006 7F80 
    3000 00000007 0FA6          CMPL      ACC,XAR6              ; [CPU_ALU] |402| 
TMS320C2000 Assembler PC v22.6.1 Thu Mar 28 17:35:23 2024

Copyright (c) 1996-2018 Texas Instruments Incorporated
llc.asm                                                              PAGE   59

    3001 00000008 6009          B         ||$C$L17||,NEQ        ; [CPU_ALU] |402| 
    3002                      ; branchcc occurs ; [] |402| 
    3003 00000009 A9A9          MOVL      ACC,P                 ; [CPU_ALU] |402| 
    3004 0000000a 917F          ANDB      AH,#127               ; [CPU_ALU] |402| 
    3005 0000000b FF58          TEST      ACC                   ; [CPU_ALU] |402| 
    3006 0000000c 6103          B         ||$C$L16||,EQ         ; [CPU_ALU] |402| 
    3007                      ; branchcc occurs ; [] |402| 
    3008                      .dwcfi  remember_state
    3009 0000000d 9A02          MOVB      AL,#2                 ; [CPU_ALU] |402| 
    3010              $C$DW$187       .dwtag  DW_TAG_TI_branch
    3011                      .dwattr $C$DW$187, DW_AT_low_pc(0x00)
    3012                      .dwattr $C$DW$187, DW_AT_TI_return
    3013              
    3014 0000000e 0006          LRETR     ; [CPU_ALU] 
    3015                      ; return occurs ; [] 
    3016                      .dwcfi  restore_state
    3017 0000000f       ||$C$L16||:    
    3018                      .dwcfi  remember_state
    3019 0000000f 9A01          MOVB      AL,#1                 ; [CPU_ALU] |402| 
    3020              $C$DW$188       .dwtag  DW_TAG_TI_branch
    3021                      .dwattr $C$DW$188, DW_AT_low_pc(0x00)
    3022                      .dwattr $C$DW$188, DW_AT_TI_return
    3023              
    3024 00000010 0006          LRETR     ; [CPU_ALU] 
    3025                      ; return occurs ; [] 
    3026                      .dwcfi  restore_state
    3027 00000011       ||$C$L17||:    
    3028 00000011 A9A9          MOVL      ACC,P                 ; [CPU_ALU] |402| 
    3029 00000012 28AC          MOV       T,#23                 ; [CPU_ALU] |402| 
         00000013 0017 
    3030 00000014 5622          LSRL      ACC,T                 ; [CPU_ALU] |402| 
    3031 00000015 90FF          ANDB      AL,#0xff              ; [CPU_ALU] |402| 
    3032 00000016 6104          B         ||$C$L18||,EQ         ; [CPU_ALU] |402| 
    3033                      ; branchcc occurs ; [] |402| 
    3034                      .dwcfi  remember_state
    3035 00000017 28A9          MOV       AL,#-1                ; [CPU_ALU] |402| 
         00000018 FFFF 
    3036              $C$DW$189       .dwtag  DW_TAG_TI_branch
    3037                      .dwattr $C$DW$189, DW_AT_low_pc(0x00)
    3038                      .dwattr $C$DW$189, DW_AT_TI_return
    3039              
    3040 00000019 0006          LRETR     ; [CPU_ALU] 
    3041                      ; return occurs ; [] 
    3042                      .dwcfi  restore_state
    3043 0000001a       ||$C$L18||:    
    3044 0000001a A9A9          MOVL      ACC,P                 ; [CPU_ALU] |402| 
    3045 0000001b 917F          ANDB      AH,#127               ; [CPU_ALU] |402| 
    3046 0000001c FF58          TEST      ACC                   ; [CPU_ALU] |402| 
    3047 0000001d 6104          B         ||$C$L19||,EQ         ; [CPU_ALU] |402| 
    3048                      ; branchcc occurs ; [] |402| 
    3049                      .dwcfi  remember_state
    3050 0000001e 28A9          MOV       AL,#-2                ; [CPU_ALU] |402| 
         0000001f FFFE 
    3051              $C$DW$190       .dwtag  DW_TAG_TI_branch
    3052                      .dwattr $C$DW$190, DW_AT_low_pc(0x00)
TMS320C2000 Assembler PC v22.6.1 Thu Mar 28 17:35:23 2024

Copyright (c) 1996-2018 Texas Instruments Incorporated
llc.asm                                                              PAGE   60

    3053                      .dwattr $C$DW$190, DW_AT_TI_return
    3054              
    3055 00000020 0006          LRETR     ; [CPU_ALU] 
    3056                      ; return occurs ; [] 
    3057                      .dwcfi  restore_state
    3058 00000021       ||$C$L19||:    
    3059 00000021 9A00          MOVB      AL,#0                 ; [CPU_ALU] |402| 
    3060              $C$DW$191       .dwtag  DW_TAG_TI_branch
    3061                      .dwattr $C$DW$191, DW_AT_low_pc(0x00)
    3062                      .dwattr $C$DW$191, DW_AT_TI_return
    3063              
    3064 00000022 0006          LRETR     ; [CPU_ALU] 
    3065                      ; return occurs ; [] 
    3066                      .dwattr $C$DW$184, DW_AT_TI_end_file("C:/ti/ccs1250/ccs/tools/compiler/ti-cgt-c2000_22.6.1.LTS/includ
    3067                      .dwattr $C$DW$184, DW_AT_TI_end_line(0x19b)
    3068                      .dwattr $C$DW$184, DW_AT_TI_end_column(0x01)
    3069                      .dwendentry
    3070                      .dwendtag $C$DW$184
    3071              
    3072 00000000               .sect   ".text:__fpclassify"
    3073                      .clink
    3074                      .global ||__fpclassify||
    3075              
    3076              $C$DW$192       .dwtag  DW_TAG_subprogram
    3077                      .dwattr $C$DW$192, DW_AT_name("__fpclassify")
    3078                      .dwattr $C$DW$192, DW_AT_low_pc(||__fpclassify||)
    3079                      .dwattr $C$DW$192, DW_AT_high_pc(0x00)
    3080                      .dwattr $C$DW$192, DW_AT_linkage_name("__fpclassify")
    3081                      .dwattr $C$DW$192, DW_AT_external
    3082                      .dwattr $C$DW$192, DW_AT_type(*$C$DW$T$10)
    3083                      .dwattr $C$DW$192, DW_AT_decl_file("C:/ti/ccs1250/ccs/tools/compiler/ti-cgt-c2000_22.6.1.LTS/include/
    3084                      .dwattr $C$DW$192, DW_AT_decl_line(0x19d)
    3085                      .dwattr $C$DW$192, DW_AT_decl_column(0x18)
    3086                      .dwattr $C$DW$192, DW_AT_TI_max_frame_size(-10)
    3087                      .dwpsn  file "C:/ti/ccs1250/ccs/tools/compiler/ti-cgt-c2000_22.6.1.LTS/include/_defs.h",line 414,colu
    3088              
    3089                      .dwfde $C$DW$CIE, ||__fpclassify||
    3090              $C$DW$193       .dwtag  DW_TAG_formal_parameter
    3091                      .dwattr $C$DW$193, DW_AT_name("d")
    3092                      .dwattr $C$DW$193, DW_AT_type(*$C$DW$T$107)
    3093                      .dwattr $C$DW$193, DW_AT_location[DW_OP_reg12]
    3094              
    3095              
    3096              ;***************************************************************
    3097              ;* FNAME: __fpclassify                  FR SIZE:   8           *
    3098              ;*                                                             *
    3099              ;* FUNCTION ENVIRONMENT                                        *
    3100              ;*                                                             *
    3101              ;* FUNCTION PROPERTIES                                         *
    3102              ;*                            4 Parameter,  4 Auto,  0 SOE     *
    3103              ;***************************************************************
    3104              
    3105              ||__fpclassify||:
    3106              $C$DW$194       .dwtag  DW_TAG_variable
    3107                      .dwattr $C$DW$194, DW_AT_name("d")
TMS320C2000 Assembler PC v22.6.1 Thu Mar 28 17:35:23 2024

Copyright (c) 1996-2018 Texas Instruments Incorporated
llc.asm                                                              PAGE   61

    3108                      .dwattr $C$DW$194, DW_AT_type(*$C$DW$T$17)
    3109                      .dwattr $C$DW$194, DW_AT_location[DW_OP_breg20 -8]
    3110              
    3111              ;* AR5   assigned to $O$C1
    3112              ;* AR4   assigned to d
    3113              $C$DW$195       .dwtag  DW_TAG_variable
    3114                      .dwattr $C$DW$195, DW_AT_name("d")
    3115                      .dwattr $C$DW$195, DW_AT_type(*$C$DW$T$108)
    3116                      .dwattr $C$DW$195, DW_AT_location[DW_OP_reg12]
    3117              
    3118                      .dwcfi  cfa_offset, -2
    3119                      .dwcfi  save_reg_to_mem, 26, 0
    3120 00000000 FE08          ADDB      SP,#8                 ; [CPU_ARAU] 
    3121                      .dwcfi  cfa_offset, -10
    3122 00000001 C4D4          MOVL      XAR6,*+XAR4[2]        ; [CPU_ALU] |414| 
    3123 00000002 06C4          MOVL      ACC,*+XAR4[0]         ; [CPU_ALU] |414| 
    3124 00000003 1E48          MOVL      *-SP[8],ACC           ; [CPU_ALU] |414| 
    3125 00000004 C246          MOVL      *-SP[6],XAR6          ; [CPU_ALU] |414| 
    3126                      .dwpsn  file "C:/ti/ccs1250/ccs/tools/compiler/ti-cgt-c2000_22.6.1.LTS/include/_defs.h",line 415,colu
    3127 00000005 8348          MOVL      XAR5,*-SP[8]          ; [CPU_ALU] |415| 
    3128 00000006 8A46          MOVL      XAR4,*-SP[6]          ; [CPU_ALU] |415| 
    3129                      .dwpsn  file "C:/ti/ccs1250/ccs/tools/compiler/ti-cgt-c2000_22.6.1.LTS/include/_defs.h",line 419,colu
    3130 00000007 28AC          MOV       T,#48                 ; [CPU_ALU] |419| 
         00000008 0030 
    3131 00000009 A0AB          MOVL      P,XAR5                ; [CPU_ALU] |419| 
    3132 0000000a A8A9          MOVL      ACC,XAR4              ; [CPU_ALU] |419| 
    3133 0000000b 565B          LSR64     ACC:P,T               ; [CPU_ALU] |419| 
    3134 0000000c 18AB          AND       PL,#0x7ff0            ; [CPU_ALU] |419| 
         0000000d 7FF0 
    3135 0000000e 88AB          MOVZ      AR6,PL                ; [CPU_ALU] |419| 
    3136 0000000f FF20          MOV       ACC,#32752            ; [CPU_ALU] |419| 
         00000010 7FF0 
    3137 00000011 0FA6          CMPL      ACC,XAR6              ; [CPU_ALU] |419| 
    3138 00000012 6016          B         ||$C$L21||,NEQ        ; [CPU_ALU] |419| 
    3139                      ; branchcc occurs ; [] |419| 
    3140 00000013 0200          MOVB      ACC,#0                ; [CPU_ALU] |419| 
    3141 00000014 1E44          MOVL      *-SP[4],ACC           ; [CPU_ALU] |419| 
    3142 00000015 2B42          MOV       *-SP[2],#0            ; [CPU_ALU] |419| 
    3143 00000016 2B41          MOV       *-SP[1],#0            ; [CPU_ALU] |419| 
    3144 00000017 A348          MOVL      P,*-SP[8]             ; [CPU_ALU] |419| 
    3145 00000018 0646          MOVL      ACC,*-SP[6]           ; [CPU_ALU] |419| 
    3146 00000019 18AB          AND       PL,#65535             ; [CPU_ALU] |419| 
         0000001a FFFF 
    3147 0000001b 18AA          AND       PH,#65535             ; [CPU_ALU] |419| 
         0000001c FFFF 
    3148 0000001d 18A9          AND       AL,#65535             ; [CPU_ALU] |419| 
         0000001e FFFF 
    3149 0000001f 910F          ANDB      AH,#15                ; [CPU_ALU] |419| 
    3150              $C$DW$196       .dwtag  DW_TAG_TI_branch
    3151                      .dwattr $C$DW$196, DW_AT_low_pc(0x00)
    3152                      .dwattr $C$DW$196, DW_AT_name("__c28xabi_cmpull")
    3153                      .dwattr $C$DW$196, DW_AT_TI_call
    3154              
    3155 00000020 7640!         LCR       #||__c28xabi_cmpull|| ; [CPU_ALU] |419| 
         00000021 0000 
TMS320C2000 Assembler PC v22.6.1 Thu Mar 28 17:35:23 2024

Copyright (c) 1996-2018 Texas Instruments Incorporated
llc.asm                                                              PAGE   62

    3156                      ; call occurs [#||__c28xabi_cmpull||] ; [] |419| 
    3157 00000022 5200          CMPB      AL,#0                 ; [CPU_ALU] |419| 
    3158 00000023 6103          B         ||$C$L20||,EQ         ; [CPU_ALU] |419| 
    3159                      ; branchcc occurs ; [] |419| 
    3160 00000024 9A02          MOVB      AL,#2                 ; [CPU_ALU] |419| 
    3161 00000025 6F2D          B         ||$C$L24||,UNC        ; [CPU_ALU] |419| 
    3162                      ; branch occurs ; [] |419| 
    3163 00000026       ||$C$L20||:    
    3164 00000026 9A01          MOVB      AL,#1                 ; [CPU_ALU] |419| 
    3165 00000027 6F2B          B         ||$C$L24||,UNC        ; [CPU_ALU] |419| 
    3166                      ; branch occurs ; [] |419| 
    3167 00000028       ||$C$L21||:    
    3168 00000028 BE00          MOVB      XAR6,#0               ; [CPU_ALU] |419| 
    3169 00000029 A0AB          MOVL      P,XAR5                ; [CPU_ALU] |419| 
    3170 0000002a A8A9          MOVL      ACC,XAR4              ; [CPU_ALU] |419| 
    3171 0000002b 28AC          MOV       T,#52                 ; [CPU_ALU] |419| 
         0000002c 0034 
    3172 0000002d C244          MOVL      *-SP[4],XAR6          ; [CPU_ALU] |419| 
    3173 0000002e 2B42          MOV       *-SP[2],#0            ; [CPU_ALU] |419| 
    3174 0000002f 565B          LSR64     ACC:P,T               ; [CPU_ALU] |419| 
    3175 00000030 2B41          MOV       *-SP[1],#0            ; [CPU_FPU] |419| 
    3176 00000031 9000          ANDB      AL,#0                 ; [CPU_ALU] |419| 
    3177 00000032 9100          ANDB      AH,#0                 ; [CPU_ALU] |419| 
    3178 00000033 18AB          AND       PL,#2047              ; [CPU_ALU] |419| 
         00000034 07FF 
    3179 00000035 18AA          AND       PH,#0                 ; [CPU_ALU] |419| 
         00000036 0000 
    3180              $C$DW$197       .dwtag  DW_TAG_TI_branch
    3181                      .dwattr $C$DW$197, DW_AT_low_pc(0x00)
    3182                      .dwattr $C$DW$197, DW_AT_name("__c28xabi_cmpull")
    3183                      .dwattr $C$DW$197, DW_AT_TI_call
    3184              
    3185 00000037 7640!         LCR       #||__c28xabi_cmpull|| ; [CPU_ALU] |419| 
         00000038 0000 
    3186                      ; call occurs [#||__c28xabi_cmpull||] ; [] |419| 
    3187 00000039 5200          CMPB      AL,#0                 ; [CPU_ALU] |419| 
    3188 0000003a 6104          B         ||$C$L22||,EQ         ; [CPU_ALU] |419| 
    3189                      ; branchcc occurs ; [] |419| 
    3190 0000003b 28A9          MOV       AL,#-1                ; [CPU_ALU] |419| 
         0000003c FFFF 
    3191 0000003d 6F15          B         ||$C$L24||,UNC        ; [CPU_ALU] |419| 
    3192                      ; branch occurs ; [] |419| 
    3193 0000003e       ||$C$L22||:    
    3194 0000003e C244          MOVL      *-SP[4],XAR6          ; [CPU_ALU] |419| 
    3195 0000003f A8A9          MOVL      ACC,XAR4              ; [CPU_ALU] |419| 
    3196 00000040 A0AB          MOVL      P,XAR5                ; [CPU_ALU] |419| 
    3197 00000041 2B42          MOV       *-SP[2],#0            ; [CPU_ALU] |419| 
    3198 00000042 18A9          AND       AL,#65535             ; [CPU_ALU] |419| 
         00000043 FFFF 
    3199 00000044 910F          ANDB      AH,#15                ; [CPU_ALU] |419| 
    3200 00000045 18AB          AND       PL,#65535             ; [CPU_ALU] |419| 
         00000046 FFFF 
    3201 00000047 18AA          AND       PH,#65535             ; [CPU_ALU] |419| 
         00000048 FFFF 
    3202 00000049 2B41          MOV       *-SP[1],#0            ; [CPU_FPU] |419| 
TMS320C2000 Assembler PC v22.6.1 Thu Mar 28 17:35:23 2024

Copyright (c) 1996-2018 Texas Instruments Incorporated
llc.asm                                                              PAGE   63

    3203              $C$DW$198       .dwtag  DW_TAG_TI_branch
    3204                      .dwattr $C$DW$198, DW_AT_low_pc(0x00)
    3205                      .dwattr $C$DW$198, DW_AT_name("__c28xabi_cmpull")
    3206                      .dwattr $C$DW$198, DW_AT_TI_call
    3207              
    3208 0000004a 7640!         LCR       #||__c28xabi_cmpull|| ; [CPU_ALU] |419| 
         0000004b 0000 
    3209                      ; call occurs [#||__c28xabi_cmpull||] ; [] |419| 
    3210 0000004c 5200          CMPB      AL,#0                 ; [CPU_ALU] |419| 
    3211 0000004d 6104          B         ||$C$L23||,EQ         ; [CPU_ALU] |419| 
    3212                      ; branchcc occurs ; [] |419| 
    3213 0000004e 28A9          MOV       AL,#-2                ; [CPU_ALU] |419| 
         0000004f FFFE 
    3214 00000050 6F02          B         ||$C$L24||,UNC        ; [CPU_ALU] |419| 
    3215                      ; branch occurs ; [] |419| 
    3216 00000051       ||$C$L23||:    
    3217 00000051 9A00          MOVB      AL,#0                 ; [CPU_ALU] |419| 
    3218 00000052       ||$C$L24||:    
    3219 00000052 FE88          SUBB      SP,#8                 ; [CPU_ARAU] 
    3220                      .dwcfi  cfa_offset, -2
    3221              $C$DW$199       .dwtag  DW_TAG_TI_branch
    3222                      .dwattr $C$DW$199, DW_AT_low_pc(0x00)
    3223                      .dwattr $C$DW$199, DW_AT_TI_return
    3224              
    3225 00000053 0006          LRETR     ; [CPU_ALU] 
    3226                      ; return occurs ; [] 
    3227                      .dwattr $C$DW$192, DW_AT_TI_end_file("C:/ti/ccs1250/ccs/tools/compiler/ti-cgt-c2000_22.6.1.LTS/includ
    3228                      .dwattr $C$DW$192, DW_AT_TI_end_line(0x1ac)
    3229                      .dwattr $C$DW$192, DW_AT_TI_end_column(0x01)
    3230                      .dwendentry
    3231                      .dwendtag $C$DW$192
    3232              
    3233 00000000               .sect   ".text:__fast_lldiv"
    3234                      .clink
    3235                      .global ||__fast_lldiv||
    3236              
    3237              $C$DW$200       .dwtag  DW_TAG_subprogram
    3238                      .dwattr $C$DW$200, DW_AT_name("__fast_lldiv")
    3239                      .dwattr $C$DW$200, DW_AT_low_pc(||__fast_lldiv||)
    3240                      .dwattr $C$DW$200, DW_AT_high_pc(0x00)
    3241                      .dwattr $C$DW$200, DW_AT_linkage_name("__fast_lldiv")
    3242                      .dwattr $C$DW$200, DW_AT_external
    3243                      .dwattr $C$DW$200, DW_AT_type(*$C$DW$T$57)
    3244                      .dwattr $C$DW$200, DW_AT_decl_file("C:/ti/ccs1250/ccs/tools/compiler/ti-cgt-c2000_22.6.1.LTS/include/
    3245                      .dwattr $C$DW$200, DW_AT_decl_line(0x1ab)
    3246                      .dwattr $C$DW$200, DW_AT_decl_column(0x12)
    3247                      .dwattr $C$DW$200, DW_AT_TI_max_frame_size(-14)
    3248                      .dwpsn  file "C:/ti/ccs1250/ccs/tools/compiler/ti-cgt-c2000_22.6.1.LTS/include/stdlib.h",line 428,col
    3249              
    3250                      .dwfde $C$DW$CIE, ||__fast_lldiv||
    3251              $C$DW$201       .dwtag  DW_TAG_formal_parameter
    3252                      .dwattr $C$DW$201, DW_AT_name("_numer")
    3253                      .dwattr $C$DW$201, DW_AT_type(*$C$DW$T$14)
    3254                      .dwattr $C$DW$201, DW_AT_location[DW_OP_reg2]
    3255              
TMS320C2000 Assembler PC v22.6.1 Thu Mar 28 17:35:23 2024

Copyright (c) 1996-2018 Texas Instruments Incorporated
llc.asm                                                              PAGE   64

    3256              $C$DW$202       .dwtag  DW_TAG_formal_parameter
    3257                      .dwattr $C$DW$202, DW_AT_name("_denom")
    3258                      .dwattr $C$DW$202, DW_AT_type(*$C$DW$T$14)
    3259                      .dwattr $C$DW$202, DW_AT_location[DW_OP_breg20 -18]
    3260              
    3261              
    3262              ;***************************************************************
    3263              ;* FNAME: __fast_lldiv                  FR SIZE:  12           *
    3264              ;*                                                             *
    3265              ;* FUNCTION ENVIRONMENT                                        *
    3266              ;*                                                             *
    3267              ;* FUNCTION PROPERTIES                                         *
    3268              ;*                            0 Parameter,  8 Auto,  4 SOE     *
    3269              ;***************************************************************
    3270              
    3271 00000000       ||__fast_lldiv||:
    3272                      .dwcfi  cfa_offset, -2
    3273                      .dwcfi  save_reg_to_mem, 26, 0
    3274 00000000 E203          MOV32     *SP++,R4H             ; [CPU_FPU] 
         00000001 04BD 
    3275                      .dwcfi  save_reg_to_mem, 59, 2
    3276                      .dwcfi  cfa_offset, -4
    3277 00000002 E203          MOV32     *SP++,R5H             ; [CPU_FPU] 
         00000003 05BD 
    3278                      .dwcfi  save_reg_to_mem, 63, 4
    3279                      .dwcfi  cfa_offset, -6
    3280 00000004 FE08          ADDB      SP,#8                 ; [CPU_ARAU] 
    3281                      .dwcfi  cfa_offset, -14
    3282 00000005 1EA7          MOVL      XAR7,ACC              ; [CPU_ALU] |428| 
    3283 00000006 5CAD          MOVZ      AR4,SP                ; [CPU_ALU] |428| 
    3284 00000007 06A6          MOVL      ACC,XAR6              ; [CPU_ALU] |428| 
    3285                      .dwpsn  file "C:/ti/ccs1250/ccs/tools/compiler/ti-cgt-c2000_22.6.1.LTS/include/stdlib.h",line 429,col
    3286 00000008 C4A7          MOVL      XAR6,XAR7             ; [CPU_ALU] |429| 
    3287                      .dwpsn  file "C:/ti/ccs1250/ccs/tools/compiler/ti-cgt-c2000_22.6.1.LTS/include/stdlib.h",line 428,col
    3288 00000009 DC92          SUBB      XAR4,#18              ; [CPU_ARAU] |428| 
    3289                      .dwpsn  file "C:/ti/ccs1250/ccs/tools/compiler/ti-cgt-c2000_22.6.1.LTS/include/stdlib.h",line 429,col
    3290 0000000a E2AF          MOV32     R3H,*+XAR4[2]         ; [CPU_FPU] |429| 
         0000000b 03D4 
    3291 0000000c BDA6          MOV32     R1H,XAR6              ; [CPU_FPU] |429| 
         0000000d 0F16 
    3292 0000000e BDAB          MOV32     R0H,P                 ; [CPU_FPU] |429| 
         0000000f 0F12 
    3293 00000010 E2AF          MOV32     R5H,*+XAR4[0]         ; [CPU_FPU] |429| 
         00000011 05C4 
    3294 00000012 5CAD          MOVZ      AR4,SP                ; [CPU_ALU] |429| 
    3295 00000013 DC88          SUBB      XAR4,#8               ; [CPU_ARAU] |429| 
    3296 00000014 80A4          MOVZ      AR7,AR4               ; [CPU_ALU] |429| 
    3297 00000015 E5B8          ABSI64DIV64 R2H:R4H,R1H:R0H,R3H:R5H ; [CPU_FPU] |429| 
    3298 00000016 E565          SUBC2UI64 R2H:R4H,R1H:R0H,R3H:R5H ; [CPU_FPU] |429| 
    3299 00000017 E565          SUBC2UI64 R2H:R4H,R1H:R0H,R3H:R5H ; [CPU_FPU] |429| 
    3300 00000018 E565          SUBC2UI64 R2H:R4H,R1H:R0H,R3H:R5H ; [CPU_FPU] |429| 
    3301 00000019 E565          SUBC2UI64 R2H:R4H,R1H:R0H,R3H:R5H ; [CPU_FPU] |429| 
    3302 0000001a E565          SUBC2UI64 R2H:R4H,R1H:R0H,R3H:R5H ; [CPU_FPU] |429| 
    3303 0000001b E565          SUBC2UI64 R2H:R4H,R1H:R0H,R3H:R5H ; [CPU_FPU] |429| 
    3304 0000001c E565          SUBC2UI64 R2H:R4H,R1H:R0H,R3H:R5H ; [CPU_FPU] |429| 
TMS320C2000 Assembler PC v22.6.1 Thu Mar 28 17:35:23 2024

Copyright (c) 1996-2018 Texas Instruments Incorporated
llc.asm                                                              PAGE   65

    3305 0000001d E565          SUBC2UI64 R2H:R4H,R1H:R0H,R3H:R5H ; [CPU_FPU] |429| 
    3306 0000001e E565          SUBC2UI64 R2H:R4H,R1H:R0H,R3H:R5H ; [CPU_FPU] |429| 
    3307 0000001f E565          SUBC2UI64 R2H:R4H,R1H:R0H,R3H:R5H ; [CPU_FPU] |429| 
    3308 00000020 E565          SUBC2UI64 R2H:R4H,R1H:R0H,R3H:R5H ; [CPU_FPU] |429| 
    3309 00000021 E565          SUBC2UI64 R2H:R4H,R1H:R0H,R3H:R5H ; [CPU_FPU] |429| 
    3310 00000022 E565          SUBC2UI64 R2H:R4H,R1H:R0H,R3H:R5H ; [CPU_FPU] |429| 
    3311 00000023 E565          SUBC2UI64 R2H:R4H,R1H:R0H,R3H:R5H ; [CPU_FPU] |429| 
    3312 00000024 E565          SUBC2UI64 R2H:R4H,R1H:R0H,R3H:R5H ; [CPU_FPU] |429| 
    3313 00000025 E565          SUBC2UI64 R2H:R4H,R1H:R0H,R3H:R5H ; [CPU_FPU] |429| 
    3314 00000026 E565          SUBC2UI64 R2H:R4H,R1H:R0H,R3H:R5H ; [CPU_FPU] |429| 
    3315 00000027 E565          SUBC2UI64 R2H:R4H,R1H:R0H,R3H:R5H ; [CPU_FPU] |429| 
    3316 00000028 E565          SUBC2UI64 R2H:R4H,R1H:R0H,R3H:R5H ; [CPU_FPU] |429| 
    3317 00000029 E565          SUBC2UI64 R2H:R4H,R1H:R0H,R3H:R5H ; [CPU_FPU] |429| 
    3318 0000002a E565          SUBC2UI64 R2H:R4H,R1H:R0H,R3H:R5H ; [CPU_FPU] |429| 
    3319 0000002b E565          SUBC2UI64 R2H:R4H,R1H:R0H,R3H:R5H ; [CPU_FPU] |429| 
    3320 0000002c E565          SUBC2UI64 R2H:R4H,R1H:R0H,R3H:R5H ; [CPU_FPU] |429| 
    3321 0000002d E565          SUBC2UI64 R2H:R4H,R1H:R0H,R3H:R5H ; [CPU_FPU] |429| 
    3322 0000002e E565          SUBC2UI64 R2H:R4H,R1H:R0H,R3H:R5H ; [CPU_FPU] |429| 
    3323 0000002f E565          SUBC2UI64 R2H:R4H,R1H:R0H,R3H:R5H ; [CPU_FPU] |429| 
    3324 00000030 E565          SUBC2UI64 R2H:R4H,R1H:R0H,R3H:R5H ; [CPU_FPU] |429| 
    3325 00000031 E565          SUBC2UI64 R2H:R4H,R1H:R0H,R3H:R5H ; [CPU_FPU] |429| 
    3326 00000032 E565          SUBC2UI64 R2H:R4H,R1H:R0H,R3H:R5H ; [CPU_FPU] |429| 
    3327 00000033 E565          SUBC2UI64 R2H:R4H,R1H:R0H,R3H:R5H ; [CPU_FPU] |429| 
    3328 00000034 E565          SUBC2UI64 R2H:R4H,R1H:R0H,R3H:R5H ; [CPU_FPU] |429| 
    3329 00000035 E565          SUBC2UI64 R2H:R4H,R1H:R0H,R3H:R5H ; [CPU_FPU] |429| 
    3330 00000036 E5BA          NEGI64DIV64 R1H:R0H,R2H:R4H     ; [CPU_FPU] |429| 
    3331 00000037 E203          MOV32     *-SP[6],R1H           ; [CPU_FPU] |429| 
         00000038 0146 
    3332 00000039 E203          MOV32     *-SP[8],R0H           ; [CPU_FPU] |429| 
         0000003a 0048 
    3333 0000003b E203          MOV32     *-SP[2],R2H           ; [CPU_FPU] |429| 
         0000003c 0242 
    3334 0000003d E203          MOV32     *-SP[4],R4H           ; [CPU_FPU] |429| 
         0000003e 0444 
    3335 0000003f 6104          B         ||$C$L25||,EQ         ; [CPU_ALU] |429| 
    3336                      ; branchcc occurs ; [] |429| 
    3337 00000040 8AA9          MOVL      XAR4,ACC              ; [CPU_ALU] |429| 
    3338 00000041 F607          RPT       #7
    3339 00000042 2484  ||     PREAD     *XAR4++,*XAR7         ; [CPU_ALU] |429| 
    3340 00000043       ||$C$L25||:    
    3341 00000043 FE88          SUBB      SP,#8                 ; [CPU_ARAU] 
    3342                      .dwcfi  cfa_offset, -6
    3343 00000044 E2AF          MOV32     R5H,*--SP             ; [CPU_FPU] 
         00000045 05BE 
    3344                      .dwcfi  cfa_offset, -4
    3345                      .dwcfi  restore_reg, 63
    3346 00000046 E2AF          MOV32     R4H,*--SP             ; [CPU_FPU] 
         00000047 04BE 
    3347                      .dwcfi  cfa_offset, -2
    3348                      .dwcfi  restore_reg, 59
    3349              $C$DW$203       .dwtag  DW_TAG_TI_branch
    3350                      .dwattr $C$DW$203, DW_AT_low_pc(0x00)
    3351                      .dwattr $C$DW$203, DW_AT_TI_return
    3352              
    3353 00000048 0006          LRETR     ; [CPU_ALU] 
TMS320C2000 Assembler PC v22.6.1 Thu Mar 28 17:35:23 2024

Copyright (c) 1996-2018 Texas Instruments Incorporated
llc.asm                                                              PAGE   66

    3354                      ; return occurs ; [] 
    3355                      .dwattr $C$DW$200, DW_AT_TI_end_file("C:/ti/ccs1250/ccs/tools/compiler/ti-cgt-c2000_22.6.1.LTS/includ
    3356                      .dwattr $C$DW$200, DW_AT_TI_end_line(0x1ae)
    3357                      .dwattr $C$DW$200, DW_AT_TI_end_column(0x01)
    3358                      .dwendentry
    3359                      .dwendtag $C$DW$200
    3360              
    3361 00000000               .sect   ".text:__fast_ldiv"
    3362                      .clink
    3363                      .global ||__fast_ldiv||
    3364              
    3365              $C$DW$204       .dwtag  DW_TAG_subprogram
    3366                      .dwattr $C$DW$204, DW_AT_name("__fast_ldiv")
    3367                      .dwattr $C$DW$204, DW_AT_low_pc(||__fast_ldiv||)
    3368                      .dwattr $C$DW$204, DW_AT_high_pc(0x00)
    3369                      .dwattr $C$DW$204, DW_AT_linkage_name("__fast_ldiv")
    3370                      .dwattr $C$DW$204, DW_AT_external
    3371                      .dwattr $C$DW$204, DW_AT_type(*$C$DW$T$54)
    3372                      .dwattr $C$DW$204, DW_AT_decl_file("C:/ti/ccs1250/ccs/tools/compiler/ti-cgt-c2000_22.6.1.LTS/include/
    3373                      .dwattr $C$DW$204, DW_AT_decl_line(0x1a4)
    3374                      .dwattr $C$DW$204, DW_AT_decl_column(0x11)
    3375                      .dwattr $C$DW$204, DW_AT_TI_max_frame_size(-6)
    3376                      .dwpsn  file "C:/ti/ccs1250/ccs/tools/compiler/ti-cgt-c2000_22.6.1.LTS/include/stdlib.h",line 421,col
    3377              
    3378                      .dwfde $C$DW$CIE, ||__fast_ldiv||
    3379              $C$DW$205       .dwtag  DW_TAG_formal_parameter
    3380                      .dwattr $C$DW$205, DW_AT_name("_numer")
    3381                      .dwattr $C$DW$205, DW_AT_type(*$C$DW$T$12)
    3382                      .dwattr $C$DW$205, DW_AT_location[DW_OP_reg0]
    3383              
    3384              $C$DW$206       .dwtag  DW_TAG_formal_parameter
    3385                      .dwattr $C$DW$206, DW_AT_name("_denom")
    3386                      .dwattr $C$DW$206, DW_AT_type(*$C$DW$T$12)
    3387                      .dwattr $C$DW$206, DW_AT_location[DW_OP_breg20 -8]
    3388              
    3389              
    3390              ;***************************************************************
    3391              ;* FNAME: __fast_ldiv                   FR SIZE:   4           *
    3392              ;*                                                             *
    3393              ;* FUNCTION ENVIRONMENT                                        *
    3394              ;*                                                             *
    3395              ;* FUNCTION PROPERTIES                                         *
    3396              ;*                            0 Parameter,  4 Auto,  0 SOE     *
    3397              ;***************************************************************
    3398              
    3399              ||__fast_ldiv||:
    3400              ;* AR7   assigned to _numer
    3401              $C$DW$207       .dwtag  DW_TAG_variable
    3402                      .dwattr $C$DW$207, DW_AT_name("_numer")
    3403                      .dwattr $C$DW$207, DW_AT_type(*$C$DW$T$94)
    3404                      .dwattr $C$DW$207, DW_AT_location[DW_OP_reg18]
    3405              
    3406                      .dwcfi  cfa_offset, -2
    3407                      .dwcfi  save_reg_to_mem, 26, 0
    3408 00000000 FE04          ADDB      SP,#4                 ; [CPU_ARAU] 
TMS320C2000 Assembler PC v22.6.1 Thu Mar 28 17:35:23 2024

Copyright (c) 1996-2018 Texas Instruments Incorporated
llc.asm                                                              PAGE   67

    3409                      .dwcfi  cfa_offset, -6
    3410 00000001 1EA7          MOVL      XAR7,ACC              ; [CPU_ALU] |421| 
    3411                      .dwpsn  file "C:/ti/ccs1250/ccs/tools/compiler/ti-cgt-c2000_22.6.1.LTS/include/stdlib.h",line 422,col
    3412 00000002 5CAD          MOVZ      AR4,SP                ; [CPU_ALU] |422| 
    3413 00000003 BDA7          MOV32     R1H,XAR7              ; [CPU_FPU] |422| 
         00000004 0F16 
    3414 00000005 E2AF          MOV32     R3H,*-SP[8]           ; [CPU_FPU] |422| 
         00000006 0348 
    3415 00000007 DC84          SUBB      XAR4,#4               ; [CPU_ARAU] |422| 
    3416                      .dwpsn  file "C:/ti/ccs1250/ccs/tools/compiler/ti-cgt-c2000_22.6.1.LTS/include/stdlib.h",line 421,col
    3417 00000008 06A6          MOVL      ACC,XAR6              ; [CPU_ALU] |421| 
    3418                      .dwpsn  file "C:/ti/ccs1250/ccs/tools/compiler/ti-cgt-c2000_22.6.1.LTS/include/stdlib.h",line 422,col
    3419 00000009 80A4          MOVZ      AR7,AR4               ; [CPU_ALU] |422| 
    3420 0000000a E568          ABSI32DIV32 R2H,R1H,R3H         ; [CPU_FPU] |422| 
    3421 0000000b E564          SUBC4UI32 R2H,R1H,R3H           ; [CPU_FPU] |422| 
    3422 0000000c E564          SUBC4UI32 R2H,R1H,R3H           ; [CPU_FPU] |422| 
    3423 0000000d E564          SUBC4UI32 R2H,R1H,R3H           ; [CPU_FPU] |422| 
    3424 0000000e E564          SUBC4UI32 R2H,R1H,R3H           ; [CPU_FPU] |422| 
    3425 0000000f E564          SUBC4UI32 R2H,R1H,R3H           ; [CPU_FPU] |422| 
    3426 00000010 E564          SUBC4UI32 R2H,R1H,R3H           ; [CPU_FPU] |422| 
    3427 00000011 E564          SUBC4UI32 R2H,R1H,R3H           ; [CPU_FPU] |422| 
    3428 00000012 E564          SUBC4UI32 R2H,R1H,R3H           ; [CPU_FPU] |422| 
    3429 00000013 E56A          NEGI32DIV32 R1H,R2H             ; [CPU_FPU] |422| 
    3430 00000014 E203          MOV32     *-SP[4],R1H           ; [CPU_FPU] |422| 
         00000015 0144 
    3431 00000016 E203          MOV32     *-SP[2],R2H           ; [CPU_FPU] |422| 
         00000017 0242 
    3432 00000018 6104          B         ||$C$L26||,EQ         ; [CPU_ALU] |422| 
    3433                      ; branchcc occurs ; [] |422| 
    3434 00000019 8AA9          MOVL      XAR4,ACC              ; [CPU_ALU] |422| 
    3435 0000001a F603          RPT       #3
    3436 0000001b 2484  ||     PREAD     *XAR4++,*XAR7         ; [CPU_ALU] |422| 
    3437 0000001c       ||$C$L26||:    
    3438 0000001c FE84          SUBB      SP,#4                 ; [CPU_ARAU] 
    3439                      .dwcfi  cfa_offset, -2
    3440              $C$DW$208       .dwtag  DW_TAG_TI_branch
    3441                      .dwattr $C$DW$208, DW_AT_low_pc(0x00)
    3442                      .dwattr $C$DW$208, DW_AT_TI_return
    3443              
    3444 0000001d 0006          LRETR     ; [CPU_ALU] 
    3445                      ; return occurs ; [] 
    3446                      .dwattr $C$DW$204, DW_AT_TI_end_file("C:/ti/ccs1250/ccs/tools/compiler/ti-cgt-c2000_22.6.1.LTS/includ
    3447                      .dwattr $C$DW$204, DW_AT_TI_end_line(0x1a7)
    3448                      .dwattr $C$DW$204, DW_AT_TI_end_column(0x01)
    3449                      .dwendentry
    3450                      .dwendtag $C$DW$204
    3451              
    3452 00000000               .sect   ".text:LLC_writeVolatileFloat"
    3453                      .clink
    3454                      .global ||LLC_writeVolatileFloat||
    3455              
    3456              $C$DW$209       .dwtag  DW_TAG_subprogram
    3457                      .dwattr $C$DW$209, DW_AT_name("LLC_writeVolatileFloat")
    3458                      .dwattr $C$DW$209, DW_AT_low_pc(||LLC_writeVolatileFloat||)
    3459                      .dwattr $C$DW$209, DW_AT_high_pc(0x00)
TMS320C2000 Assembler PC v22.6.1 Thu Mar 28 17:35:23 2024

Copyright (c) 1996-2018 Texas Instruments Incorporated
llc.asm                                                              PAGE   68

    3460                      .dwattr $C$DW$209, DW_AT_linkage_name("LLC_writeVolatileFloat")
    3461                      .dwattr $C$DW$209, DW_AT_external
    3462                      .dwattr $C$DW$209, DW_AT_decl_file("../llc.c")
    3463                      .dwattr $C$DW$209, DW_AT_decl_line(0xa9)
    3464                      .dwattr $C$DW$209, DW_AT_decl_column(0x06)
    3465                      .dwattr $C$DW$209, DW_AT_TI_max_frame_size(-6)
    3466                      .dwpsn  file "../llc.c",line 171,column 1,is_stmt,address ||LLC_writeVolatileFloat||,isa 0
    3467              
    3468                      .dwfde $C$DW$CIE, ||LLC_writeVolatileFloat||
    3469              $C$DW$210       .dwtag  DW_TAG_formal_parameter
    3470                      .dwattr $C$DW$210, DW_AT_name("volatileVar")
    3471                      .dwattr $C$DW$210, DW_AT_type(*$C$DW$T$31)
    3472                      .dwattr $C$DW$210, DW_AT_location[DW_OP_regx 0x2b]
    3473              
    3474              $C$DW$211       .dwtag  DW_TAG_formal_parameter
    3475                      .dwattr $C$DW$211, DW_AT_name("targetVar")
    3476                      .dwattr $C$DW$211, DW_AT_type(*$C$DW$T$76)
    3477                      .dwattr $C$DW$211, DW_AT_location[DW_OP_reg12]
    3478              
    3479              $C$DW$212       .dwtag  DW_TAG_formal_parameter
    3480                      .dwattr $C$DW$212, DW_AT_name("upperLim")
    3481                      .dwattr $C$DW$212, DW_AT_type(*$C$DW$T$31)
    3482                      .dwattr $C$DW$212, DW_AT_location[DW_OP_regx 0x2f]
    3483              
    3484              $C$DW$213       .dwtag  DW_TAG_formal_parameter
    3485                      .dwattr $C$DW$213, DW_AT_name("lowerLim")
    3486                      .dwattr $C$DW$213, DW_AT_type(*$C$DW$T$31)
    3487                      .dwattr $C$DW$213, DW_AT_location[DW_OP_regx 0x33]
    3488              
    3489              
    3490              ;***************************************************************
    3491              ;* FNAME: LLC_writeVolatileFloat        FR SIZE:   4           *
    3492              ;*                                                             *
    3493              ;* FUNCTION ENVIRONMENT                                        *
    3494              ;*                                                             *
    3495              ;* FUNCTION PROPERTIES                                         *
    3496              ;*                            0 Parameter,  2 Auto,  2 SOE     *
    3497              ;***************************************************************
    3498              
    3499              ||LLC_writeVolatileFloat||:
    3500              $C$DW$214       .dwtag  DW_TAG_variable
    3501                      .dwattr $C$DW$214, DW_AT_name("volatileVar")
    3502                      .dwattr $C$DW$214, DW_AT_type(*$C$DW$T$31)
    3503                      .dwattr $C$DW$214, DW_AT_location[DW_OP_breg20 -2]
    3504              
    3505              ;* AR1   assigned to targetVar
    3506              $C$DW$215       .dwtag  DW_TAG_variable
    3507                      .dwattr $C$DW$215, DW_AT_name("targetVar")
    3508                      .dwattr $C$DW$215, DW_AT_type(*$C$DW$T$104)
    3509                      .dwattr $C$DW$215, DW_AT_location[DW_OP_reg6]
    3510              
    3511              ;* R0    assigned to upperLim
    3512              $C$DW$216       .dwtag  DW_TAG_variable
    3513                      .dwattr $C$DW$216, DW_AT_name("upperLim")
    3514                      .dwattr $C$DW$216, DW_AT_type(*$C$DW$T$106)
TMS320C2000 Assembler PC v22.6.1 Thu Mar 28 17:35:23 2024

Copyright (c) 1996-2018 Texas Instruments Incorporated
llc.asm                                                              PAGE   69

    3515                      .dwattr $C$DW$216, DW_AT_location[DW_OP_regx 0x2b]
    3516              
    3517                      .dwcfi  cfa_offset, -2
    3518                      .dwcfi  save_reg_to_mem, 26, 0
    3519 00000000 B2BD          MOVL      *SP++,XAR1            ; [CPU_ALU] 
    3520                      .dwcfi  save_reg_to_mem, 7, 2
    3521                      .dwcfi  cfa_offset, -4
    3522 00000001 FE02          ADDB      SP,#2                 ; [CPU_ARAU] 
    3523                      .dwcfi  cfa_offset, -6
    3524 00000002 8BA4          MOVL      XAR1,XAR4             ; [CPU_ALU] |171| 
    3525 00000003 E203          MOV32     *-SP[2],R0H           ; [CPU_FPU] |171| 
         00000004 0042 
    3526                      .dwpsn  file "../llc.c",line 172,column 5,is_stmt,isa 0
    3527 00000005 5CAD          MOVZ      AR4,SP                ; [CPU_ALU] |172| 
    3528                      .dwpsn  file "../llc.c",line 171,column 1,is_stmt,isa 0
    3529 00000006 E6CF          MOV32     R3H,R1H               ; [CPU_FPU] |171| 
         00000007 000B 
    3530 00000008 E6CF          MOV32     R1H,R2H               ; [CPU_FPU] |171| 
         00000009 0011 
    3531 0000000a E6CF          MOV32     R0H,R3H               ; [CPU_FPU] |171| 
         0000000b 0018 
    3532                      .dwpsn  file "../llc.c",line 172,column 5,is_stmt,isa 0
    3533 0000000c DC82          SUBB      XAR4,#2               ; [CPU_ARAU] |172| 
    3534 0000000d 5CA4          MOVZ      AR4,AR4               ; [CPU_ALU] |172| 
    3535              $C$DW$217       .dwtag  DW_TAG_TI_branch
    3536                      .dwattr $C$DW$217, DW_AT_low_pc(0x00)
    3537                      .dwattr $C$DW$217, DW_AT_name("DCL_runClamp_C1")
    3538                      .dwattr $C$DW$217, DW_AT_TI_call
    3539              
    3540 0000000e 7640!         LCR       #||DCL_runClamp_C1||  ; [CPU_ALU] |172| 
         0000000f 0000 
    3541                      ; call occurs [#||DCL_runClamp_C1||] ; [] |172| 
    3542                      .dwpsn  file "../llc.c",line 173,column 5,is_stmt,isa 0
    3543 00000010 0642          MOVL      ACC,*-SP[2]           ; [CPU_ALU] |173| 
    3544 00000011 1EC1          MOVL      *+XAR1[0],ACC         ; [CPU_ALU] |173| 
    3545 00000012 FE82          SUBB      SP,#2                 ; [CPU_ARAU] 
    3546                      .dwcfi  cfa_offset, -4
    3547 00000013 8BBE          MOVL      XAR1,*--SP            ; [CPU_ALU] 
    3548                      .dwcfi  cfa_offset, -2
    3549                      .dwcfi  restore_reg, 7
    3550              $C$DW$218       .dwtag  DW_TAG_TI_branch
    3551                      .dwattr $C$DW$218, DW_AT_low_pc(0x00)
    3552                      .dwattr $C$DW$218, DW_AT_TI_return
    3553              
    3554 00000014 0006          LRETR     ; [CPU_ALU] 
    3555                      ; return occurs ; [] 
    3556                      .dwattr $C$DW$209, DW_AT_TI_end_file("../llc.c")
    3557                      .dwattr $C$DW$209, DW_AT_TI_end_line(0xae)
    3558                      .dwattr $C$DW$209, DW_AT_TI_end_column(0x01)
    3559                      .dwendentry
    3560                      .dwendtag $C$DW$209
    3561              
    3562 00000000               .sect   ".text:LLC_updateSR"
    3563                      .clink
    3564                      .global ||LLC_updateSR||
TMS320C2000 Assembler PC v22.6.1 Thu Mar 28 17:35:23 2024

Copyright (c) 1996-2018 Texas Instruments Incorporated
llc.asm                                                              PAGE   70

    3565              
    3566              $C$DW$219       .dwtag  DW_TAG_subprogram
    3567                      .dwattr $C$DW$219, DW_AT_name("LLC_updateSR")
    3568                      .dwattr $C$DW$219, DW_AT_low_pc(||LLC_updateSR||)
    3569                      .dwattr $C$DW$219, DW_AT_high_pc(0x00)
    3570                      .dwattr $C$DW$219, DW_AT_linkage_name("LLC_updateSR")
    3571                      .dwattr $C$DW$219, DW_AT_external
    3572                      .dwattr $C$DW$219, DW_AT_decl_file("../llc.c")
    3573                      .dwattr $C$DW$219, DW_AT_decl_line(0x133)
    3574                      .dwattr $C$DW$219, DW_AT_decl_column(0x06)
    3575                      .dwattr $C$DW$219, DW_AT_TI_max_frame_size(-4)
    3576                      .dwpsn  file "../llc.c",line 308,column 1,is_stmt,address ||LLC_updateSR||,isa 0
    3577              
    3578                      .dwfde $C$DW$CIE, ||LLC_updateSR||
    3579              
    3580              ;***************************************************************
    3581              ;* FNAME: LLC_updateSR                  FR SIZE:   2           *
    3582              ;*                                                             *
    3583              ;* FUNCTION ENVIRONMENT                                        *
    3584              ;*                                                             *
    3585              ;* FUNCTION PROPERTIES                                         *
    3586              ;*                            2 Parameter,  0 Auto,  0 SOE     *
    3587              ;***************************************************************
    3588              
    3589 00000000       ||LLC_updateSR||:
    3590              ;* R0    assigned to $O$v1
    3591                      .dwcfi  cfa_offset, -2
    3592                      .dwcfi  save_reg_to_mem, 26, 0
    3593 00000000 FE02          ADDB      SP,#2                 ; [CPU_ARAU] 
    3594                      .dwcfi  cfa_offset, -4
    3595 00000001 761F!         MOVW      DP,#||LLC_SRenable||  ; [CPU_ARAU] 
         00000002 0000 
    3596                      .dwpsn  file "../llc.c",line 313,column 5,is_stmt,isa 0
    3597 00000003 9200!         MOV       AL,@||LLC_SRenable||  ; [CPU_ALU] |313| 
    3598 00000004 6004          B         ||$C$L27||,NEQ        ; [CPU_ALU] |313| 
    3599                      ; branchcc occurs ; [] |313| 
    3600 00000005 E2AF!         MOV32     R0H,@||LLC_iSec_Amps|| ; [CPU_FPU] 
         00000006 0000 
    3601 00000007 6F13          B         ||$C$L28||,UNC        ; [CPU_ALU] |313| 
    3602                      ; branch occurs ; [] |313| 
    3603 00000008       ||$C$L27||:    
    3604 00000008 E801          MOVIZ     R0H,#16140            ; [CPU_FPU] |313| 
         00000009 F860 
    3605 0000000a E2AF!         MOV32     R1H,@||LLC_dutySet_pu|| ; [CPU_FPU] |313| 
         0000000b 0100 
    3606 0000000c E80E          MOVXI     R0H,#52429            ; [CPU_FPU] |313| 
         0000000d 6668 
    3607 0000000e E694          CMPF32    R1H,R0H               ; [CPU_FPU] |313| 
         0000000f 0001 
    3608 00000010 AD14          MOVST0    ZF, NF                ; [CPU_FPU] |313| 
    3609 00000011 E2A3!         MOV32     R0H,@||LLC_iSec_Amps||,GEQ ; [CPU_FPU] 
         00000012 0000 
    3610 00000013 6307          B         ||$C$L28||,GEQ        ; [CPU_ALU] |313| 
    3611                      ; branchcc occurs ; [] |313| 
    3612 00000014 E2AF!         MOV32     R0H,@||LLC_iSec_Amps|| ; [CPU_FPU] |313| 
TMS320C2000 Assembler PC v22.6.1 Thu Mar 28 17:35:23 2024

Copyright (c) 1996-2018 Texas Instruments Incorporated
llc.asm                                                              PAGE   71

         00000015 0000 
    3613 00000016 E812          CMPF32    R0H,#16672            ; [CPU_FPU] |313| 
         00000017 0900 
    3614 00000018 AD14          MOVST0    ZF, NF                ; [CPU_FPU] |313| 
    3615 00000019 641E          B         ||$C$L30||,LT         ; [CPU_ALU] |313| 
    3616                      ; branchcc occurs ; [] |313| 
    3617 0000001a       ||$C$L28||:    
    3618 0000001a E812          CMPF32    R0H,#16384            ; [CPU_FPU] |313| 
         0000001b 0000 
    3619 0000001c AD14          MOVST0    ZF, NF                ; [CPU_FPU] |313| 
    3620 0000001d 641A          B         ||$C$L30||,LT         ; [CPU_ALU] |313| 
    3621                      ; branchcc occurs ; [] |313| 
    3622                      .dwpsn  file "../llc.c",line 324,column 10,is_stmt,isa 0
    3623 0000001e 5200          CMPB      AL,#0                 ; [CPU_ALU] |324| 
    3624 0000001f 6027          B         ||$C$L32||,NEQ        ; [CPU_ALU] |324| 
    3625                      ; branchcc occurs ; [] |324| 
    3626 00000020 E2AF!         MOV32     R1H,@||LLC_dutySet_pu|| ; [CPU_FPU] |324| 
         00000021 0100 
    3627 00000022 E811          CMPF32    R1H,#16192            ; [CPU_FPU] |324| 
         00000023 FA01 
    3628 00000024 AD14          MOVST0    ZF, NF                ; [CPU_FPU] |324| 
    3629 00000025 6205          B         ||$C$L29||,GT         ; [CPU_ALU] |324| 
    3630                      ; branchcc occurs ; [] |324| 
    3631 00000026 E812          CMPF32    R0H,#16448            ; [CPU_FPU] |324| 
         00000027 0200 
    3632 00000028 AD14          MOVST0    ZF, NF                ; [CPU_FPU] |324| 
    3633 00000029 651D          B         ||$C$L32||,LEQ        ; [CPU_ALU] |324| 
    3634                      ; branchcc occurs ; [] |324| 
    3635 0000002a       ||$C$L29||:    
    3636                      .dwpsn  file "C:/Users/Joel9/Downloads/llc_capstone_F28003/llc_capstone_F28003x/device/driverlib/epwm
    3637 0000002a F5A9          MOV       AL,*(0:0x4149)        ; [CPU_ALU] |3285| 
         0000002b 4149 
    3638 0000002c 18A9          AND       AL,#0xfffc            ; [CPU_ALU] |3285| 
         0000002d FFFC 
    3639                      .dwpsn  file "../llc.c",line 328,column 9,is_stmt,isa 0
    3640 0000002e 56BF!         MOVB      @||LLC_SRenable||,#1,UNC ; [CPU_FPU] |328| 
         0000002f 0100 
    3641                      .dwpsn  file "C:/Users/Joel9/Downloads/llc_capstone_F28003/llc_capstone_F28003x/device/driverlib/epwm
    3642 00000030 F4A9          MOV       *(0:0x4149),AL        ; [CPU_ALU] |3285| 
         00000031 4149 
    3643                      .dwpsn  file "C:/Users/Joel9/Downloads/llc_capstone_F28003/llc_capstone_F28003x/device/driverlib/epwm
    3644 00000032 F5A9          MOV       AL,*(0:0x4149)        ; [CPU_ALU] |3291| 
         00000033 4149 
    3645 00000034 18A9          AND       AL,#0xfff3            ; [CPU_ALU] |3291| 
         00000035 FFF3 
    3646                      .dwpsn  file "../llc.c",line 328,column 9,is_stmt,isa 0
    3647 00000036 6F0E          B         ||$C$L31||,UNC        ; [CPU_ALU] |328| 
    3648                      ; branch occurs ; [] |328| 
    3649 00000037       ||$C$L30||:    
    3650                      .dwpsn  file "C:/Users/Joel9/Downloads/llc_capstone_F28003/llc_capstone_F28003x/device/driverlib/epwm
    3651 00000037 F5A9          MOV       AL,*(0:0x4149)        ; [CPU_ALU] |3285| 
         00000038 4149 
    3652 00000039 CCA9          AND       AL,AL,#0xfffc         ; [CPU_ALU] |3285| 
         0000003a FFFC 
    3653                      .dwpsn  file "../llc.c",line 317,column 9,is_stmt,isa 0
TMS320C2000 Assembler PC v22.6.1 Thu Mar 28 17:35:23 2024

Copyright (c) 1996-2018 Texas Instruments Incorporated
llc.asm                                                              PAGE   72

    3654 0000003b 2B00!         MOV       @||LLC_SRenable||,#0  ; [CPU_ALU] |317| 
    3655                      .dwpsn  file "C:/Users/Joel9/Downloads/llc_capstone_F28003/llc_capstone_F28003x/device/driverlib/epwm
    3656 0000003c 5001          ORB       AL,#0x01              ; [CPU_ALU] |3285| 
    3657 0000003d F4A9          MOV       *(0:0x4149),AL        ; [CPU_ALU] |3285| 
         0000003e 4149 
    3658                      .dwpsn  file "C:/Users/Joel9/Downloads/llc_capstone_F28003/llc_capstone_F28003x/device/driverlib/epwm
    3659 0000003f F5A9          MOV       AL,*(0:0x4149)        ; [CPU_ALU] |3291| 
         00000040 4149 
    3660 00000041 CCA9          AND       AL,AL,#0xfffb         ; [CPU_ALU] |3291| 
         00000042 FFFB 
    3661 00000043 5008          ORB       AL,#0x08              ; [CPU_ALU] |3291| 
    3662 00000044       ||$C$L31||:    
    3663 00000044 F4A9          MOV       *(0:0x4149),AL        ; [CPU_ALU] |3291| 
         00000045 4149 
    3664 00000046       ||$C$L32||:    
    3665 00000046 FE82          SUBB      SP,#2                 ; [CPU_ARAU] 
    3666                      .dwcfi  cfa_offset, -2
    3667              $C$DW$220       .dwtag  DW_TAG_TI_branch
    3668                      .dwattr $C$DW$220, DW_AT_low_pc(0x00)
    3669                      .dwattr $C$DW$220, DW_AT_TI_return
    3670              
    3671 00000047 0006          LRETR     ; [CPU_ALU] 
    3672                      ; return occurs ; [] 
    3673                      .dwattr $C$DW$219, DW_AT_TI_end_file("../llc.c")
    3674                      .dwattr $C$DW$219, DW_AT_TI_end_line(0x14a)
    3675                      .dwattr $C$DW$219, DW_AT_TI_end_column(0x01)
    3676                      .dwendentry
    3677                      .dwendtag $C$DW$219
    3678              
    3679 00000000               .sect   ".text:LLC_updateDeadband"
    3680                      .clink
    3681                      .global ||LLC_updateDeadband||
    3682              
    3683              $C$DW$221       .dwtag  DW_TAG_subprogram
    3684                      .dwattr $C$DW$221, DW_AT_name("LLC_updateDeadband")
    3685                      .dwattr $C$DW$221, DW_AT_low_pc(||LLC_updateDeadband||)
    3686                      .dwattr $C$DW$221, DW_AT_high_pc(0x00)
    3687                      .dwattr $C$DW$221, DW_AT_linkage_name("LLC_updateDeadband")
    3688                      .dwattr $C$DW$221, DW_AT_external
    3689                      .dwattr $C$DW$221, DW_AT_decl_file("../llc.c")
    3690                      .dwattr $C$DW$221, DW_AT_decl_line(0xb5)
    3691                      .dwattr $C$DW$221, DW_AT_decl_column(0x06)
    3692                      .dwattr $C$DW$221, DW_AT_TI_max_frame_size(-4)
    3693                      .dwpsn  file "../llc.c",line 182,column 1,is_stmt,address ||LLC_updateDeadband||,isa 0
    3694              
    3695                      .dwfde $C$DW$CIE, ||LLC_updateDeadband||
    3696              $C$DW$222       .dwtag  DW_TAG_variable
    3697                      .dwattr $C$DW$222, DW_AT_name("range")
    3698                      .dwattr $C$DW$222, DW_AT_linkage_name("range$1")
    3699                      .dwattr $C$DW$222, DW_AT_type(*$C$DW$T$72)
    3700                      .dwattr $C$DW$222, DW_AT_location[DW_OP_addr ||range$1||]
    3701              
    3702              
    3703              ;***************************************************************
    3704              ;* FNAME: LLC_updateDeadband            FR SIZE:   2           *
TMS320C2000 Assembler PC v22.6.1 Thu Mar 28 17:35:23 2024

Copyright (c) 1996-2018 Texas Instruments Incorporated
llc.asm                                                              PAGE   73

    3705              ;*                                                             *
    3706              ;* FUNCTION ENVIRONMENT                                        *
    3707              ;*                                                             *
    3708              ;* FUNCTION PROPERTIES                                         *
    3709              ;*                            2 Parameter,  0 Auto,  0 SOE     *
    3710              ;***************************************************************
    3711              
    3712 00000000       ||LLC_updateDeadband||:
    3713              ;* R0    assigned to $O$v1
    3714              ;* R0    assigned to $O$v1
    3715              ;* R0    assigned to $O$v1
    3716              ;* R0    assigned to $O$v1
    3717                      .dwcfi  cfa_offset, -2
    3718                      .dwcfi  save_reg_to_mem, 26, 0
    3719 00000000 FE02          ADDB      SP,#2                 ; [CPU_ARAU] 
    3720                      .dwcfi  cfa_offset, -4
    3721 00000001 761F!         MOVW      DP,#||range$1||       ; [CPU_ARAU] 
         00000002 0000 
    3722                      .dwpsn  file "../llc.c",line 185,column 5,is_stmt,isa 0
    3723 00000003 9200!         MOV       AL,@||range$1||       ; [CPU_ALU] |185| 
    3724 00000004 5203          CMPB      AL,#3                 ; [CPU_ALU] |185| 
    3725 00000005 620C          B         ||$C$L33||,GT         ; [CPU_ALU] |185| 
    3726                      ; branchcc occurs ; [] |185| 
    3727 00000006 5203          CMPB      AL,#3                 ; [CPU_ALU] |185| 
    3728 00000007 6138          B         ||$C$L38||,EQ         ; [CPU_ALU] |185| 
    3729                      ; branchcc occurs ; [] |185| 
    3730 00000008 5200          CMPB      AL,#0                 ; [CPU_ALU] |185| 
    3731 00000009 FFE1          B         ||$C$L48||,EQ         ; [CPU_ALU] |185| 
         0000000a 008A 
    3732                      ; branchcc occurs ; [] |185| 
    3733 0000000b 5201          CMPB      AL,#1                 ; [CPU_ALU] |185| 
    3734 0000000c 6167          B         ||$C$L44||,EQ         ; [CPU_ALU] |185| 
    3735                      ; branchcc occurs ; [] |185| 
    3736 0000000d 5202          CMPB      AL,#2                 ; [CPU_ALU] |185| 
    3737 0000000e 614B          B         ||$C$L41||,EQ         ; [CPU_ALU] |185| 
    3738                      ; branchcc occurs ; [] |185| 
    3739 0000000f FFEF          B         ||$C$L49||,UNC        ; [CPU_ALU] |185| 
         00000010 0096 
    3740                      ; branch occurs ; [] |185| 
    3741 00000011       ||$C$L33||:    
    3742 00000011 5204          CMPB      AL,#4                 ; [CPU_ALU] |185| 
    3743 00000012 6117          B         ||$C$L35||,EQ         ; [CPU_ALU] |185| 
    3744                      ; branchcc occurs ; [] |185| 
    3745 00000013 5205          CMPB      AL,#5                 ; [CPU_ALU] |185| 
    3746 00000014 FFE0          B         ||$C$L49||,NEQ        ; [CPU_ALU] |185| 
         00000015 0091 
    3747                      ; branchcc occurs ; [] |185| 
    3748 00000016 761F!         MOVW      DP,#||LLC_iSec_Amps|| ; [CPU_ARAU] 
         00000017 0000 
    3749                      .dwpsn  file "../llc.c",line 286,column 13,is_stmt,isa 0
    3750 00000018 E2AF!         MOV32     R0H,@||LLC_iSec_Amps|| ; [CPU_FPU] |286| 
         00000019 0000 
    3751 0000001a E812          CMPF32    R0H,#16856            ; [CPU_FPU] |286| 
         0000001b 0EC0 
    3752 0000001c AD14          MOVST0    ZF, NF                ; [CPU_FPU] |286| 
TMS320C2000 Assembler PC v22.6.1 Thu Mar 28 17:35:23 2024

Copyright (c) 1996-2018 Texas Instruments Incorporated
llc.asm                                                              PAGE   74

    3753 0000001d FFE5          B         ||$C$L49||,LEQ        ; [CPU_ALU] |286| 
         0000001e 0088 
    3754                      ; branchcc occurs ; [] |286| 
    3755                      .dwpsn  file "../llc.c",line 288,column 17,is_stmt,isa 0
    3756 0000001f 56BF!         MOVB      @||LLC_PWMDbRedPri||,#15,UNC ; [CPU_ALU] |288| 
         00000020 0F00 
    3757                      .dwpsn  file "../llc.c",line 289,column 17,is_stmt,isa 0
    3758 00000021 56BF!         MOVB      @||LLC_PWMDbFedPri||,#15,UNC ; [CPU_ALU] |289| 
         00000022 0F00 
    3759 00000023       ||$C$L34||:    
    3760 00000023 761F!         MOVW      DP,#||range$1||       ; [CPU_ARAU] 
         00000024 0000 
    3761                      .dwpsn  file "../llc.c",line 290,column 17,is_stmt,isa 0
    3762 00000025 56BF!         MOVB      @||range$1||,#5,UNC   ; [CPU_ALU] |290| 
         00000026 0500 
    3763 00000027 FFEF          B         ||$C$L50||,UNC        ; [CPU_ALU] 
         00000028 0081 
    3764                      ; branch occurs ; [] 
    3765 00000029       ||$C$L35||:    
    3766 00000029 761F!         MOVW      DP,#||LLC_iSec_Amps|| ; [CPU_ARAU] 
         0000002a 0000 
    3767                      .dwpsn  file "../llc.c",line 265,column 13,is_stmt,isa 0
    3768 0000002b E2AF!         MOV32     R0H,@||LLC_iSec_Amps|| ; [CPU_FPU] |265| 
         0000002c 0000 
    3769 0000002d E812          CMPF32    R0H,#16816            ; [CPU_FPU] |265| 
         0000002e 0D80 
    3770 0000002f AD14          MOVST0    ZF, NF                ; [CPU_FPU] |265| 
    3771 00000030 6505          B         ||$C$L36||,LEQ        ; [CPU_ALU] |265| 
    3772                      ; branchcc occurs ; [] |265| 
    3773 00000031 E812          CMPF32    R0H,#16864            ; [CPU_FPU] |265| 
         00000032 0F00 
    3774 00000033 AD14          MOVST0    ZF, NF                ; [CPU_FPU] |265| 
    3775 00000034 6406          B         ||$C$L37||,LT         ; [CPU_ALU] |265| 
    3776                      ; branchcc occurs ; [] |265| 
    3777 00000035       ||$C$L36||:    
    3778                      .dwpsn  file "../llc.c",line 274,column 17,is_stmt,isa 0
    3779 00000035 E812          CMPF32    R0H,#16864            ; [CPU_FPU] |274| 
         00000036 0F00 
    3780 00000037 AD14          MOVST0    ZF, NF                ; [CPU_FPU] |274| 
    3781 00000038 646D          B         ||$C$L49||,LT         ; [CPU_ALU] |274| 
    3782                      ; branchcc occurs ; [] |274| 
    3783 00000039 6FEA          B         ||$C$L34||,UNC        ; [CPU_ALU] 
    3784                      ; branch occurs ; [] 
    3785 0000003a       ||$C$L37||:    
    3786 0000003a 761F!         MOVW      DP,#||range$1||       ; [CPU_ARAU] 
         0000003b 0000 
    3787                      .dwpsn  file "../llc.c",line 270,column 17,is_stmt,isa 0
    3788 0000003c 56BF!         MOVB      @||range$1||,#4,UNC   ; [CPU_ALU] |270| 
         0000003d 0400 
    3789 0000003e 6F4E          B         ||$C$L47||,UNC        ; [CPU_ALU] 
    3790                      ; branch occurs ; [] 
    3791 0000003f       ||$C$L38||:    
    3792 0000003f 761F!         MOVW      DP,#||LLC_iSec_Amps|| ; [CPU_ARAU] 
         00000040 0000 
    3793                      .dwpsn  file "../llc.c",line 245,column 13,is_stmt,isa 0
TMS320C2000 Assembler PC v22.6.1 Thu Mar 28 17:35:23 2024

Copyright (c) 1996-2018 Texas Instruments Incorporated
llc.asm                                                              PAGE   75

    3794 00000041 E2AF!         MOV32     R0H,@||LLC_iSec_Amps|| ; [CPU_FPU] |245| 
         00000042 0000 
    3795 00000043 E812          CMPF32    R0H,#16796            ; [CPU_FPU] |245| 
         00000044 0CE0 
    3796 00000045 AD14          MOVST0    ZF, NF                ; [CPU_FPU] |245| 
    3797 00000046 6505          B         ||$C$L39||,LEQ        ; [CPU_ALU] |245| 
    3798                      ; branchcc occurs ; [] |245| 
    3799 00000047 E812          CMPF32    R0H,#16824            ; [CPU_FPU] |245| 
         00000048 0DC0 
    3800 00000049 AD14          MOVST0    ZF, NF                ; [CPU_FPU] |245| 
    3801 0000004a 640A          B         ||$C$L40||,LT         ; [CPU_ALU] |245| 
    3802                      ; branchcc occurs ; [] |245| 
    3803 0000004b       ||$C$L39||:    
    3804                      .dwpsn  file "../llc.c",line 254,column 17,is_stmt,isa 0
    3805 0000004b E812          CMPF32    R0H,#16824            ; [CPU_FPU] |254| 
         0000004c 0DC0 
    3806 0000004d AD14          MOVST0    ZF, NF                ; [CPU_FPU] |254| 
    3807 0000004e 6457          B         ||$C$L49||,LT         ; [CPU_ALU] |254| 
    3808                      ; branchcc occurs ; [] |254| 
    3809 0000004f 761F!         MOVW      DP,#||range$1||       ; [CPU_ARAU] 
         00000050 0000 
    3810                      .dwpsn  file "../llc.c",line 255,column 21,is_stmt,isa 0
    3811 00000051 56BF!         MOVB      @||range$1||,#4,UNC   ; [CPU_ALU] |255| 
         00000052 0400 
    3812 00000053 6F55          B         ||$C$L50||,UNC        ; [CPU_ALU] 
    3813                      ; branch occurs ; [] 
    3814 00000054       ||$C$L40||:    
    3815 00000054 761F!         MOVW      DP,#||range$1||       ; [CPU_ARAU] 
         00000055 0000 
    3816                      .dwpsn  file "../llc.c",line 250,column 17,is_stmt,isa 0
    3817 00000056 56BF!         MOVB      @||range$1||,#3,UNC   ; [CPU_ALU] |250| 
         00000057 0300 
    3818 00000058 6F34          B         ||$C$L47||,UNC        ; [CPU_ALU] 
    3819                      ; branch occurs ; [] 
    3820 00000059       ||$C$L41||:    
    3821 00000059 761F!         MOVW      DP,#||LLC_iSec_Amps|| ; [CPU_ARAU] 
         0000005a 0000 
    3822                      .dwpsn  file "../llc.c",line 225,column 13,is_stmt,isa 0
    3823 0000005b E2AF!         MOV32     R0H,@||LLC_iSec_Amps|| ; [CPU_FPU] |225| 
         0000005c 0000 
    3824 0000005d E812          CMPF32    R0H,#16704            ; [CPU_FPU] |225| 
         0000005e 0A00 
    3825 0000005f AD14          MOVST0    ZF, NF                ; [CPU_FPU] |225| 
    3826 00000060 6505          B         ||$C$L42||,LEQ        ; [CPU_ALU] |225| 
    3827                      ; branchcc occurs ; [] |225| 
    3828 00000061 E812          CMPF32    R0H,#16804            ; [CPU_FPU] |225| 
         00000062 0D20 
    3829 00000063 AD14          MOVST0    ZF, NF                ; [CPU_FPU] |225| 
    3830 00000064 640A          B         ||$C$L43||,LT         ; [CPU_ALU] |225| 
    3831                      ; branchcc occurs ; [] |225| 
    3832 00000065       ||$C$L42||:    
    3833                      .dwpsn  file "../llc.c",line 234,column 17,is_stmt,isa 0
    3834 00000065 E812          CMPF32    R0H,#16804            ; [CPU_FPU] |234| 
         00000066 0D20 
    3835 00000067 AD14          MOVST0    ZF, NF                ; [CPU_FPU] |234| 
TMS320C2000 Assembler PC v22.6.1 Thu Mar 28 17:35:23 2024

Copyright (c) 1996-2018 Texas Instruments Incorporated
llc.asm                                                              PAGE   76

    3836 00000068 643D          B         ||$C$L49||,LT         ; [CPU_ALU] |234| 
    3837                      ; branchcc occurs ; [] |234| 
    3838 00000069 761F!         MOVW      DP,#||range$1||       ; [CPU_ARAU] 
         0000006a 0000 
    3839                      .dwpsn  file "../llc.c",line 235,column 21,is_stmt,isa 0
    3840 0000006b 56BF!         MOVB      @||range$1||,#3,UNC   ; [CPU_ALU] |235| 
         0000006c 0300 
    3841 0000006d 6F3B          B         ||$C$L50||,UNC        ; [CPU_ALU] 
    3842                      ; branch occurs ; [] 
    3843 0000006e       ||$C$L43||:    
    3844 0000006e 761F!         MOVW      DP,#||range$1||       ; [CPU_ARAU] 
         0000006f 0000 
    3845                      .dwpsn  file "../llc.c",line 230,column 17,is_stmt,isa 0
    3846 00000070 56BF!         MOVB      @||range$1||,#2,UNC   ; [CPU_ALU] |230| 
         00000071 0200 
    3847 00000072 6F1A          B         ||$C$L47||,UNC        ; [CPU_ALU] 
    3848                      ; branch occurs ; [] 
    3849 00000073       ||$C$L44||:    
    3850 00000073 761F!         MOVW      DP,#||LLC_iSec_Amps|| ; [CPU_ARAU] 
         00000074 0000 
    3851                      .dwpsn  file "../llc.c",line 205,column 13,is_stmt,isa 0
    3852 00000075 E2AF!         MOV32     R0H,@||LLC_iSec_Amps|| ; [CPU_FPU] |205| 
         00000076 0000 
    3853 00000077 E812          CMPF32    R0H,#16528            ; [CPU_FPU] |205| 
         00000078 0480 
    3854 00000079 AD14          MOVST0    ZF, NF                ; [CPU_FPU] |205| 
    3855 0000007a 6505          B         ||$C$L45||,LEQ        ; [CPU_ALU] |205| 
    3856                      ; branchcc occurs ; [] |205| 
    3857 0000007b E812          CMPF32    R0H,#16720            ; [CPU_FPU] |205| 
         0000007c 0A80 
    3858 0000007d AD14          MOVST0    ZF, NF                ; [CPU_FPU] |205| 
    3859 0000007e 640A          B         ||$C$L46||,LT         ; [CPU_ALU] |205| 
    3860                      ; branchcc occurs ; [] |205| 
    3861 0000007f       ||$C$L45||:    
    3862                      .dwpsn  file "../llc.c",line 214,column 17,is_stmt,isa 0
    3863 0000007f E812          CMPF32    R0H,#16720            ; [CPU_FPU] |214| 
         00000080 0A80 
    3864 00000081 AD14          MOVST0    ZF, NF                ; [CPU_FPU] |214| 
    3865 00000082 6423          B         ||$C$L49||,LT         ; [CPU_ALU] |214| 
    3866                      ; branchcc occurs ; [] |214| 
    3867 00000083 761F!         MOVW      DP,#||range$1||       ; [CPU_ARAU] 
         00000084 0000 
    3868                      .dwpsn  file "../llc.c",line 215,column 21,is_stmt,isa 0
    3869 00000085 56BF!         MOVB      @||range$1||,#2,UNC   ; [CPU_ALU] |215| 
         00000086 0200 
    3870 00000087 6F21          B         ||$C$L50||,UNC        ; [CPU_ALU] 
    3871                      ; branch occurs ; [] 
    3872 00000088       ||$C$L46||:    
    3873 00000088 761F!         MOVW      DP,#||range$1||       ; [CPU_ARAU] 
         00000089 0000 
    3874                      .dwpsn  file "../llc.c",line 210,column 17,is_stmt,isa 0
    3875 0000008a 56BF!         MOVB      @||range$1||,#1,UNC   ; [CPU_ALU] |210| 
         0000008b 0100 
    3876 0000008c       ||$C$L47||:    
    3877 0000008c 761F!         MOVW      DP,#||LLC_PWMDbRedPri|| ; [CPU_ARAU] 
TMS320C2000 Assembler PC v22.6.1 Thu Mar 28 17:35:23 2024

Copyright (c) 1996-2018 Texas Instruments Incorporated
llc.asm                                                              PAGE   77

         0000008d 0000 
    3878                      .dwpsn  file "../llc.c",line 208,column 17,is_stmt,isa 0
    3879 0000008e 56BF!         MOVB      @||LLC_PWMDbRedPri||,#15,UNC ; [CPU_ALU] |208| 
         0000008f 0F00 
    3880                      .dwpsn  file "../llc.c",line 209,column 17,is_stmt,isa 0
    3881 00000090 56BF!         MOVB      @||LLC_PWMDbFedPri||,#15,UNC ; [CPU_ALU] |209| 
         00000091 0F00 
    3882 00000092 6F16          B         ||$C$L50||,UNC        ; [CPU_ALU] 
    3883                      ; branch occurs ; [] 
    3884 00000093       ||$C$L48||:    
    3885 00000093 761F!         MOVW      DP,#||LLC_iSec_Amps|| ; [CPU_ARAU] 
         00000094 0000 
    3886                      .dwpsn  file "../llc.c",line 191,column 13,is_stmt,isa 0
    3887 00000095 E2AF!         MOV32     R0H,@||LLC_iSec_Amps|| ; [CPU_FPU] |191| 
         00000096 0000 
    3888 00000097 761F!         MOVW      DP,#||range$1||       ; [CPU_ARAU] 
         00000098 0000 
    3889 00000099 E812          CMPF32    R0H,#16560            ; [CPU_FPU] |191| 
         0000009a 0580 
    3890 0000009b AD14          MOVST0    ZF, NF                ; [CPU_FPU] |191| 
    3891                      .dwpsn  file "../llc.c",line 198,column 17,is_stmt,isa 0
    3892 0000009c 56B3!         MOVB      @||range$1||,#1,GEQ   ; [CPU_ALU] |198| 
         0000009d 0100 
    3893 0000009e 630A          B         ||$C$L50||,GEQ        ; [CPU_ALU] |198| 
    3894                      ; branchcc occurs ; [] |198| 
    3895 0000009f 761F!         MOVW      DP,#||LLC_PWMDbRedPri|| ; [CPU_ARAU] 
         000000a0 0000 
    3896                      .dwpsn  file "../llc.c",line 193,column 17,is_stmt,isa 0
    3897 000000a1 56BF!         MOVB      @||LLC_PWMDbRedPri||,#15,UNC ; [CPU_ALU] |193| 
         000000a2 0F00 
    3898                      .dwpsn  file "../llc.c",line 194,column 17,is_stmt,isa 0
    3899 000000a3 56BF!         MOVB      @||LLC_PWMDbFedPri||,#15,UNC ; [CPU_ALU] |194| 
         000000a4 0F00 
    3900 000000a5       ||$C$L49||:    
    3901 000000a5 761F!         MOVW      DP,#||range$1||       ; [CPU_ARAU] 
         000000a6 0000 
    3902                      .dwpsn  file "../llc.c",line 296,column 13,is_stmt,isa 0
    3903 000000a7 2B00!         MOV       @||range$1||,#0       ; [CPU_ALU] |296| 
    3904 000000a8       ||$C$L50||:    
    3905 000000a8 FE82          SUBB      SP,#2                 ; [CPU_ARAU] 
    3906                      .dwcfi  cfa_offset, -2
    3907              $C$DW$223       .dwtag  DW_TAG_TI_branch
    3908                      .dwattr $C$DW$223, DW_AT_low_pc(0x00)
    3909                      .dwattr $C$DW$223, DW_AT_TI_return
    3910              
    3911 000000a9 0006          LRETR     ; [CPU_ALU] 
    3912                      ; return occurs ; [] 
    3913                      .dwattr $C$DW$221, DW_AT_TI_end_file("../llc.c")
    3914                      .dwattr $C$DW$221, DW_AT_TI_end_line(0x12b)
    3915                      .dwattr $C$DW$221, DW_AT_TI_end_column(0x01)
    3916                      .dwendentry
    3917                      .dwendtag $C$DW$221
    3918              
    3919 00000000               .sect   ".text:LLC_systemStartUp"
    3920                      .clink
TMS320C2000 Assembler PC v22.6.1 Thu Mar 28 17:35:23 2024

Copyright (c) 1996-2018 Texas Instruments Incorporated
llc.asm                                                              PAGE   78

    3921                      .global ||LLC_systemStartUp||
    3922              
    3923              $C$DW$224       .dwtag  DW_TAG_subprogram
    3924                      .dwattr $C$DW$224, DW_AT_name("LLC_systemStartUp")
    3925                      .dwattr $C$DW$224, DW_AT_low_pc(||LLC_systemStartUp||)
    3926                      .dwattr $C$DW$224, DW_AT_high_pc(0x00)
    3927                      .dwattr $C$DW$224, DW_AT_linkage_name("LLC_systemStartUp")
    3928                      .dwattr $C$DW$224, DW_AT_external
    3929                      .dwattr $C$DW$224, DW_AT_decl_file("../llc.c")
    3930                      .dwattr $C$DW$224, DW_AT_decl_line(0x1aa)
    3931                      .dwattr $C$DW$224, DW_AT_decl_column(0x06)
    3932                      .dwattr $C$DW$224, DW_AT_TI_max_frame_size(-2)
    3933                      .dwpsn  file "../llc.c",line 427,column 1,is_stmt,address ||LLC_systemStartUp||,isa 0
    3934              
    3935                      .dwfde $C$DW$CIE, ||LLC_systemStartUp||
    3936              
    3937              ;***************************************************************
    3938              ;* FNAME: LLC_systemStartUp             FR SIZE:   0           *
    3939              ;*                                                             *
    3940              ;* FUNCTION ENVIRONMENT                                        *
    3941              ;*                                                             *
    3942              ;* FUNCTION PROPERTIES                                         *
    3943              ;*                            0 Parameter,  0 Auto,  0 SOE     *
    3944              ;***************************************************************
    3945              
    3946 00000000       ||LLC_systemStartUp||:
    3947                      .dwcfi  cfa_offset, -2
    3948                      .dwcfi  save_reg_to_mem, 26, 0
    3949 00000000 761F!         MOVW      DP,#||LLC_startFlag|| ; [CPU_ARAU] 
         00000001 0000 
    3950                      .dwpsn  file "../llc.c",line 438,column 5,is_stmt,isa 0
    3951 00000002 E801          MOVIZ     R1H,#16253            ; [CPU_FPU] |438| 
         00000003 FBE9 
    3952                      .dwpsn  file "../llc.c",line 449,column 5,is_stmt,isa 0
    3953 00000004 E801          MOVIZ     R0H,#16187            ; [CPU_FPU] |449| 
         00000005 F9D8 
    3954                      .dwpsn  file "../llc.c",line 432,column 5,is_stmt,isa 0
    3955 00000006 2B00!         MOV       @||LLC_startFlag||,#0 ; [CPU_ALU] |432| 
    3956                      .dwpsn  file "../llc.c",line 438,column 5,is_stmt,isa 0
    3957 00000007 E80B          MOVXI     R1H,#28836            ; [CPU_FPU] |438| 
         00000008 8521 
    3958                      .dwpsn  file "../llc.c",line 449,column 5,is_stmt,isa 0
    3959 00000009 E80E          MOVXI     R0H,#53933            ; [CPU_FPU] |449| 
         0000000a 9568 
    3960                      .dwpsn  file "../llc.c",line 438,column 5,is_stmt,isa 0
    3961 0000000b E203!         MOV32     @||LLC_dutySet_debug_pu||,R1H ; [CPU_FPU] |438| 
         0000000c 0100 
    3962                      .dwpsn  file "../llc.c",line 443,column 5,is_stmt,isa 0
    3963 0000000d E801          MOVIZ     R1H,#16187            ; [CPU_FPU] |443| 
         0000000e F9D9 
    3964                      .dwpsn  file "../llc.c",line 449,column 5,is_stmt,isa 0
    3965 0000000f E203!         MOV32     @||LLC_periodRef_debug_pu||,R0H ; [CPU_FPU] |449| 
         00000010 0000 
    3966                      .dwpsn  file "C:/Users/Joel9/Downloads/llc_capstone_F28003/llc_capstone_F28003x/device/driverlib/epwm
    3967 00000011 F5A9          MOV       AL,*(0:0x4049)        ; [CPU_ALU] |3285| 
TMS320C2000 Assembler PC v22.6.1 Thu Mar 28 17:35:23 2024

Copyright (c) 1996-2018 Texas Instruments Incorporated
llc.asm                                                              PAGE   79

         00000012 4049 
    3968                      .dwpsn  file "../llc.c",line 443,column 5,is_stmt,isa 0
    3969 00000013 E80E          MOVXI     R1H,#53933            ; [CPU_FPU] |443| 
         00000014 9569 
    3970                      .dwpsn  file "../llc.c",line 444,column 5,is_stmt,isa 0
    3971 00000015 E801          MOVIZ     R0H,#16187            ; [CPU_FPU] |444| 
         00000016 F9D8 
    3972                      .dwpsn  file "C:/Users/Joel9/Downloads/llc_capstone_F28003/llc_capstone_F28003x/device/driverlib/epwm
    3973 00000017 CCA9          AND       AL,AL,#0xfffc         ; [CPU_ALU] |3285| 
         00000018 FFFC 
    3974 00000019 5001          ORB       AL,#0x01              ; [CPU_ALU] |3285| 
    3975                      .dwpsn  file "../llc.c",line 444,column 5,is_stmt,isa 0
    3976 0000001a E80E          MOVXI     R0H,#53933            ; [CPU_FPU] |444| 
         0000001b 9568 
    3977                      .dwpsn  file "../llc.c",line 443,column 5,is_stmt,isa 0
    3978 0000001c E203!         MOV32     @||LLC_periodSet_pu||,R1H ; [CPU_FPU] |443| 
         0000001d 0100 
    3979                      .dwpsn  file "C:/Users/Joel9/Downloads/llc_capstone_F28003/llc_capstone_F28003x/device/driverlib/epwm
    3980 0000001e F4A9          MOV       *(0:0x4049),AL        ; [CPU_ALU] |3285| 
         0000001f 4049 
    3981                      .dwpsn  file "../llc.c",line 444,column 5,is_stmt,isa 0
    3982 00000020 E203!         MOV32     @||LLC_periodSetSlewed_pu||,R0H ; [CPU_FPU] |444| 
         00000021 0000 
    3983                      .dwpsn  file "C:/Users/Joel9/Downloads/llc_capstone_F28003/llc_capstone_F28003x/device/driverlib/epwm
    3984 00000022 F5A9          MOV       AL,*(0:0x4049)        ; [CPU_ALU] |3291| 
         00000023 4049 
    3985 00000024 CCA9          AND       AL,AL,#0xfff7         ; [CPU_ALU] |3291| 
         00000025 FFF7 
    3986 00000026 5004          ORB       AL,#0x04              ; [CPU_ALU] |3291| 
    3987 00000027 F4A9          MOV       *(0:0x4049),AL        ; [CPU_ALU] |3291| 
         00000028 4049 
    3988                      .dwpsn  file "../llc.c",line 487,column 5,is_stmt,isa 0
    3989 00000029 FF20          MOV       ACC,#23998            ; [CPU_ALU] |487| 
         0000002a 5DBE 
    3990              $C$DW$225       .dwtag  DW_TAG_TI_branch
    3991                      .dwattr $C$DW$225, DW_AT_low_pc(0x00)
    3992                      .dwattr $C$DW$225, DW_AT_name("SysCtl_delay")
    3993                      .dwattr $C$DW$225, DW_AT_TI_call
    3994              
    3995 0000002b 7640!         LCR       #||SysCtl_delay||     ; [CPU_ALU] |487| 
         0000002c 0000 
    3996                      ; call occurs [#||SysCtl_delay||] ; [] |487| 
    3997                      .dwpsn  file "../llc.c",line 492,column 5,is_stmt,isa 0
    3998              $C$DW$226       .dwtag  DW_TAG_TI_branch
    3999                      .dwattr $C$DW$226, DW_AT_low_pc(0x00)
    4000                      .dwattr $C$DW$226, DW_AT_name("LLC_HAL_clearTripZoneFlags")
    4001                      .dwattr $C$DW$226, DW_AT_TI_call
    4002              
    4003 0000002d 7640!         LCR       #||LLC_HAL_clearTripZoneFlags|| ; [CPU_ALU] |492| 
         0000002e 0000 
    4004                      ; call occurs [#||LLC_HAL_clearTripZoneFlags||] ; [] |492| 
    4005 0000002f 761F!         MOVW      DP,#||LLC_startupDutySlewFlag|| ; [CPU_ARAU] 
         00000030 0000 
    4006                      .dwpsn  file "C:/Users/Joel9/Downloads/llc_capstone_F28003/llc_capstone_F28003x/device/driverlib/epwm
    4007 00000031 F5A9          MOV       AL,*(0:0x4049)        ; [CPU_ALU] |3285| 
TMS320C2000 Assembler PC v22.6.1 Thu Mar 28 17:35:23 2024

Copyright (c) 1996-2018 Texas Instruments Incorporated
llc.asm                                                              PAGE   80

         00000032 4049 
    4008                      .dwpsn  file "../llc.c",line 502,column 5,is_stmt,isa 0
    4009 00000033 56BF!         MOVB      @||LLC_startupDutySlewFlag||,#1,UNC ; [CPU_ALU] |502| 
         00000034 0100 
    4010                      .dwpsn  file "C:/Users/Joel9/Downloads/llc_capstone_F28003/llc_capstone_F28003x/device/driverlib/epwm
    4011 00000035 18A9          AND       AL,#0xfffc            ; [CPU_ALU] |3285| 
         00000036 FFFC 
    4012 00000037 761F!         MOVW      DP,#||LLC_board_Status|| ; [CPU_ARAU] 
         00000038 0000 
    4013                      .dwpsn  file "../llc.c",line 512,column 5,is_stmt,isa 0
    4014 00000039 2B00!         MOV       @||LLC_board_Status||,#0 ; [CPU_FPU] |512| 
    4015                      .dwpsn  file "C:/Users/Joel9/Downloads/llc_capstone_F28003/llc_capstone_F28003x/device/driverlib/epwm
    4016 0000003a F4A9          MOV       *(0:0x4049),AL        ; [CPU_ALU] |3285| 
         0000003b 4049 
    4017 0000003c 761F!         MOVW      DP,#||LLC_enable||    ; [CPU_ARAU] 
         0000003d 0000 
    4018                      .dwpsn  file "C:/Users/Joel9/Downloads/llc_capstone_F28003/llc_capstone_F28003x/device/driverlib/epwm
    4019 0000003e F5A9          MOV       AL,*(0:0x4049)        ; [CPU_ALU] |3291| 
         0000003f 4049 
    4020 00000040 18A9          AND       AL,#0xfff3            ; [CPU_ALU] |3291| 
         00000041 FFF3 
    4021                      .dwpsn  file "../llc.c",line 497,column 5,is_stmt,isa 0
    4022 00000042 56BF!         MOVB      @||LLC_enable||,#1,UNC ; [CPU_FPU] |497| 
         00000043 0100 
    4023                      .dwpsn  file "C:/Users/Joel9/Downloads/llc_capstone_F28003/llc_capstone_F28003x/device/driverlib/epwm
    4024 00000044 F4A9          MOV       *(0:0x4049),AL        ; [CPU_ALU] |3291| 
         00000045 4049 
    4025                      .dwpsn  file "C:/Users/Joel9/Downloads/llc_capstone_F28003/llc_capstone_F28003x/device/driverlib/epwm
    4026 00000046 F5A9          MOV       AL,*(0:0x4149)        ; [CPU_ALU] |3285| 
         00000047 4149 
    4027 00000048 18A9          AND       AL,#0xfffc            ; [CPU_ALU] |3285| 
         00000049 FFFC 
    4028 0000004a F4A9          MOV       *(0:0x4149),AL        ; [CPU_ALU] |3285| 
         0000004b 4149 
    4029                      .dwpsn  file "C:/Users/Joel9/Downloads/llc_capstone_F28003/llc_capstone_F28003x/device/driverlib/epwm
    4030 0000004c F5A9          MOV       AL,*(0:0x4149)        ; [CPU_ALU] |3291| 
         0000004d 4149 
    4031 0000004e 18A9          AND       AL,#0xfff3            ; [CPU_ALU] |3291| 
         0000004f FFF3 
    4032 00000050 F4A9          MOV       *(0:0x4149),AL        ; [CPU_ALU] |3291| 
         00000051 4149 
    4033              $C$DW$227       .dwtag  DW_TAG_TI_branch
    4034                      .dwattr $C$DW$227, DW_AT_low_pc(0x00)
    4035                      .dwattr $C$DW$227, DW_AT_TI_return
    4036              
    4037 00000052 0006          LRETR     ; [CPU_ALU] 
    4038                      ; return occurs ; [] 
    4039                      .dwattr $C$DW$224, DW_AT_TI_end_file("../llc.c")
    4040                      .dwattr $C$DW$224, DW_AT_TI_end_line(0x201)
    4041                      .dwattr $C$DW$224, DW_AT_TI_end_column(0x01)
    4042                      .dwendentry
    4043                      .dwendtag $C$DW$224
    4044              
    4045 00000000               .sect   ".text:LLC_slew"
    4046                      .clink
TMS320C2000 Assembler PC v22.6.1 Thu Mar 28 17:35:23 2024

Copyright (c) 1996-2018 Texas Instruments Incorporated
llc.asm                                                              PAGE   81

    4047                      .global ||LLC_slew||
    4048              
    4049              $C$DW$228       .dwtag  DW_TAG_subprogram
    4050                      .dwattr $C$DW$228, DW_AT_name("LLC_slew")
    4051                      .dwattr $C$DW$228, DW_AT_low_pc(||LLC_slew||)
    4052                      .dwattr $C$DW$228, DW_AT_high_pc(0x00)
    4053                      .dwattr $C$DW$228, DW_AT_linkage_name("LLC_slew")
    4054                      .dwattr $C$DW$228, DW_AT_external
    4055                      .dwattr $C$DW$228, DW_AT_type(*$C$DW$T$85)
    4056                      .dwattr $C$DW$228, DW_AT_decl_file("../llc.c")
    4057                      .dwattr $C$DW$228, DW_AT_decl_line(0x188)
    4058                      .dwattr $C$DW$228, DW_AT_decl_column(0x09)
    4059                      .dwattr $C$DW$228, DW_AT_TI_max_frame_size(-4)
    4060                      .dwpsn  file "../llc.c",line 394,column 1,is_stmt,address ||LLC_slew||,isa 0
    4061              
    4062                      .dwfde $C$DW$CIE, ||LLC_slew||
    4063              $C$DW$229       .dwtag  DW_TAG_variable
    4064                      .dwattr $C$DW$229, DW_AT_name("diff")
    4065                      .dwattr $C$DW$229, DW_AT_linkage_name("diff$2")
    4066                      .dwattr $C$DW$229, DW_AT_type(*$C$DW$T$31)
    4067                      .dwattr $C$DW$229, DW_AT_location[DW_OP_addr ||diff$2||]
    4068              
    4069              $C$DW$230       .dwtag  DW_TAG_formal_parameter
    4070                      .dwattr $C$DW$230, DW_AT_name("slewVal")
    4071                      .dwattr $C$DW$230, DW_AT_type(*$C$DW$T$76)
    4072                      .dwattr $C$DW$230, DW_AT_location[DW_OP_reg12]
    4073              
    4074              $C$DW$231       .dwtag  DW_TAG_formal_parameter
    4075                      .dwattr $C$DW$231, DW_AT_name("refVal")
    4076                      .dwattr $C$DW$231, DW_AT_type(*$C$DW$T$31)
    4077                      .dwattr $C$DW$231, DW_AT_location[DW_OP_regx 0x2b]
    4078              
    4079              $C$DW$232       .dwtag  DW_TAG_formal_parameter
    4080                      .dwattr $C$DW$232, DW_AT_name("slewRate")
    4081                      .dwattr $C$DW$232, DW_AT_type(*$C$DW$T$31)
    4082                      .dwattr $C$DW$232, DW_AT_location[DW_OP_regx 0x2f]
    4083              
    4084              
    4085              ;***************************************************************
    4086              ;* FNAME: LLC_slew                      FR SIZE:   2           *
    4087              ;*                                                             *
    4088              ;* FUNCTION ENVIRONMENT                                        *
    4089              ;*                                                             *
    4090              ;* FUNCTION PROPERTIES                                         *
    4091              ;*                            2 Parameter,  0 Auto,  0 SOE     *
    4092              ;***************************************************************
    4093              
    4094              ||LLC_slew||:
    4095              ;* R3    assigned to $O$C1
    4096              ;* R2    assigned to $O$v1
    4097              ;* AR4   assigned to slewVal
    4098              $C$DW$233       .dwtag  DW_TAG_variable
    4099                      .dwattr $C$DW$233, DW_AT_name("slewVal")
    4100                      .dwattr $C$DW$233, DW_AT_type(*$C$DW$T$104)
    4101                      .dwattr $C$DW$233, DW_AT_location[DW_OP_reg12]
TMS320C2000 Assembler PC v22.6.1 Thu Mar 28 17:35:23 2024

Copyright (c) 1996-2018 Texas Instruments Incorporated
llc.asm                                                              PAGE   82

    4102              
    4103              ;* R0    assigned to refVal
    4104              $C$DW$234       .dwtag  DW_TAG_variable
    4105                      .dwattr $C$DW$234, DW_AT_name("refVal")
    4106                      .dwattr $C$DW$234, DW_AT_type(*$C$DW$T$106)
    4107                      .dwattr $C$DW$234, DW_AT_location[DW_OP_regx 0x2b]
    4108              
    4109              ;* R1    assigned to slewRate
    4110              $C$DW$235       .dwtag  DW_TAG_variable
    4111                      .dwattr $C$DW$235, DW_AT_name("slewRate")
    4112                      .dwattr $C$DW$235, DW_AT_type(*$C$DW$T$106)
    4113                      .dwattr $C$DW$235, DW_AT_location[DW_OP_regx 0x2f]
    4114              
    4115                      .dwcfi  cfa_offset, -2
    4116                      .dwcfi  save_reg_to_mem, 26, 0
    4117 00000000 FE02          ADDB      SP,#2                 ; [CPU_ARAU] 
    4118                      .dwcfi  cfa_offset, -4
    4119                      .dwpsn  file "../llc.c",line 397,column 5,is_stmt,isa 0
    4120 00000001 E2AF          MOV32     R3H,*+XAR4[0]         ; [CPU_FPU] |397| 
         00000002 03C4 
    4121 00000003 E720          SUBF32    R2H,R0H,R3H           ; [CPU_FPU] |397| 
         00000004 00C2 
    4122 00000005 761F!         MOVW      DP,#||diff$2||        ; [CPU_ARAU] 
         00000006 0000 
    4123                      .dwpsn  file "../llc.c",line 402,column 5,is_stmt,isa 0
    4124 00000007 E694          CMPF32    R2H,R1H               ; [CPU_FPU] |402| 
         00000008 000A 
    4125                      .dwpsn  file "../llc.c",line 397,column 5,is_stmt,isa 0
    4126 00000009 E203!         MOV32     @||diff$2||,R2H       ; [CPU_FPU] |397| 
         0000000a 0200 
    4127                      .dwpsn  file "../llc.c",line 402,column 5,is_stmt,isa 0
    4128 0000000b AD14          MOVST0    ZF, NF                ; [CPU_FPU] |402| 
    4129 0000000c 6405          B         ||$C$L51||,LT         ; [CPU_ALU] |402| 
    4130                      ; branchcc occurs ; [] |402| 
    4131                      .dwpsn  file "../llc.c",line 404,column 9,is_stmt,isa 0
    4132 0000000d E710          ADDF32    R0H,R1H,R3H           ; [CPU_FPU] |404| 
         0000000e 00C8 
    4133                      .dwpsn  file "../llc.c",line 405,column 9,is_stmt,isa 0
    4134 0000000f 9A01          MOVB      AL,#1                 ; [CPU_ALU] |405| 
    4135 00000010 6F0F          B         ||$C$L53||,UNC        ; [CPU_ALU] |405| 
    4136                      ; branch occurs ; [] |405| 
    4137 00000011       ||$C$L51||:    
    4138                      .dwpsn  file "../llc.c",line 411,column 10,is_stmt,isa 0
    4139 00000011 E6AF          NEGF32    R2H,R2H               ; [CPU_FPU] |411| 
         00000012 0012 
    4140 00000013 E694          CMPF32    R2H,R1H               ; [CPU_FPU] |411| 
         00000014 000A 
    4141 00000015 AD14          MOVST0    ZF, NF                ; [CPU_FPU] |411| 
    4142 00000016 6408          B         ||$C$L52||,LT         ; [CPU_ALU] |411| 
    4143                      ; branchcc occurs ; [] |411| 
    4144                      .dwpsn  file "../llc.c",line 413,column 9,is_stmt,isa 0
    4145 00000017 E2AF          MOV32     R0H,*+XAR4[0]         ; [CPU_FPU] |413| 
         00000018 00C4 
    4146                      .dwpsn  file "../llc.c",line 414,column 9,is_stmt,isa 0
    4147 00000019 28A9          MOV       AL,#-1                ; [CPU_ALU] |414| 
TMS320C2000 Assembler PC v22.6.1 Thu Mar 28 17:35:23 2024

Copyright (c) 1996-2018 Texas Instruments Incorporated
llc.asm                                                              PAGE   83

         0000001a FFFF 
    4148                      .dwpsn  file "../llc.c",line 413,column 9,is_stmt,isa 0
    4149 0000001b E720          SUBF32    R0H,R0H,R1H           ; [CPU_FPU] |413| 
         0000001c 0040 
    4150                      .dwpsn  file "../llc.c",line 414,column 9,is_stmt,isa 0
    4151 0000001d 6F02          B         ||$C$L53||,UNC        ; [CPU_ALU] |414| 
    4152                      ; branch occurs ; [] |414| 
    4153 0000001e       ||$C$L52||:    
    4154                      .dwpsn  file "../llc.c",line 419,column 9,is_stmt,isa 0
    4155 0000001e 9A00          MOVB      AL,#0                 ; [CPU_ALU] |419| 
    4156 0000001f       ||$C$L53||:    
    4157 0000001f FE82          SUBB      SP,#2                 ; [CPU_ARAU] 
    4158                      .dwcfi  cfa_offset, -2
    4159                      .dwpsn  file "../llc.c",line 418,column 9,is_stmt,isa 0
    4160 00000020 E203          MOV32     *+XAR4[0],R0H         ; [CPU_FPU] |418| 
         00000021 00C4 
    4161              $C$DW$236       .dwtag  DW_TAG_TI_branch
    4162                      .dwattr $C$DW$236, DW_AT_low_pc(0x00)
    4163                      .dwattr $C$DW$236, DW_AT_TI_return
    4164              
    4165 00000022 0006          LRETR     ; [CPU_ALU] 
    4166                      ; return occurs ; [] 
    4167                      .dwattr $C$DW$228, DW_AT_TI_end_file("../llc.c")
    4168                      .dwattr $C$DW$228, DW_AT_TI_end_line(0x1a5)
    4169                      .dwattr $C$DW$228, DW_AT_TI_end_column(0x01)
    4170                      .dwendentry
    4171                      .dwendtag $C$DW$228
    4172              
    4173 00000000               .sect   ".text:LLC_setupSFRAGui"
    4174                      .clink
    4175                      .global ||LLC_setupSFRAGui||
    4176              
    4177              $C$DW$237       .dwtag  DW_TAG_subprogram
    4178                      .dwattr $C$DW$237, DW_AT_name("LLC_setupSFRAGui")
    4179                      .dwattr $C$DW$237, DW_AT_low_pc(||LLC_setupSFRAGui||)
    4180                      .dwattr $C$DW$237, DW_AT_high_pc(0x00)
    4181                      .dwattr $C$DW$237, DW_AT_linkage_name("LLC_setupSFRAGui")
    4182                      .dwattr $C$DW$237, DW_AT_external
    4183                      .dwattr $C$DW$237, DW_AT_decl_file("../llc.c")
    4184                      .dwattr $C$DW$237, DW_AT_decl_line(0x16b)
    4185                      .dwattr $C$DW$237, DW_AT_decl_column(0x06)
    4186                      .dwattr $C$DW$237, DW_AT_TI_max_frame_size(-2)
    4187                      .dwpsn  file "../llc.c",line 364,column 1,is_stmt,address ||LLC_setupSFRAGui||,isa 0
    4188              
    4189                      .dwfde $C$DW$CIE, ||LLC_setupSFRAGui||
    4190              
    4191              ;***************************************************************
    4192              ;* FNAME: LLC_setupSFRAGui              FR SIZE:   0           *
    4193              ;*                                                             *
    4194              ;* FUNCTION ENVIRONMENT                                        *
    4195              ;*                                                             *
    4196              ;* FUNCTION PROPERTIES                                         *
    4197              ;*                            0 Parameter,  0 Auto,  0 SOE     *
    4198              ;***************************************************************
    4199              
TMS320C2000 Assembler PC v22.6.1 Thu Mar 28 17:35:23 2024

Copyright (c) 1996-2018 Texas Instruments Incorporated
llc.asm                                                              PAGE   84

    4200 00000000       ||LLC_setupSFRAGui||:
    4201                      .dwcfi  cfa_offset, -2
    4202                      .dwcfi  save_reg_to_mem, 26, 0
    4203              $C$DW$238       .dwtag  DW_TAG_TI_branch
    4204                      .dwattr $C$DW$238, DW_AT_low_pc(0x00)
    4205                      .dwattr $C$DW$238, DW_AT_TI_return
    4206              
    4207 00000000 0006          LRETR     ; [CPU_ALU] 
    4208                      ; return occurs ; [] 
    4209                      .dwattr $C$DW$237, DW_AT_TI_end_file("../llc.c")
    4210                      .dwattr $C$DW$237, DW_AT_TI_end_line(0x17b)
    4211                      .dwattr $C$DW$237, DW_AT_TI_end_column(0x01)
    4212                      .dwendentry
    4213                      .dwendtag $C$DW$237
    4214              
    4215 00000000               .sect   ".text:LLC_setupSFRA"
    4216                      .clink
    4217                      .global ||LLC_setupSFRA||
    4218              
    4219              $C$DW$239       .dwtag  DW_TAG_subprogram
    4220                      .dwattr $C$DW$239, DW_AT_name("LLC_setupSFRA")
    4221                      .dwattr $C$DW$239, DW_AT_low_pc(||LLC_setupSFRA||)
    4222                      .dwattr $C$DW$239, DW_AT_high_pc(0x00)
    4223                      .dwattr $C$DW$239, DW_AT_linkage_name("LLC_setupSFRA")
    4224                      .dwattr $C$DW$239, DW_AT_external
    4225                      .dwattr $C$DW$239, DW_AT_decl_file("../llc.c")
    4226                      .dwattr $C$DW$239, DW_AT_decl_line(0x14f)
    4227                      .dwattr $C$DW$239, DW_AT_decl_column(0x06)
    4228                      .dwattr $C$DW$239, DW_AT_TI_max_frame_size(-2)
    4229                      .dwpsn  file "../llc.c",line 336,column 1,is_stmt,address ||LLC_setupSFRA||,isa 0
    4230              
    4231                      .dwfde $C$DW$CIE, ||LLC_setupSFRA||
    4232              
    4233              ;***************************************************************
    4234              ;* FNAME: LLC_setupSFRA                 FR SIZE:   0           *
    4235              ;*                                                             *
    4236              ;* FUNCTION ENVIRONMENT                                        *
    4237              ;*                                                             *
    4238              ;* FUNCTION PROPERTIES                                         *
    4239              ;*                            0 Parameter,  0 Auto,  0 SOE     *
    4240              ;***************************************************************
    4241              
    4242 00000000       ||LLC_setupSFRA||:
    4243                      .dwcfi  cfa_offset, -2
    4244                      .dwcfi  save_reg_to_mem, 26, 0
    4245              $C$DW$240       .dwtag  DW_TAG_TI_branch
    4246                      .dwattr $C$DW$240, DW_AT_low_pc(0x00)
    4247                      .dwattr $C$DW$240, DW_AT_TI_return
    4248              
    4249 00000000 0006          LRETR     ; [CPU_ALU] 
    4250                      ; return occurs ; [] 
    4251                      .dwattr $C$DW$239, DW_AT_TI_end_file("../llc.c")
    4252                      .dwattr $C$DW$239, DW_AT_TI_end_line(0x166)
    4253                      .dwattr $C$DW$239, DW_AT_TI_end_column(0x01)
    4254                      .dwendentry
TMS320C2000 Assembler PC v22.6.1 Thu Mar 28 17:35:23 2024

Copyright (c) 1996-2018 Texas Instruments Incorporated
llc.asm                                                              PAGE   85

    4255                      .dwendtag $C$DW$239
    4256              
    4257 00000000               .sect   ".text:LLC_serviceSFRAGuiSci"
    4258                      .clink
    4259                      .global ||LLC_serviceSFRAGuiSci||
    4260              
    4261              $C$DW$241       .dwtag  DW_TAG_subprogram
    4262                      .dwattr $C$DW$241, DW_AT_name("LLC_serviceSFRAGuiSci")
    4263                      .dwattr $C$DW$241, DW_AT_low_pc(||LLC_serviceSFRAGuiSci||)
    4264                      .dwattr $C$DW$241, DW_AT_high_pc(0x00)
    4265                      .dwattr $C$DW$241, DW_AT_linkage_name("LLC_serviceSFRAGuiSci")
    4266                      .dwattr $C$DW$241, DW_AT_external
    4267                      .dwattr $C$DW$241, DW_AT_decl_file("../llc.c")
    4268                      .dwattr $C$DW$241, DW_AT_decl_line(0x21e)
    4269                      .dwattr $C$DW$241, DW_AT_decl_column(0x06)
    4270                      .dwattr $C$DW$241, DW_AT_TI_max_frame_size(-2)
    4271                      .dwpsn  file "../llc.c",line 543,column 1,is_stmt,address ||LLC_serviceSFRAGuiSci||,isa 0
    4272              
    4273                      .dwfde $C$DW$CIE, ||LLC_serviceSFRAGuiSci||
    4274              
    4275              ;***************************************************************
    4276              ;* FNAME: LLC_serviceSFRAGuiSci         FR SIZE:   0           *
    4277              ;*                                                             *
    4278              ;* FUNCTION ENVIRONMENT                                        *
    4279              ;*                                                             *
    4280              ;* FUNCTION PROPERTIES                                         *
    4281              ;*                            0 Parameter,  0 Auto,  0 SOE     *
    4282              ;***************************************************************
    4283              
    4284 00000000       ||LLC_serviceSFRAGuiSci||:
    4285                      .dwcfi  cfa_offset, -2
    4286                      .dwcfi  save_reg_to_mem, 26, 0
    4287              $C$DW$242       .dwtag  DW_TAG_TI_branch
    4288                      .dwattr $C$DW$242, DW_AT_low_pc(0x00)
    4289                      .dwattr $C$DW$242, DW_AT_TI_return
    4290              
    4291 00000000 0006          LRETR     ; [CPU_ALU] 
    4292                      ; return occurs ; [] 
    4293                      .dwattr $C$DW$241, DW_AT_TI_end_file("../llc.c")
    4294                      .dwattr $C$DW$241, DW_AT_TI_end_line(0x223)
    4295                      .dwattr $C$DW$241, DW_AT_TI_end_column(0x01)
    4296                      .dwendentry
    4297                      .dwendtag $C$DW$241
    4298              
    4299 00000000               .sect   ".text:LLC_runSFRABackgroundTask"
    4300                      .clink
    4301                      .global ||LLC_runSFRABackgroundTask||
    4302              
    4303              $C$DW$243       .dwtag  DW_TAG_subprogram
    4304                      .dwattr $C$DW$243, DW_AT_name("LLC_runSFRABackgroundTask")
    4305                      .dwattr $C$DW$243, DW_AT_low_pc(||LLC_runSFRABackgroundTask||)
    4306                      .dwattr $C$DW$243, DW_AT_high_pc(0x00)
    4307                      .dwattr $C$DW$243, DW_AT_linkage_name("LLC_runSFRABackgroundTask")
    4308                      .dwattr $C$DW$243, DW_AT_external
    4309                      .dwattr $C$DW$243, DW_AT_decl_file("../llc.c")
TMS320C2000 Assembler PC v22.6.1 Thu Mar 28 17:35:23 2024

Copyright (c) 1996-2018 Texas Instruments Incorporated
llc.asm                                                              PAGE   86

    4310                      .dwattr $C$DW$243, DW_AT_decl_line(0x225)
    4311                      .dwattr $C$DW$243, DW_AT_decl_column(0x06)
    4312                      .dwattr $C$DW$243, DW_AT_TI_max_frame_size(-2)
    4313                      .dwpsn  file "../llc.c",line 550,column 1,is_stmt,address ||LLC_runSFRABackgroundTask||,isa 0
    4314              
    4315                      .dwfde $C$DW$CIE, ||LLC_runSFRABackgroundTask||
    4316              
    4317              ;***************************************************************
    4318              ;* FNAME: LLC_runSFRABackgroundTask     FR SIZE:   0           *
    4319              ;*                                                             *
    4320              ;* FUNCTION ENVIRONMENT                                        *
    4321              ;*                                                             *
    4322              ;* FUNCTION PROPERTIES                                         *
    4323              ;*                            0 Parameter,  0 Auto,  0 SOE     *
    4324              ;***************************************************************
    4325              
    4326 00000000       ||LLC_runSFRABackgroundTask||:
    4327                      .dwcfi  cfa_offset, -2
    4328                      .dwcfi  save_reg_to_mem, 26, 0
    4329              $C$DW$244       .dwtag  DW_TAG_TI_branch
    4330                      .dwattr $C$DW$244, DW_AT_low_pc(0x00)
    4331                      .dwattr $C$DW$244, DW_AT_TI_return
    4332              
    4333 00000000 0006          LRETR     ; [CPU_ALU] 
    4334                      ; return occurs ; [] 
    4335                      .dwattr $C$DW$243, DW_AT_TI_end_file("../llc.c")
    4336                      .dwattr $C$DW$243, DW_AT_TI_end_line(0x22a)
    4337                      .dwattr $C$DW$243, DW_AT_TI_end_column(0x01)
    4338                      .dwendentry
    4339                      .dwendtag $C$DW$243
    4340              
    4341 00000000               .sect   ".text:LLC_initController"
    4342                      .clink
    4343                      .global ||LLC_initController||
    4344              
    4345              $C$DW$245       .dwtag  DW_TAG_subprogram
    4346                      .dwattr $C$DW$245, DW_AT_name("LLC_initController")
    4347                      .dwattr $C$DW$245, DW_AT_low_pc(||LLC_initController||)
    4348                      .dwattr $C$DW$245, DW_AT_high_pc(0x00)
    4349                      .dwattr $C$DW$245, DW_AT_linkage_name("LLC_initController")
    4350                      .dwattr $C$DW$245, DW_AT_external
    4351                      .dwattr $C$DW$245, DW_AT_decl_file("../llc.c")
    4352                      .dwattr $C$DW$245, DW_AT_decl_line(0x22c)
    4353                      .dwattr $C$DW$245, DW_AT_decl_column(0x06)
    4354                      .dwattr $C$DW$245, DW_AT_TI_max_frame_size(-2)
    4355                      .dwpsn  file "../llc.c",line 557,column 1,is_stmt,address ||LLC_initController||,isa 0
    4356              
    4357                      .dwfde $C$DW$CIE, ||LLC_initController||
    4358              
    4359              ;***************************************************************
    4360              ;* FNAME: LLC_initController            FR SIZE:   0           *
    4361              ;*                                                             *
    4362              ;* FUNCTION ENVIRONMENT                                        *
    4363              ;*                                                             *
    4364              ;* FUNCTION PROPERTIES                                         *
TMS320C2000 Assembler PC v22.6.1 Thu Mar 28 17:35:23 2024

Copyright (c) 1996-2018 Texas Instruments Incorporated
llc.asm                                                              PAGE   87

    4365              ;*                            0 Parameter,  0 Auto,  0 SOE     *
    4366              ;***************************************************************
    4367              
    4368 00000000       ||LLC_initController||:
    4369                      .dwcfi  cfa_offset, -2
    4370                      .dwcfi  save_reg_to_mem, 26, 0
    4371                      .dwpsn  file "../llc.c",line 577,column 5,is_stmt,isa 0
    4372 00000000 E801          MOVIZ     R0H,#16103            ; [CPU_FPU] |577| 
         00000001 F738 
    4373                      .dwpsn  file "../llc.c",line 578,column 5,is_stmt,isa 0
    4374 00000002 E801          MOVIZ     R1H,#15957            ; [CPU_FPU] |578| 
         00000003 F2A9 
    4375 00000004 761F!         MOVW      DP,#||LLC_ctrl_PID||  ; [CPU_ARAU] 
         00000005 0000 
    4376                      .dwpsn  file "../llc.c",line 579,column 5,is_stmt,isa 0
    4377 00000006 E592          ZERO      R2H                   ; [CPU_FPU] |579| 
    4378                      .dwpsn  file "../llc.c",line 581,column 5,is_stmt,isa 0
    4379 00000007 E593          ZERO      R3H                   ; [CPU_FPU] |581| 
    4380                      .dwpsn  file "../llc.c",line 577,column 5,is_stmt,isa 0
    4381 00000008 E80E          MOVXI     R0H,#57184            ; [CPU_FPU] |577| 
         00000009 FB00 
    4382                      .dwpsn  file "../llc.c",line 578,column 5,is_stmt,isa 0
    4383 0000000a E808          MOVXI     R1H,#6817             ; [CPU_FPU] |578| 
         0000000b D509 
    4384                      .dwpsn  file "../llc.c",line 577,column 5,is_stmt,isa 0
    4385 0000000c E203!         MOV32     @$BLOCKED(||LLC_ctrl_PID||),R0H ; [CPU_FPU] |577| 
         0000000d 0000 
    4386                      .dwpsn  file "../llc.c",line 580,column 5,is_stmt,isa 0
    4387 0000000e E590          ZERO      R0H                   ; [CPU_FPU] |580| 
    4388                      .dwpsn  file "../llc.c",line 578,column 5,is_stmt,isa 0
    4389 0000000f E203!         MOV32     @$BLOCKED(||LLC_ctrl_PID||)+2,R1H ; [CPU_FPU] |578| 
         00000010 0102 
    4390                      .dwpsn  file "../llc.c",line 583,column 5,is_stmt,isa 0
    4391 00000011 E591          ZERO      R1H                   ; [CPU_FPU] |583| 
    4392                      .dwpsn  file "../llc.c",line 579,column 5,is_stmt,isa 0
    4393 00000012 E203!         MOV32     @$BLOCKED(||LLC_ctrl_PID||)+4,R2H ; [CPU_FPU] |579| 
         00000013 0204 
    4394                      .dwpsn  file "../llc.c",line 580,column 5,is_stmt,isa 0
    4395 00000014 E203!         MOV32     @$BLOCKED(||LLC_ctrl_DF22||)+6,R0H ; [CPU_FPU] |580| 
         00000015 0006 
    4396                      .dwpsn  file "../llc.c",line 581,column 5,is_stmt,isa 0
    4397 00000016 E203!         MOV32     @$BLOCKED(||LLC_ctrl_DF22||)+8,R3H ; [CPU_FPU] |581| 
         00000017 0308 
    4398                      .dwpsn  file "../llc.c",line 582,column 5,is_stmt,isa 0
    4399 00000018 E203!         MOV32     @$BLOCKED(||LLC_ctrl_DF22||),R2H ; [CPU_FPU] |582| 
         00000019 0200 
    4400                      .dwpsn  file "../llc.c",line 583,column 5,is_stmt,isa 0
    4401 0000001a E203!         MOV32     @$BLOCKED(||LLC_ctrl_DF22||)+2,R1H ; [CPU_FPU] |583| 
         0000001b 0102 
    4402                      .dwpsn  file "../llc.c",line 584,column 5,is_stmt,isa 0
    4403 0000001c E203!         MOV32     @$BLOCKED(||LLC_ctrl_DF22||)+4,R0H ; [CPU_FPU] |584| 
         0000001d 0004 
    4404              $C$DW$246       .dwtag  DW_TAG_TI_branch
    4405                      .dwattr $C$DW$246, DW_AT_low_pc(0x00)
    4406                      .dwattr $C$DW$246, DW_AT_TI_return
TMS320C2000 Assembler PC v22.6.1 Thu Mar 28 17:35:23 2024

Copyright (c) 1996-2018 Texas Instruments Incorporated
llc.asm                                                              PAGE   88

    4407              
    4408 0000001e 0006          LRETR     ; [CPU_ALU] 
    4409                      ; return occurs ; [] 
    4410                      .dwattr $C$DW$245, DW_AT_TI_end_file("../llc.c")
    4411                      .dwattr $C$DW$245, DW_AT_TI_end_line(0x25a)
    4412                      .dwattr $C$DW$245, DW_AT_TI_end_column(0x01)
    4413                      .dwendentry
    4414                      .dwendtag $C$DW$245
    4415              
    4416 00000000               .sect   ".text:LLC_HAL_setupInterrupt"
    4417                      .clink
    4418                      .global ||LLC_HAL_setupInterrupt||
    4419              
    4420              $C$DW$247       .dwtag  DW_TAG_subprogram
    4421                      .dwattr $C$DW$247, DW_AT_name("LLC_HAL_setupInterrupt")
    4422                      .dwattr $C$DW$247, DW_AT_low_pc(||LLC_HAL_setupInterrupt||)
    4423                      .dwattr $C$DW$247, DW_AT_high_pc(0x00)
    4424                      .dwattr $C$DW$247, DW_AT_linkage_name("LLC_HAL_setupInterrupt")
    4425                      .dwattr $C$DW$247, DW_AT_external
    4426                      .dwattr $C$DW$247, DW_AT_decl_file("..\llc_hal.h")
    4427                      .dwattr $C$DW$247, DW_AT_decl_line(0xb6)
    4428                      .dwattr $C$DW$247, DW_AT_decl_column(0x0d)
    4429                      .dwattr $C$DW$247, DW_AT_TI_max_frame_size(-2)
    4430                      .dwpsn  file "..\llc_hal.h",line 183,column 1,is_stmt,address ||LLC_HAL_setupInterrupt||,isa 0
    4431              
    4432                      .dwfde $C$DW$CIE, ||LLC_HAL_setupInterrupt||
    4433              
    4434              ;***************************************************************
    4435              ;* FNAME: LLC_HAL_setupInterrupt        FR SIZE:   0           *
    4436              ;*                                                             *
    4437              ;* FUNCTION ENVIRONMENT                                        *
    4438              ;*                                                             *
    4439              ;* FUNCTION PROPERTIES                                         *
    4440              ;*                            0 Parameter,  0 Auto,  0 SOE     *
    4441              ;***************************************************************
    4442              
    4443 00000000       ||LLC_HAL_setupInterrupt||:
    4444                      .dwcfi  cfa_offset, -2
    4445                      .dwcfi  save_reg_to_mem, 26, 0
    4446                      .dwpsn  file "..\llc_hal.h",line 196,column 5,is_stmt,isa 0
    4447 00000000 7622          EALLOW    ; [CPU_ALU] |196| 
    4448 00000001 2910   clrc INTM
    4449 00000002 2920   clrc DBGM
    4450                      .dwpsn  file "..\llc_hal.h",line 207,column 5,is_stmt,isa 0
    4451 00000003 761A          EDIS      ; [CPU_ALU] |207| 
    4452 00000004 FF69          SPM       #0                    ; [CPU_ALU] 
    4453              $C$DW$248       .dwtag  DW_TAG_TI_branch
    4454                      .dwattr $C$DW$248, DW_AT_low_pc(0x00)
    4455                      .dwattr $C$DW$248, DW_AT_TI_return
    4456              
    4457 00000005 0006          LRETR     ; [CPU_ALU] 
    4458                      ; return occurs ; [] 
    4459                      .dwattr $C$DW$247, DW_AT_TI_end_file("..\llc_hal.h")
    4460                      .dwattr $C$DW$247, DW_AT_TI_end_line(0xd0)
    4461                      .dwattr $C$DW$247, DW_AT_TI_end_column(0x01)
TMS320C2000 Assembler PC v22.6.1 Thu Mar 28 17:35:23 2024

Copyright (c) 1996-2018 Texas Instruments Incorporated
llc.asm                                                              PAGE   89

    4462                      .dwendentry
    4463                      .dwendtag $C$DW$247
    4464              
    4465 00000000               .sect   ".text:LLC_HAL_Handshake_Node"
    4466                      .clink
    4467                      .global ||LLC_HAL_Handshake_Node||
    4468              
    4469              $C$DW$249       .dwtag  DW_TAG_subprogram
    4470                      .dwattr $C$DW$249, DW_AT_name("LLC_HAL_Handshake_Node")
    4471                      .dwattr $C$DW$249, DW_AT_low_pc(||LLC_HAL_Handshake_Node||)
    4472                      .dwattr $C$DW$249, DW_AT_high_pc(0x00)
    4473                      .dwattr $C$DW$249, DW_AT_linkage_name("LLC_HAL_Handshake_Node")
    4474                      .dwattr $C$DW$249, DW_AT_external
    4475                      .dwattr $C$DW$249, DW_AT_type(*$C$DW$T$72)
    4476                      .dwattr $C$DW$249, DW_AT_decl_file("../llc.c")
    4477                      .dwattr $C$DW$249, DW_AT_decl_line(0x203)
    4478                      .dwattr $C$DW$249, DW_AT_decl_column(0x0a)
    4479                      .dwattr $C$DW$249, DW_AT_TI_max_frame_size(-2)
    4480                      .dwpsn  file "../llc.c",line 516,column 2,is_stmt,address ||LLC_HAL_Handshake_Node||,isa 0
    4481              
    4482                      .dwfde $C$DW$CIE, ||LLC_HAL_Handshake_Node||
    4483              
    4484              ;***************************************************************
    4485              ;* FNAME: LLC_HAL_Handshake_Node        FR SIZE:   0           *
    4486              ;*                                                             *
    4487              ;* FUNCTION ENVIRONMENT                                        *
    4488              ;*                                                             *
    4489              ;* FUNCTION PROPERTIES                                         *
    4490              ;*                            0 Parameter,  0 Auto,  0 SOE     *
    4491              ;***************************************************************
    4492              
    4493 00000000       ||LLC_HAL_Handshake_Node||:
    4494              ;* AL    assigned to $O$R1
    4495                      .dwcfi  cfa_offset, -2
    4496                      .dwcfi  save_reg_to_mem, 26, 0
    4497                      .dwpsn  file "C:/Users/Joel9/Downloads/llc_capstone_F28003/llc_capstone_F28003x/device/driverlib/fsi.
    4498 00000000 F5A9          MOV       AL,*(0:0x668a)        ; [CPU_ALU] |2135| 
         00000001 668A 
    4499 00000002 CCA9          AND       AL,AL,#0x7fff         ; [CPU_ALU] |2135| 
         00000003 7FFF 
    4500                      .dwpsn  file "../llc.c",line 518,column 6,is_stmt,isa 0
    4501 00000004 49A9          TBIT      AL,#9                 ; [CPU_ALU] |518| 
    4502 00000005 6C06          B         ||$C$L54||,NTC        ; [CPU_ALU] |518| 
    4503                      ; branchcc occurs ; [] |518| 
    4504                      .dwpsn  file "C:/Users/Joel9/Downloads/llc_capstone_F28003/llc_capstone_F28003x/device/driverlib/fsi.
    4505 00000006 F5A9          MOV       AL,*(0:0x6697)        ; [CPU_ALU] |2459| 
         00000007 6697 
    4506 00000008 FFC0          LSR       AL,1                  ; [CPU_ALU] |2459| 
    4507 00000009 900F          ANDB      AL,#0x0f              ; [CPU_ALU] |2459| 
    4508 0000000a 6103          B         ||$C$L55||,EQ         ; [CPU_ALU] |2459| 
    4509                      ; branchcc occurs ; [] |2459| 
    4510 0000000b       ||$C$L54||:    
    4511                      .dwcfi  remember_state
    4512                      .dwpsn  file "../llc.c",line 539,column 6,is_stmt,isa 0
    4513 0000000b 9A00          MOVB      AL,#0                 ; [CPU_ALU] |539| 
TMS320C2000 Assembler PC v22.6.1 Thu Mar 28 17:35:23 2024

Copyright (c) 1996-2018 Texas Instruments Incorporated
llc.asm                                                              PAGE   90

    4514              $C$DW$250       .dwtag  DW_TAG_TI_branch
    4515                      .dwattr $C$DW$250, DW_AT_low_pc(0x00)
    4516                      .dwattr $C$DW$250, DW_AT_TI_return
    4517              
    4518 0000000c 0006          LRETR     ; [CPU_ALU] 
    4519                      ; return occurs ; [] 
    4520                      .dwcfi  restore_state
    4521 0000000d       ||$C$L55||:    
    4522                      .dwpsn  file "../llc.c",line 526,column 14,is_stmt,isa 0
    4523 0000000d FF20          MOV       ACC,#26112            ; [CPU_ALU] |526| 
         0000000e 6600 
    4524 0000000f D402          MOVB      XAR4,#2               ; [CPU_ALU] |526| 
    4525              $C$DW$251       .dwtag  DW_TAG_TI_branch
    4526                      .dwattr $C$DW$251, DW_AT_low_pc(0x00)
    4527                      .dwattr $C$DW$251, DW_AT_name("FSI_executeTxFlushSequence")
    4528                      .dwattr $C$DW$251, DW_AT_TI_call
    4529              
    4530 00000010 7640!         LCR       #||FSI_executeTxFlushSequence|| ; [CPU_ALU] |526| 
         00000011 0000 
    4531                      ; call occurs [#||FSI_executeTxFlushSequence||] ; [] |526| 
    4532                      .dwpsn  file "C:/Users/Joel9/Downloads/llc_capstone_F28003/llc_capstone_F28003x/device/driverlib/fsi.
    4533 00000012 F5A9          MOV       AL,*(0:0x6607)        ; [CPU_ALU] |1052| 
         00000013 6607 
    4534 00000014 18A9          AND       AL,#0xfff0            ; [CPU_ALU] |1052| 
         00000015 FFF0 
    4535 00000016 F4A9          MOV       *(0:0x6607),AL        ; [CPU_ALU] |1052| 
         00000017 6607 
    4536                      .dwpsn  file "C:/Users/Joel9/Downloads/llc_capstone_F28003/llc_capstone_F28003x/device/driverlib/fsi.
    4537 00000018 F5A9          MOV       AL,*(0:0x6606)        ; [CPU_ALU] |984| 
         00000019 6606 
    4538 0000001a 18A9          AND       AL,#0xfff0            ; [CPU_ALU] |984| 
         0000001b FFF0 
    4539 0000001c F4A9          MOV       *(0:0x6606),AL        ; [CPU_ALU] |984| 
         0000001d 6606 
    4540                      .dwpsn  file "../llc.c",line 535,column 14,is_stmt,isa 0
    4541 0000001e 9A01          MOVB      AL,#1                 ; [CPU_ALU] |535| 
    4542                      .dwpsn  file "C:/Users/Joel9/Downloads/llc_capstone_F28003/llc_capstone_F28003x/device/driverlib/fsi.
    4543 0000001f F5A8          MOV       AH,*(0:0x6606)        ; [CPU_ALU] |1031| 
         00000020 6606 
    4544 00000021 1AA8          OR        AH,#0x8000            ; [CPU_ALU] |1031| 
         00000022 8000 
    4545 00000023 F4A8          MOV       *(0:0x6606),AH        ; [CPU_ALU] |1031| 
         00000024 6606 
    4546              $C$DW$252       .dwtag  DW_TAG_TI_branch
    4547                      .dwattr $C$DW$252, DW_AT_low_pc(0x00)
    4548                      .dwattr $C$DW$252, DW_AT_TI_return
    4549              
    4550 00000025 0006          LRETR     ; [CPU_ALU] 
    4551                      ; return occurs ; [] 
    4552                      .dwattr $C$DW$249, DW_AT_TI_end_file("../llc.c")
    4553                      .dwattr $C$DW$249, DW_AT_TI_end_line(0x21c)
    4554                      .dwattr $C$DW$249, DW_AT_TI_end_column(0x02)
    4555                      .dwendentry
    4556                      .dwendtag $C$DW$249
    4557              
TMS320C2000 Assembler PC v22.6.1 Thu Mar 28 17:35:23 2024

Copyright (c) 1996-2018 Texas Instruments Incorporated
llc.asm                                                              PAGE   91

    4558              ;**************************************************************
    4559              ;* UNDEFINED EXTERNAL REFERENCES                              *
    4560              ;**************************************************************
    4561                      .global ||SysCtl_delay||
    4562                      .global ||LLC_HAL_clearTripZoneFlags||
    4563                      .global ||FSI_executeTxFlushSequence||
    4564                      .global ||DCL_runClamp_C1||
    4565                      .global ||__c28xabi_cmpull||
    4566              ;**************************************************************
    4567              ;* SECTION GROUPS                                             *
    4568              ;**************************************************************
    4569                      .group    "LLC_HAL_setupInterrupt", 1
    4570                      .gmember  ".text:LLC_HAL_setupInterrupt"
    4571                      .endgroup
    4572                      .group    "__fast_ldiv", 1
    4573                      .gmember  ".text:__fast_ldiv"
    4574                      .endgroup
    4575                      .group    "__fast_lldiv", 1
    4576                      .gmember  ".text:__fast_lldiv"
    4577                      .endgroup
    4578                      .group    "__fpclassify", 1
    4579                      .gmember  ".text:__fpclassify"
    4580                      .endgroup
    4581                      .group    "__fpclassifyf", 1
    4582                      .gmember  ".text:__fpclassifyf"
    4583                      .endgroup
    4584                      .group    "__fpclassifyl", 1
    4585                      .gmember  ".text:__fpclassifyl"
    4586                      .endgroup
    4587                      .group    "__isfinite", 1
    4588                      .gmember  ".text:__isfinite"
    4589                      .endgroup
    4590                      .group    "__isfinitef", 1
    4591                      .gmember  ".text:__isfinitef"
    4592                      .endgroup
    4593                      .group    "__isfinitel", 1
    4594                      .gmember  ".text:__isfinitel"
    4595                      .endgroup
    4596                      .group    "__isinf", 1
    4597                      .gmember  ".text:__isinf"
    4598                      .endgroup
    4599                      .group    "__isinff", 1
    4600                      .gmember  ".text:__isinff"
    4601                      .endgroup
    4602                      .group    "__isinfl", 1
    4603                      .gmember  ".text:__isinfl"
    4604                      .endgroup
    4605                      .group    "__isnan", 1
    4606                      .gmember  ".text:__isnan"
    4607                      .endgroup
    4608                      .group    "__isnanf", 1
    4609                      .gmember  ".text:__isnanf"
    4610                      .endgroup
    4611                      .group    "__isnanl", 1
    4612                      .gmember  ".text:__isnanl"
TMS320C2000 Assembler PC v22.6.1 Thu Mar 28 17:35:23 2024

Copyright (c) 1996-2018 Texas Instruments Incorporated
llc.asm                                                              PAGE   92

    4613                      .endgroup
    4614                      .group    "__isnormal", 1
    4615                      .gmember  ".text:__isnormal"
    4616                      .endgroup
    4617                      .group    "__isnormalf", 1
    4618                      .gmember  ".text:__isnormalf"
    4619                      .endgroup
    4620                      .group    "__isnormall", 1
    4621                      .gmember  ".text:__isnormall"
    4622                      .endgroup
    4623                      .group    "__relaxed_atan2f", 1
    4624                      .gmember  ".text:__relaxed_atan2f"
    4625                      .endgroup
    4626                      .group    "__relaxed_atanf", 1
    4627                      .gmember  ".text:__relaxed_atanf"
    4628                      .endgroup
    4629                      .group    "__relaxed_cosf", 1
    4630                      .gmember  ".text:__relaxed_cosf"
    4631                      .endgroup
    4632                      .group    "__relaxed_expf", 1
    4633                      .gmember  ".text:__relaxed_expf"
    4634                      .endgroup
    4635                      .group    "__relaxed_fmaxf", 1
    4636                      .gmember  ".text:__relaxed_fmaxf"
    4637                      .endgroup
    4638                      .group    "__relaxed_fminf", 1
    4639                      .gmember  ".text:__relaxed_fminf"
    4640                      .endgroup
    4641                      .group    "__relaxed_fmodf", 1
    4642                      .gmember  ".text:__relaxed_fmodf"
    4643                      .endgroup
    4644                      .group    "__relaxed_log2f", 1
    4645                      .gmember  ".text:__relaxed_log2f"
    4646                      .endgroup
    4647                      .group    "__relaxed_logf", 1
    4648                      .gmember  ".text:__relaxed_logf"
    4649                      .endgroup
    4650                      .group    "__relaxed_powf", 1
    4651                      .gmember  ".text:__relaxed_powf"
    4652                      .endgroup
    4653                      .group    "__relaxed_sinf", 1
    4654                      .gmember  ".text:__relaxed_sinf"
    4655                      .endgroup
    4656                      .group    "__relaxed_sqrtf", 1
    4657                      .gmember  ".text:__relaxed_sqrtf"
    4658                      .endgroup
    4659                      .group    "__signbit", 1
    4660                      .gmember  ".text:__signbit"
    4661                      .endgroup
    4662                      .group    "__signbitf", 1
    4663                      .gmember  ".text:__signbitf"
    4664                      .endgroup
    4665                      .group    "__signbitl", 1
    4666                      .gmember  ".text:__signbitl"
    4667                      .endgroup
TMS320C2000 Assembler PC v22.6.1 Thu Mar 28 17:35:23 2024

Copyright (c) 1996-2018 Texas Instruments Incorporated
llc.asm                                                              PAGE   93

    4668              
    4669              
    4670              ;***************************************************************
    4671              ;* BUILD ATTRIBUTES                                            *
    4672              ;***************************************************************
    4673                      .battr "c28xabi", Tag_File, 1, Tag_float_args(1)
    4674                      .battr "c28xabi", Tag_File, 1, Tag_double_args(1)
    4675                      .dwattr $C$DW$CU, DW_AT_language(DW_LANG_C)
    4676              
    4677              ;***************************************************************
    4678              ;* DWARF CIE ENTRIES                                           *
    4679              ;***************************************************************
    4680              
    4681              $C$DW$CIE       .dwcie 26
    4682                      .dwcfi  cfa_register, 20
    4683                      .dwcfi  cfa_offset, 0
    4684                      .dwcfi  same_value, 28
    4685                      .dwcfi  same_value, 6
    4686                      .dwcfi  same_value, 7
    4687                      .dwcfi  same_value, 8
    4688                      .dwcfi  same_value, 9
    4689                      .dwcfi  same_value, 10
    4690                      .dwcfi  same_value, 11
    4691                      .dwcfi  same_value, 59
    4692                      .dwcfi  same_value, 63
    4693                      .dwcfi  same_value, 67
    4694                      .dwcfi  same_value, 71
    4695                      .dwendentry
    4696                      .dwendtag $C$DW$CU
    4697              
    4698              
    4699              ;***************************************************************
    4700              ;* TYPE INFORMATION                                            *
    4701              ;***************************************************************
    4702              
    4703              $C$DW$TU$21     .dwtag  DW_TAG_type_unit
    4704                      .dwmtype  $C$DW$T$21
    4705              
    4706              $C$DW$T$21      .dwtag  DW_TAG_enumeration_type
    4707                      .dwattr $C$DW$T$21, DW_AT_byte_size(0x01)
    4708              $C$DW$253       .dwtag  DW_TAG_enumerator
    4709                      .dwattr $C$DW$253, DW_AT_name("boardStatus_NoFault")
    4710                      .dwattr $C$DW$253, DW_AT_const_value(0x00)
    4711                      .dwattr $C$DW$253, DW_AT_decl_file("..\llc.h")
    4712                      .dwattr $C$DW$253, DW_AT_decl_line(0x7f)
    4713                      .dwattr $C$DW$253, DW_AT_decl_column(0x09)
    4714              
    4715              $C$DW$254       .dwtag  DW_TAG_enumerator
    4716                      .dwattr $C$DW$254, DW_AT_name("boardStatus_HardwareProtectTrip")
    4717                      .dwattr $C$DW$254, DW_AT_const_value(0x01)
    4718                      .dwattr $C$DW$254, DW_AT_decl_file("..\llc.h")
    4719                      .dwattr $C$DW$254, DW_AT_decl_line(0x80)
    4720                      .dwattr $C$DW$254, DW_AT_decl_column(0x09)
    4721              
    4722              $C$DW$255       .dwtag  DW_TAG_enumerator
TMS320C2000 Assembler PC v22.6.1 Thu Mar 28 17:35:23 2024

Copyright (c) 1996-2018 Texas Instruments Incorporated
llc.asm                                                              PAGE   94

    4723                      .dwattr $C$DW$255, DW_AT_name("boardStatus_OverSecCurrentTrip")
    4724                      .dwattr $C$DW$255, DW_AT_const_value(0x02)
    4725                      .dwattr $C$DW$255, DW_AT_decl_file("..\llc.h")
    4726                      .dwattr $C$DW$255, DW_AT_decl_line(0x81)
    4727                      .dwattr $C$DW$255, DW_AT_decl_column(0x09)
    4728              
    4729              $C$DW$256       .dwtag  DW_TAG_enumerator
    4730                      .dwattr $C$DW$256, DW_AT_name("boardStatus_OverVoltageTrip")
    4731                      .dwattr $C$DW$256, DW_AT_const_value(0x03)
    4732                      .dwattr $C$DW$256, DW_AT_decl_file("..\llc.h")
    4733                      .dwattr $C$DW$256, DW_AT_decl_line(0x82)
    4734                      .dwattr $C$DW$256, DW_AT_decl_column(0x09)
    4735              
    4736              $C$DW$257       .dwtag  DW_TAG_enumerator
    4737                      .dwattr $C$DW$257, DW_AT_name("boardStatus_OverResonantCurrentTrip")
    4738                      .dwattr $C$DW$257, DW_AT_const_value(0x04)
    4739                      .dwattr $C$DW$257, DW_AT_decl_file("..\llc.h")
    4740                      .dwattr $C$DW$257, DW_AT_decl_line(0x83)
    4741                      .dwattr $C$DW$257, DW_AT_decl_column(0x09)
    4742              
    4743                      .dwattr $C$DW$T$21, DW_AT_decl_file("..\llc.h")
    4744                      .dwattr $C$DW$T$21, DW_AT_decl_line(0x7e)
    4745                      .dwattr $C$DW$T$21, DW_AT_decl_column(0x05)
    4746                      .dwendtag $C$DW$T$21
    4747              
    4748                      .dwendtag $C$DW$TU$21
    4749              
    4750              
    4751              $C$DW$TU$45     .dwtag  DW_TAG_type_unit
    4752                      .dwmtype  $C$DW$T$45
    4753              
    4754              $C$DW$T$45      .dwtag  DW_TAG_enumeration_type
    4755                      .dwattr $C$DW$T$45, DW_AT_byte_size(0x01)
    4756              $C$DW$258       .dwtag  DW_TAG_enumerator
    4757                      .dwattr $C$DW$258, DW_AT_name("EPWM_AQ_OUTPUT_A")
    4758                      .dwattr $C$DW$258, DW_AT_const_value(0x00)
    4759                      .dwattr $C$DW$258, DW_AT_decl_file("C:/Users/Joel9/Downloads/llc_capstone_F28003/llc_capstone_F28003x
    4760                      .dwattr $C$DW$258, DW_AT_decl_line(0x254)
    4761                      .dwattr $C$DW$258, DW_AT_decl_column(0x05)
    4762              
    4763              $C$DW$259       .dwtag  DW_TAG_enumerator
    4764                      .dwattr $C$DW$259, DW_AT_name("EPWM_AQ_OUTPUT_B")
    4765                      .dwattr $C$DW$259, DW_AT_const_value(0x02)
    4766                      .dwattr $C$DW$259, DW_AT_decl_file("C:/Users/Joel9/Downloads/llc_capstone_F28003/llc_capstone_F28003x
    4767                      .dwattr $C$DW$259, DW_AT_decl_line(0x255)
    4768                      .dwattr $C$DW$259, DW_AT_decl_column(0x05)
    4769              
    4770                      .dwattr $C$DW$T$45, DW_AT_decl_file("C:/Users/Joel9/Downloads/llc_capstone_F28003/llc_capstone_F28003
    4771                      .dwattr $C$DW$T$45, DW_AT_decl_line(0x253)
    4772                      .dwattr $C$DW$T$45, DW_AT_decl_column(0x01)
    4773                      .dwendtag $C$DW$T$45
    4774              
    4775                      .dwendtag $C$DW$TU$45
    4776              
    4777              
TMS320C2000 Assembler PC v22.6.1 Thu Mar 28 17:35:23 2024

Copyright (c) 1996-2018 Texas Instruments Incorporated
llc.asm                                                              PAGE   95

    4778              $C$DW$TU$46     .dwtag  DW_TAG_type_unit
    4779                      .dwmtype  $C$DW$T$46
    4780              $C$DW$T$46      .dwtag  DW_TAG_typedef
    4781                      .dwattr $C$DW$T$46, DW_AT_name("EPWM_ActionQualifierOutputModule")
    4782                      .dwattr $C$DW$T$46, DW_AT_type(*$C$DW$T$45)
    4783                      .dwattr $C$DW$T$46, DW_AT_decl_file("C:/Users/Joel9/Downloads/llc_capstone_F28003/llc_capstone_F28003
    4784                      .dwattr $C$DW$T$46, DW_AT_decl_line(0x256)
    4785                      .dwattr $C$DW$T$46, DW_AT_decl_column(0x03)
    4786              
    4787                      .dwendtag $C$DW$TU$46
    4788              
    4789              
    4790              $C$DW$TU$47     .dwtag  DW_TAG_type_unit
    4791                      .dwmtype  $C$DW$T$47
    4792              
    4793              $C$DW$T$47      .dwtag  DW_TAG_enumeration_type
    4794                      .dwattr $C$DW$T$47, DW_AT_byte_size(0x01)
    4795              $C$DW$260       .dwtag  DW_TAG_enumerator
    4796                      .dwattr $C$DW$260, DW_AT_name("EPWM_AQ_SW_DISABLED")
    4797                      .dwattr $C$DW$260, DW_AT_const_value(0x00)
    4798                      .dwattr $C$DW$260, DW_AT_decl_file("C:/Users/Joel9/Downloads/llc_capstone_F28003/llc_capstone_F28003x
    4799                      .dwattr $C$DW$260, DW_AT_decl_line(0x1e1)
    4800                      .dwattr $C$DW$260, DW_AT_decl_column(0x05)
    4801              
    4802              $C$DW$261       .dwtag  DW_TAG_enumerator
    4803                      .dwattr $C$DW$261, DW_AT_name("EPWM_AQ_SW_OUTPUT_LOW")
    4804                      .dwattr $C$DW$261, DW_AT_const_value(0x01)
    4805                      .dwattr $C$DW$261, DW_AT_decl_file("C:/Users/Joel9/Downloads/llc_capstone_F28003/llc_capstone_F28003x
    4806                      .dwattr $C$DW$261, DW_AT_decl_line(0x1e2)
    4807                      .dwattr $C$DW$261, DW_AT_decl_column(0x05)
    4808              
    4809              $C$DW$262       .dwtag  DW_TAG_enumerator
    4810                      .dwattr $C$DW$262, DW_AT_name("EPWM_AQ_SW_OUTPUT_HIGH")
    4811                      .dwattr $C$DW$262, DW_AT_const_value(0x02)
    4812                      .dwattr $C$DW$262, DW_AT_decl_file("C:/Users/Joel9/Downloads/llc_capstone_F28003/llc_capstone_F28003x
    4813                      .dwattr $C$DW$262, DW_AT_decl_line(0x1e3)
    4814                      .dwattr $C$DW$262, DW_AT_decl_column(0x05)
    4815              
    4816                      .dwattr $C$DW$T$47, DW_AT_decl_file("C:/Users/Joel9/Downloads/llc_capstone_F28003/llc_capstone_F28003
    4817                      .dwattr $C$DW$T$47, DW_AT_decl_line(0x1e0)
    4818                      .dwattr $C$DW$T$47, DW_AT_decl_column(0x01)
    4819                      .dwendtag $C$DW$T$47
    4820              
    4821                      .dwendtag $C$DW$TU$47
    4822              
    4823              
    4824              $C$DW$TU$48     .dwtag  DW_TAG_type_unit
    4825                      .dwmtype  $C$DW$T$48
    4826              $C$DW$T$48      .dwtag  DW_TAG_typedef
    4827                      .dwattr $C$DW$T$48, DW_AT_name("EPWM_ActionQualifierSWOutput")
    4828                      .dwattr $C$DW$T$48, DW_AT_type(*$C$DW$T$47)
    4829                      .dwattr $C$DW$T$48, DW_AT_decl_file("C:/Users/Joel9/Downloads/llc_capstone_F28003/llc_capstone_F28003
    4830                      .dwattr $C$DW$T$48, DW_AT_decl_line(0x1e4)
    4831                      .dwattr $C$DW$T$48, DW_AT_decl_column(0x03)
    4832              
TMS320C2000 Assembler PC v22.6.1 Thu Mar 28 17:35:23 2024

Copyright (c) 1996-2018 Texas Instruments Incorporated
llc.asm                                                              PAGE   96

    4833                      .dwendtag $C$DW$TU$48
    4834              
    4835              
    4836              $C$DW$TU$49     .dwtag  DW_TAG_type_unit
    4837                      .dwmtype  $C$DW$T$49
    4838              
    4839              $C$DW$T$49      .dwtag  DW_TAG_enumeration_type
    4840                      .dwattr $C$DW$T$49, DW_AT_byte_size(0x01)
    4841              $C$DW$263       .dwtag  DW_TAG_enumerator
    4842                      .dwattr $C$DW$263, DW_AT_name("FSI_FRAME_TYPE_PING")
    4843                      .dwattr $C$DW$263, DW_AT_const_value(0x00)
    4844                      .dwattr $C$DW$263, DW_AT_decl_file("C:/Users/Joel9/Downloads/llc_capstone_F28003/llc_capstone_F28003x
    4845                      .dwattr $C$DW$263, DW_AT_decl_line(0x116)
    4846                      .dwattr $C$DW$263, DW_AT_decl_column(0x05)
    4847              
    4848              $C$DW$264       .dwtag  DW_TAG_enumerator
    4849                      .dwattr $C$DW$264, DW_AT_name("FSI_FRAME_TYPE_ERROR")
    4850                      .dwattr $C$DW$264, DW_AT_const_value(0x0f)
    4851                      .dwattr $C$DW$264, DW_AT_decl_file("C:/Users/Joel9/Downloads/llc_capstone_F28003/llc_capstone_F28003x
    4852                      .dwattr $C$DW$264, DW_AT_decl_line(0x117)
    4853                      .dwattr $C$DW$264, DW_AT_decl_column(0x05)
    4854              
    4855              $C$DW$265       .dwtag  DW_TAG_enumerator
    4856                      .dwattr $C$DW$265, DW_AT_name("FSI_FRAME_TYPE_1WORD_DATA")
    4857                      .dwattr $C$DW$265, DW_AT_const_value(0x04)
    4858                      .dwattr $C$DW$265, DW_AT_decl_file("C:/Users/Joel9/Downloads/llc_capstone_F28003/llc_capstone_F28003x
    4859                      .dwattr $C$DW$265, DW_AT_decl_line(0x118)
    4860                      .dwattr $C$DW$265, DW_AT_decl_column(0x05)
    4861              
    4862              $C$DW$266       .dwtag  DW_TAG_enumerator
    4863                      .dwattr $C$DW$266, DW_AT_name("FSI_FRAME_TYPE_2WORD_DATA")
    4864                      .dwattr $C$DW$266, DW_AT_const_value(0x05)
    4865                      .dwattr $C$DW$266, DW_AT_decl_file("C:/Users/Joel9/Downloads/llc_capstone_F28003/llc_capstone_F28003x
    4866                      .dwattr $C$DW$266, DW_AT_decl_line(0x119)
    4867                      .dwattr $C$DW$266, DW_AT_decl_column(0x05)
    4868              
    4869              $C$DW$267       .dwtag  DW_TAG_enumerator
    4870                      .dwattr $C$DW$267, DW_AT_name("FSI_FRAME_TYPE_4WORD_DATA")
    4871                      .dwattr $C$DW$267, DW_AT_const_value(0x06)
    4872                      .dwattr $C$DW$267, DW_AT_decl_file("C:/Users/Joel9/Downloads/llc_capstone_F28003/llc_capstone_F28003x
    4873                      .dwattr $C$DW$267, DW_AT_decl_line(0x11a)
    4874                      .dwattr $C$DW$267, DW_AT_decl_column(0x05)
    4875              
    4876              $C$DW$268       .dwtag  DW_TAG_enumerator
    4877                      .dwattr $C$DW$268, DW_AT_name("FSI_FRAME_TYPE_6WORD_DATA")
    4878                      .dwattr $C$DW$268, DW_AT_const_value(0x07)
    4879                      .dwattr $C$DW$268, DW_AT_decl_file("C:/Users/Joel9/Downloads/llc_capstone_F28003/llc_capstone_F28003x
    4880                      .dwattr $C$DW$268, DW_AT_decl_line(0x11b)
    4881                      .dwattr $C$DW$268, DW_AT_decl_column(0x05)
    4882              
    4883              $C$DW$269       .dwtag  DW_TAG_enumerator
    4884                      .dwattr $C$DW$269, DW_AT_name("FSI_FRAME_TYPE_NWORD_DATA")
    4885                      .dwattr $C$DW$269, DW_AT_const_value(0x03)
    4886                      .dwattr $C$DW$269, DW_AT_decl_file("C:/Users/Joel9/Downloads/llc_capstone_F28003/llc_capstone_F28003x
    4887                      .dwattr $C$DW$269, DW_AT_decl_line(0x11c)
TMS320C2000 Assembler PC v22.6.1 Thu Mar 28 17:35:23 2024

Copyright (c) 1996-2018 Texas Instruments Incorporated
llc.asm                                                              PAGE   97

    4888                      .dwattr $C$DW$269, DW_AT_decl_column(0x05)
    4889              
    4890                      .dwattr $C$DW$T$49, DW_AT_decl_file("C:/Users/Joel9/Downloads/llc_capstone_F28003/llc_capstone_F28003
    4891                      .dwattr $C$DW$T$49, DW_AT_decl_line(0x115)
    4892                      .dwattr $C$DW$T$49, DW_AT_decl_column(0x01)
    4893                      .dwendtag $C$DW$T$49
    4894              
    4895                      .dwendtag $C$DW$TU$49
    4896              
    4897              
    4898              $C$DW$TU$50     .dwtag  DW_TAG_type_unit
    4899                      .dwmtype  $C$DW$T$50
    4900              $C$DW$T$50      .dwtag  DW_TAG_typedef
    4901                      .dwattr $C$DW$T$50, DW_AT_name("FSI_FrameType")
    4902                      .dwattr $C$DW$T$50, DW_AT_type(*$C$DW$T$49)
    4903                      .dwattr $C$DW$T$50, DW_AT_decl_file("C:/Users/Joel9/Downloads/llc_capstone_F28003/llc_capstone_F28003
    4904                      .dwattr $C$DW$T$50, DW_AT_decl_line(0x11d)
    4905                      .dwattr $C$DW$T$50, DW_AT_decl_column(0x03)
    4906              
    4907                      .dwendtag $C$DW$TU$50
    4908              
    4909              
    4910              $C$DW$TU$51     .dwtag  DW_TAG_type_unit
    4911                      .dwmtype  $C$DW$T$51
    4912              
    4913              $C$DW$T$51      .dwtag  DW_TAG_enumeration_type
    4914                      .dwattr $C$DW$T$51, DW_AT_byte_size(0x01)
    4915              $C$DW$270       .dwtag  DW_TAG_enumerator
    4916                      .dwattr $C$DW$270, DW_AT_name("FSI_FRAME_TAG0")
    4917                      .dwattr $C$DW$270, DW_AT_const_value(0x00)
    4918                      .dwattr $C$DW$270, DW_AT_decl_file("C:/Users/Joel9/Downloads/llc_capstone_F28003/llc_capstone_F28003x
    4919                      .dwattr $C$DW$270, DW_AT_decl_line(0x128)
    4920                      .dwattr $C$DW$270, DW_AT_decl_column(0x05)
    4921              
    4922              $C$DW$271       .dwtag  DW_TAG_enumerator
    4923                      .dwattr $C$DW$271, DW_AT_name("FSI_FRAME_TAG1")
    4924                      .dwattr $C$DW$271, DW_AT_const_value(0x01)
    4925                      .dwattr $C$DW$271, DW_AT_decl_file("C:/Users/Joel9/Downloads/llc_capstone_F28003/llc_capstone_F28003x
    4926                      .dwattr $C$DW$271, DW_AT_decl_line(0x129)
    4927                      .dwattr $C$DW$271, DW_AT_decl_column(0x05)
    4928              
    4929              $C$DW$272       .dwtag  DW_TAG_enumerator
    4930                      .dwattr $C$DW$272, DW_AT_name("FSI_FRAME_TAG2")
    4931                      .dwattr $C$DW$272, DW_AT_const_value(0x02)
    4932                      .dwattr $C$DW$272, DW_AT_decl_file("C:/Users/Joel9/Downloads/llc_capstone_F28003/llc_capstone_F28003x
    4933                      .dwattr $C$DW$272, DW_AT_decl_line(0x12a)
    4934                      .dwattr $C$DW$272, DW_AT_decl_column(0x05)
    4935              
    4936              $C$DW$273       .dwtag  DW_TAG_enumerator
    4937                      .dwattr $C$DW$273, DW_AT_name("FSI_FRAME_TAG3")
    4938                      .dwattr $C$DW$273, DW_AT_const_value(0x03)
    4939                      .dwattr $C$DW$273, DW_AT_decl_file("C:/Users/Joel9/Downloads/llc_capstone_F28003/llc_capstone_F28003x
    4940                      .dwattr $C$DW$273, DW_AT_decl_line(0x12b)
    4941                      .dwattr $C$DW$273, DW_AT_decl_column(0x05)
    4942              
TMS320C2000 Assembler PC v22.6.1 Thu Mar 28 17:35:23 2024

Copyright (c) 1996-2018 Texas Instruments Incorporated
llc.asm                                                              PAGE   98

    4943              $C$DW$274       .dwtag  DW_TAG_enumerator
    4944                      .dwattr $C$DW$274, DW_AT_name("FSI_FRAME_TAG4")
    4945                      .dwattr $C$DW$274, DW_AT_const_value(0x04)
    4946                      .dwattr $C$DW$274, DW_AT_decl_file("C:/Users/Joel9/Downloads/llc_capstone_F28003/llc_capstone_F28003x
    4947                      .dwattr $C$DW$274, DW_AT_decl_line(0x12c)
    4948                      .dwattr $C$DW$274, DW_AT_decl_column(0x05)
    4949              
    4950              $C$DW$275       .dwtag  DW_TAG_enumerator
    4951                      .dwattr $C$DW$275, DW_AT_name("FSI_FRAME_TAG5")
    4952                      .dwattr $C$DW$275, DW_AT_const_value(0x05)
    4953                      .dwattr $C$DW$275, DW_AT_decl_file("C:/Users/Joel9/Downloads/llc_capstone_F28003/llc_capstone_F28003x
    4954                      .dwattr $C$DW$275, DW_AT_decl_line(0x12d)
    4955                      .dwattr $C$DW$275, DW_AT_decl_column(0x05)
    4956              
    4957              $C$DW$276       .dwtag  DW_TAG_enumerator
    4958                      .dwattr $C$DW$276, DW_AT_name("FSI_FRAME_TAG6")
    4959                      .dwattr $C$DW$276, DW_AT_const_value(0x06)
    4960                      .dwattr $C$DW$276, DW_AT_decl_file("C:/Users/Joel9/Downloads/llc_capstone_F28003/llc_capstone_F28003x
    4961                      .dwattr $C$DW$276, DW_AT_decl_line(0x12e)
    4962                      .dwattr $C$DW$276, DW_AT_decl_column(0x05)
    4963              
    4964              $C$DW$277       .dwtag  DW_TAG_enumerator
    4965                      .dwattr $C$DW$277, DW_AT_name("FSI_FRAME_TAG7")
    4966                      .dwattr $C$DW$277, DW_AT_const_value(0x07)
    4967                      .dwattr $C$DW$277, DW_AT_decl_file("C:/Users/Joel9/Downloads/llc_capstone_F28003/llc_capstone_F28003x
    4968                      .dwattr $C$DW$277, DW_AT_decl_line(0x12f)
    4969                      .dwattr $C$DW$277, DW_AT_decl_column(0x05)
    4970              
    4971              $C$DW$278       .dwtag  DW_TAG_enumerator
    4972                      .dwattr $C$DW$278, DW_AT_name("FSI_FRAME_TAG8")
    4973                      .dwattr $C$DW$278, DW_AT_const_value(0x08)
    4974                      .dwattr $C$DW$278, DW_AT_decl_file("C:/Users/Joel9/Downloads/llc_capstone_F28003/llc_capstone_F28003x
    4975                      .dwattr $C$DW$278, DW_AT_decl_line(0x130)
    4976                      .dwattr $C$DW$278, DW_AT_decl_column(0x05)
    4977              
    4978              $C$DW$279       .dwtag  DW_TAG_enumerator
    4979                      .dwattr $C$DW$279, DW_AT_name("FSI_FRAME_TAG9")
    4980                      .dwattr $C$DW$279, DW_AT_const_value(0x09)
    4981                      .dwattr $C$DW$279, DW_AT_decl_file("C:/Users/Joel9/Downloads/llc_capstone_F28003/llc_capstone_F28003x
    4982                      .dwattr $C$DW$279, DW_AT_decl_line(0x131)
    4983                      .dwattr $C$DW$279, DW_AT_decl_column(0x05)
    4984              
    4985              $C$DW$280       .dwtag  DW_TAG_enumerator
    4986                      .dwattr $C$DW$280, DW_AT_name("FSI_FRAME_TAG10")
    4987                      .dwattr $C$DW$280, DW_AT_const_value(0x0a)
    4988                      .dwattr $C$DW$280, DW_AT_decl_file("C:/Users/Joel9/Downloads/llc_capstone_F28003/llc_capstone_F28003x
    4989                      .dwattr $C$DW$280, DW_AT_decl_line(0x132)
    4990                      .dwattr $C$DW$280, DW_AT_decl_column(0x05)
    4991              
    4992              $C$DW$281       .dwtag  DW_TAG_enumerator
    4993                      .dwattr $C$DW$281, DW_AT_name("FSI_FRAME_TAG11")
    4994                      .dwattr $C$DW$281, DW_AT_const_value(0x0b)
    4995                      .dwattr $C$DW$281, DW_AT_decl_file("C:/Users/Joel9/Downloads/llc_capstone_F28003/llc_capstone_F28003x
    4996                      .dwattr $C$DW$281, DW_AT_decl_line(0x133)
    4997                      .dwattr $C$DW$281, DW_AT_decl_column(0x05)
TMS320C2000 Assembler PC v22.6.1 Thu Mar 28 17:35:23 2024

Copyright (c) 1996-2018 Texas Instruments Incorporated
llc.asm                                                              PAGE   99

    4998              
    4999              $C$DW$282       .dwtag  DW_TAG_enumerator
    5000                      .dwattr $C$DW$282, DW_AT_name("FSI_FRAME_TAG12")
    5001                      .dwattr $C$DW$282, DW_AT_const_value(0x0c)
    5002                      .dwattr $C$DW$282, DW_AT_decl_file("C:/Users/Joel9/Downloads/llc_capstone_F28003/llc_capstone_F28003x
    5003                      .dwattr $C$DW$282, DW_AT_decl_line(0x134)
    5004                      .dwattr $C$DW$282, DW_AT_decl_column(0x05)
    5005              
    5006              $C$DW$283       .dwtag  DW_TAG_enumerator
    5007                      .dwattr $C$DW$283, DW_AT_name("FSI_FRAME_TAG13")
    5008                      .dwattr $C$DW$283, DW_AT_const_value(0x0d)
    5009                      .dwattr $C$DW$283, DW_AT_decl_file("C:/Users/Joel9/Downloads/llc_capstone_F28003/llc_capstone_F28003x
    5010                      .dwattr $C$DW$283, DW_AT_decl_line(0x135)
    5011                      .dwattr $C$DW$283, DW_AT_decl_column(0x05)
    5012              
    5013              $C$DW$284       .dwtag  DW_TAG_enumerator
    5014                      .dwattr $C$DW$284, DW_AT_name("FSI_FRAME_TAG14")
    5015                      .dwattr $C$DW$284, DW_AT_const_value(0x0e)
    5016                      .dwattr $C$DW$284, DW_AT_decl_file("C:/Users/Joel9/Downloads/llc_capstone_F28003/llc_capstone_F28003x
    5017                      .dwattr $C$DW$284, DW_AT_decl_line(0x136)
    5018                      .dwattr $C$DW$284, DW_AT_decl_column(0x05)
    5019              
    5020              $C$DW$285       .dwtag  DW_TAG_enumerator
    5021                      .dwattr $C$DW$285, DW_AT_name("FSI_FRAME_TAG15")
    5022                      .dwattr $C$DW$285, DW_AT_const_value(0x0f)
    5023                      .dwattr $C$DW$285, DW_AT_decl_file("C:/Users/Joel9/Downloads/llc_capstone_F28003/llc_capstone_F28003x
    5024                      .dwattr $C$DW$285, DW_AT_decl_line(0x137)
    5025                      .dwattr $C$DW$285, DW_AT_decl_column(0x05)
    5026              
    5027                      .dwattr $C$DW$T$51, DW_AT_decl_file("C:/Users/Joel9/Downloads/llc_capstone_F28003/llc_capstone_F28003
    5028                      .dwattr $C$DW$T$51, DW_AT_decl_line(0x127)
    5029                      .dwattr $C$DW$T$51, DW_AT_decl_column(0x01)
    5030                      .dwendtag $C$DW$T$51
    5031              
    5032                      .dwendtag $C$DW$TU$51
    5033              
    5034              
    5035              $C$DW$TU$52     .dwtag  DW_TAG_type_unit
    5036                      .dwmtype  $C$DW$T$52
    5037              $C$DW$T$52      .dwtag  DW_TAG_typedef
    5038                      .dwattr $C$DW$T$52, DW_AT_name("FSI_FrameTag")
    5039                      .dwattr $C$DW$T$52, DW_AT_type(*$C$DW$T$51)
    5040                      .dwattr $C$DW$T$52, DW_AT_decl_file("C:/Users/Joel9/Downloads/llc_capstone_F28003/llc_capstone_F28003
    5041                      .dwattr $C$DW$T$52, DW_AT_decl_line(0x138)
    5042                      .dwattr $C$DW$T$52, DW_AT_decl_column(0x03)
    5043              
    5044                      .dwendtag $C$DW$TU$52
    5045              
    5046              
    5047              $C$DW$TU$19     .dwtag  DW_TAG_type_unit
    5048                      .dwmtype  $C$DW$T$19
    5049              
    5050              $C$DW$T$19      .dwtag  DW_TAG_structure_type
    5051                      .dwattr $C$DW$T$19, DW_AT_byte_size(0x04)
    5052              $C$DW$286       .dwtag  DW_TAG_member
TMS320C2000 Assembler PC v22.6.1 Thu Mar 28 17:35:23 2024

Copyright (c) 1996-2018 Texas Instruments Incorporated
llc.asm                                                              PAGE  100

    5053                      .dwattr $C$DW$286, DW_AT_type(*$C$DW$T$12)
    5054                      .dwattr $C$DW$286, DW_AT_name("quot")
    5055                      .dwattr $C$DW$286, DW_AT_accessibility(DW_ACCESS_public)
    5056                      .dwattr $C$DW$286, DW_AT_decl_file("C:/ti/ccs1250/ccs/tools/compiler/ti-cgt-c2000_22.6.1.LTS/include/
    5057                      .dwattr $C$DW$286, DW_AT_decl_line(0x59)
    5058                      .dwattr $C$DW$286, DW_AT_decl_column(0x17)
    5059              
    5060              $C$DW$287       .dwtag  DW_TAG_member
    5061                      .dwattr $C$DW$287, DW_AT_type(*$C$DW$T$12)
    5062                      .dwattr $C$DW$287, DW_AT_name("rem")
    5063                      .dwattr $C$DW$287, DW_AT_data_member_location[DW_OP_plus_uconst 0x2]
    5064                      .dwattr $C$DW$287, DW_AT_accessibility(DW_ACCESS_public)
    5065                      .dwattr $C$DW$287, DW_AT_decl_file("C:/ti/ccs1250/ccs/tools/compiler/ti-cgt-c2000_22.6.1.LTS/include/
    5066                      .dwattr $C$DW$287, DW_AT_decl_line(0x59)
    5067                      .dwattr $C$DW$287, DW_AT_decl_column(0x1d)
    5068              
    5069                      .dwattr $C$DW$T$19, DW_AT_decl_file("C:/ti/ccs1250/ccs/tools/compiler/ti-cgt-c2000_22.6.1.LTS/include
    5070                      .dwattr $C$DW$T$19, DW_AT_decl_line(0x59)
    5071                      .dwattr $C$DW$T$19, DW_AT_decl_column(0x10)
    5072                      .dwendtag $C$DW$T$19
    5073              
    5074                      .dwendtag $C$DW$TU$19
    5075              
    5076              
    5077              $C$DW$TU$54     .dwtag  DW_TAG_type_unit
    5078                      .dwmtype  $C$DW$T$54
    5079              $C$DW$T$54      .dwtag  DW_TAG_typedef
    5080                      .dwattr $C$DW$T$54, DW_AT_name("ldiv_t")
    5081                      .dwattr $C$DW$T$54, DW_AT_type(*$C$DW$T$19)
    5082                      .dwattr $C$DW$T$54, DW_AT_decl_file("C:/ti/ccs1250/ccs/tools/compiler/ti-cgt-c2000_22.6.1.LTS/include
    5083                      .dwattr $C$DW$T$54, DW_AT_decl_line(0x59)
    5084                      .dwattr $C$DW$T$54, DW_AT_decl_column(0x24)
    5085              
    5086                      .dwendtag $C$DW$TU$54
    5087              
    5088              
    5089              $C$DW$TU$20     .dwtag  DW_TAG_type_unit
    5090                      .dwmtype  $C$DW$T$20
    5091              
    5092              $C$DW$T$20      .dwtag  DW_TAG_structure_type
    5093                      .dwattr $C$DW$T$20, DW_AT_byte_size(0x08)
    5094              $C$DW$288       .dwtag  DW_TAG_member
    5095                      .dwattr $C$DW$288, DW_AT_type(*$C$DW$T$14)
    5096                      .dwattr $C$DW$288, DW_AT_name("quot")
    5097                      .dwattr $C$DW$288, DW_AT_accessibility(DW_ACCESS_public)
    5098                      .dwattr $C$DW$288, DW_AT_decl_file("C:/ti/ccs1250/ccs/tools/compiler/ti-cgt-c2000_22.6.1.LTS/include/
    5099                      .dwattr $C$DW$288, DW_AT_decl_line(0x63)
    5100                      .dwattr $C$DW$288, DW_AT_decl_column(0x1c)
    5101              
    5102              $C$DW$289       .dwtag  DW_TAG_member
    5103                      .dwattr $C$DW$289, DW_AT_type(*$C$DW$T$14)
    5104                      .dwattr $C$DW$289, DW_AT_name("rem")
    5105                      .dwattr $C$DW$289, DW_AT_data_member_location[DW_OP_plus_uconst 0x4]
    5106                      .dwattr $C$DW$289, DW_AT_accessibility(DW_ACCESS_public)
    5107                      .dwattr $C$DW$289, DW_AT_decl_file("C:/ti/ccs1250/ccs/tools/compiler/ti-cgt-c2000_22.6.1.LTS/include/
TMS320C2000 Assembler PC v22.6.1 Thu Mar 28 17:35:23 2024

Copyright (c) 1996-2018 Texas Instruments Incorporated
llc.asm                                                              PAGE  101

    5108                      .dwattr $C$DW$289, DW_AT_decl_line(0x63)
    5109                      .dwattr $C$DW$289, DW_AT_decl_column(0x22)
    5110              
    5111                      .dwattr $C$DW$T$20, DW_AT_decl_file("C:/ti/ccs1250/ccs/tools/compiler/ti-cgt-c2000_22.6.1.LTS/include
    5112                      .dwattr $C$DW$T$20, DW_AT_decl_line(0x63)
    5113                      .dwattr $C$DW$T$20, DW_AT_decl_column(0x10)
    5114                      .dwendtag $C$DW$T$20
    5115              
    5116                      .dwendtag $C$DW$TU$20
    5117              
    5118              
    5119              $C$DW$TU$57     .dwtag  DW_TAG_type_unit
    5120                      .dwmtype  $C$DW$T$57
    5121              $C$DW$T$57      .dwtag  DW_TAG_typedef
    5122                      .dwattr $C$DW$T$57, DW_AT_name("lldiv_t")
    5123                      .dwattr $C$DW$T$57, DW_AT_type(*$C$DW$T$20)
    5124                      .dwattr $C$DW$T$57, DW_AT_decl_file("C:/ti/ccs1250/ccs/tools/compiler/ti-cgt-c2000_22.6.1.LTS/include
    5125                      .dwattr $C$DW$T$57, DW_AT_decl_line(0x63)
    5126                      .dwattr $C$DW$T$57, DW_AT_decl_column(0x29)
    5127              
    5128                      .dwendtag $C$DW$TU$57
    5129              
    5130              
    5131              $C$DW$TU$24     .dwtag  DW_TAG_type_unit
    5132                      .dwmtype  $C$DW$T$24
    5133              
    5134              $C$DW$T$24      .dwtag  DW_TAG_union_type
    5135                      .dwattr $C$DW$T$24, DW_AT_byte_size(0x02)
    5136              $C$DW$290       .dwtag  DW_TAG_member
    5137                      .dwattr $C$DW$290, DW_AT_type(*$C$DW$T$21)
    5138                      .dwattr $C$DW$290, DW_AT_name("enum_boardStatus")
    5139                      .dwattr $C$DW$290, DW_AT_accessibility(DW_ACCESS_public)
    5140                      .dwattr $C$DW$290, DW_AT_decl_file("..\llc.h")
    5141                      .dwattr $C$DW$290, DW_AT_decl_line(0x84)
    5142                      .dwattr $C$DW$290, DW_AT_decl_column(0x06)
    5143              
    5144              $C$DW$291       .dwtag  DW_TAG_member
    5145                      .dwattr $C$DW$291, DW_AT_type(*$C$DW$T$23)
    5146                      .dwattr $C$DW$291, DW_AT_name("pad")
    5147                      .dwattr $C$DW$291, DW_AT_accessibility(DW_ACCESS_public)
    5148                      .dwattr $C$DW$291, DW_AT_decl_file("..\llc.h")
    5149                      .dwattr $C$DW$291, DW_AT_decl_line(0x85)
    5150                      .dwattr $C$DW$291, DW_AT_decl_column(0x0d)
    5151              
    5152                      .dwattr $C$DW$T$24, DW_AT_decl_file("..\llc.h")
    5153                      .dwattr $C$DW$T$24, DW_AT_decl_line(0x7c)
    5154                      .dwattr $C$DW$T$24, DW_AT_decl_column(0x0e)
    5155                      .dwendtag $C$DW$T$24
    5156              
    5157                      .dwendtag $C$DW$TU$24
    5158              
    5159              
    5160              $C$DW$TU$59     .dwtag  DW_TAG_type_unit
    5161                      .dwmtype  $C$DW$T$59
    5162              $C$DW$T$59      .dwtag  DW_TAG_typedef
TMS320C2000 Assembler PC v22.6.1 Thu Mar 28 17:35:23 2024

Copyright (c) 1996-2018 Texas Instruments Incorporated
llc.asm                                                              PAGE  102

    5163                      .dwattr $C$DW$T$59, DW_AT_name("LLC_boardStatus")
    5164                      .dwattr $C$DW$T$59, DW_AT_type(*$C$DW$T$24)
    5165                      .dwattr $C$DW$T$59, DW_AT_decl_file("..\llc.h")
    5166                      .dwattr $C$DW$T$59, DW_AT_decl_line(0x86)
    5167                      .dwattr $C$DW$T$59, DW_AT_decl_column(0x02)
    5168              
    5169                      .dwendtag $C$DW$TU$59
    5170              
    5171              
    5172              $C$DW$TU$26     .dwtag  DW_TAG_type_unit
    5173                      .dwmtype  $C$DW$T$26
    5174              
    5175              $C$DW$T$26      .dwtag  DW_TAG_structure_type
    5176                      .dwattr $C$DW$T$26, DW_AT_name("_Complex_double")
    5177                      .dwattr $C$DW$T$26, DW_AT_byte_size(0x08)
    5178              $C$DW$292       .dwtag  DW_TAG_member
    5179                      .dwattr $C$DW$292, DW_AT_type(*$C$DW$T$25)
    5180                      .dwattr $C$DW$292, DW_AT_name("_Vals")
    5181                      .dwattr $C$DW$292, DW_AT_accessibility(DW_ACCESS_public)
    5182                      .dwattr $C$DW$292, DW_AT_decl_file("C:/Users/Joel9/Downloads/llc_capstone_F28003/llc_capstone_F28003x
    5183                      .dwattr $C$DW$292, DW_AT_decl_line(0xcba)
    5184                      .dwattr $C$DW$292, DW_AT_decl_column(0x01)
    5185              
    5186                      .dwendtag $C$DW$T$26
    5187              
    5188                      .dwendtag $C$DW$TU$26
    5189              
    5190              
    5191              $C$DW$TU$60     .dwtag  DW_TAG_type_unit
    5192                      .dwmtype  $C$DW$T$60
    5193              $C$DW$T$60      .dwtag  DW_TAG_typedef
    5194                      .dwattr $C$DW$T$60, DW_AT_name("_Complex_double")
    5195                      .dwattr $C$DW$T$60, DW_AT_type(*$C$DW$T$26)
    5196                      .dwattr $C$DW$T$60, DW_AT_decl_file("C:/Users/Joel9/Downloads/llc_capstone_F28003/llc_capstone_F28003
    5197                      .dwattr $C$DW$T$60, DW_AT_decl_line(0xcba)
    5198                      .dwattr $C$DW$T$60, DW_AT_decl_column(0x01)
    5199              
    5200                      .dwendtag $C$DW$TU$60
    5201              
    5202              
    5203              $C$DW$TU$28     .dwtag  DW_TAG_type_unit
    5204                      .dwmtype  $C$DW$T$28
    5205              
    5206              $C$DW$T$28      .dwtag  DW_TAG_structure_type
    5207                      .dwattr $C$DW$T$28, DW_AT_name("_Complex_float")
    5208                      .dwattr $C$DW$T$28, DW_AT_byte_size(0x04)
    5209              $C$DW$293       .dwtag  DW_TAG_member
    5210                      .dwattr $C$DW$293, DW_AT_type(*$C$DW$T$27)
    5211                      .dwattr $C$DW$293, DW_AT_name("_Vals")
    5212                      .dwattr $C$DW$293, DW_AT_accessibility(DW_ACCESS_public)
    5213                      .dwattr $C$DW$293, DW_AT_decl_file("C:/Users/Joel9/Downloads/llc_capstone_F28003/llc_capstone_F28003x
    5214                      .dwattr $C$DW$293, DW_AT_decl_line(0xcba)
    5215                      .dwattr $C$DW$293, DW_AT_decl_column(0x01)
    5216              
    5217                      .dwendtag $C$DW$T$28
TMS320C2000 Assembler PC v22.6.1 Thu Mar 28 17:35:23 2024

Copyright (c) 1996-2018 Texas Instruments Incorporated
llc.asm                                                              PAGE  103

    5218              
    5219                      .dwendtag $C$DW$TU$28
    5220              
    5221              
    5222              $C$DW$TU$61     .dwtag  DW_TAG_type_unit
    5223                      .dwmtype  $C$DW$T$61
    5224              $C$DW$T$61      .dwtag  DW_TAG_typedef
    5225                      .dwattr $C$DW$T$61, DW_AT_name("_Complex_float")
    5226                      .dwattr $C$DW$T$61, DW_AT_type(*$C$DW$T$28)
    5227                      .dwattr $C$DW$T$61, DW_AT_decl_file("C:/Users/Joel9/Downloads/llc_capstone_F28003/llc_capstone_F28003
    5228                      .dwattr $C$DW$T$61, DW_AT_decl_line(0xcba)
    5229                      .dwattr $C$DW$T$61, DW_AT_decl_column(0x01)
    5230              
    5231                      .dwendtag $C$DW$TU$61
    5232              
    5233              
    5234              $C$DW$TU$30     .dwtag  DW_TAG_type_unit
    5235                      .dwmtype  $C$DW$T$30
    5236              
    5237              $C$DW$T$30      .dwtag  DW_TAG_structure_type
    5238                      .dwattr $C$DW$T$30, DW_AT_name("_Complex_long_double")
    5239                      .dwattr $C$DW$T$30, DW_AT_byte_size(0x08)
    5240              $C$DW$294       .dwtag  DW_TAG_member
    5241                      .dwattr $C$DW$294, DW_AT_type(*$C$DW$T$29)
    5242                      .dwattr $C$DW$294, DW_AT_name("_Vals")
    5243                      .dwattr $C$DW$294, DW_AT_accessibility(DW_ACCESS_public)
    5244                      .dwattr $C$DW$294, DW_AT_decl_file("C:/Users/Joel9/Downloads/llc_capstone_F28003/llc_capstone_F28003x
    5245                      .dwattr $C$DW$294, DW_AT_decl_line(0xcba)
    5246                      .dwattr $C$DW$294, DW_AT_decl_column(0x01)
    5247              
    5248                      .dwendtag $C$DW$T$30
    5249              
    5250                      .dwendtag $C$DW$TU$30
    5251              
    5252              
    5253              $C$DW$TU$63     .dwtag  DW_TAG_type_unit
    5254                      .dwmtype  $C$DW$T$63
    5255              $C$DW$T$63      .dwtag  DW_TAG_typedef
    5256                      .dwattr $C$DW$T$63, DW_AT_name("_Complex_long_double")
    5257                      .dwattr $C$DW$T$63, DW_AT_type(*$C$DW$T$30)
    5258                      .dwattr $C$DW$T$63, DW_AT_decl_file("C:/Users/Joel9/Downloads/llc_capstone_F28003/llc_capstone_F28003
    5259                      .dwattr $C$DW$T$63, DW_AT_decl_line(0xcba)
    5260                      .dwattr $C$DW$T$63, DW_AT_decl_column(0x01)
    5261              
    5262                      .dwendtag $C$DW$TU$63
    5263              
    5264              
    5265              $C$DW$TU$2      .dwtag  DW_TAG_type_unit
    5266                      .dwmtype  $C$DW$T$2
    5267              $C$DW$T$2       .dwtag  DW_TAG_unspecified_type
    5268                      .dwattr $C$DW$T$2, DW_AT_name("void")
    5269              
    5270                      .dwendtag $C$DW$TU$2
    5271              
    5272              
TMS320C2000 Assembler PC v22.6.1 Thu Mar 28 17:35:23 2024

Copyright (c) 1996-2018 Texas Instruments Incorporated
llc.asm                                                              PAGE  104

    5273              $C$DW$TU$4      .dwtag  DW_TAG_type_unit
    5274                      .dwmtype  $C$DW$T$4
    5275              $C$DW$T$4       .dwtag  DW_TAG_base_type
    5276                      .dwattr $C$DW$T$4, DW_AT_encoding(DW_ATE_boolean)
    5277                      .dwattr $C$DW$T$4, DW_AT_name("bool")
    5278                      .dwattr $C$DW$T$4, DW_AT_byte_size(0x01)
    5279              
    5280                      .dwendtag $C$DW$TU$4
    5281              
    5282              
    5283              $C$DW$TU$5      .dwtag  DW_TAG_type_unit
    5284                      .dwmtype  $C$DW$T$5
    5285              $C$DW$T$5       .dwtag  DW_TAG_base_type
    5286                      .dwattr $C$DW$T$5, DW_AT_encoding(DW_ATE_signed_char)
    5287                      .dwattr $C$DW$T$5, DW_AT_name("signed char")
    5288                      .dwattr $C$DW$T$5, DW_AT_byte_size(0x01)
    5289              
    5290                      .dwendtag $C$DW$TU$5
    5291              
    5292              
    5293              $C$DW$TU$6      .dwtag  DW_TAG_type_unit
    5294                      .dwmtype  $C$DW$T$6
    5295              $C$DW$T$6       .dwtag  DW_TAG_base_type
    5296                      .dwattr $C$DW$T$6, DW_AT_encoding(DW_ATE_unsigned_char)
    5297                      .dwattr $C$DW$T$6, DW_AT_name("unsigned char")
    5298                      .dwattr $C$DW$T$6, DW_AT_byte_size(0x01)
    5299              
    5300                      .dwendtag $C$DW$TU$6
    5301              
    5302              
    5303              $C$DW$TU$7      .dwtag  DW_TAG_type_unit
    5304                      .dwmtype  $C$DW$T$7
    5305              $C$DW$T$7       .dwtag  DW_TAG_base_type
    5306                      .dwattr $C$DW$T$7, DW_AT_encoding(DW_ATE_signed_char)
    5307                      .dwattr $C$DW$T$7, DW_AT_name("wchar_t")
    5308                      .dwattr $C$DW$T$7, DW_AT_byte_size(0x02)
    5309              
    5310                      .dwendtag $C$DW$TU$7
    5311              
    5312              
    5313              $C$DW$TU$8      .dwtag  DW_TAG_type_unit
    5314                      .dwmtype  $C$DW$T$8
    5315              $C$DW$T$8       .dwtag  DW_TAG_base_type
    5316                      .dwattr $C$DW$T$8, DW_AT_encoding(DW_ATE_signed)
    5317                      .dwattr $C$DW$T$8, DW_AT_name("short")
    5318                      .dwattr $C$DW$T$8, DW_AT_byte_size(0x01)
    5319              
    5320                      .dwendtag $C$DW$TU$8
    5321              
    5322              
    5323              $C$DW$TU$9      .dwtag  DW_TAG_type_unit
    5324                      .dwmtype  $C$DW$T$9
    5325              $C$DW$T$9       .dwtag  DW_TAG_base_type
    5326                      .dwattr $C$DW$T$9, DW_AT_encoding(DW_ATE_unsigned)
    5327                      .dwattr $C$DW$T$9, DW_AT_name("unsigned short")
TMS320C2000 Assembler PC v22.6.1 Thu Mar 28 17:35:23 2024

Copyright (c) 1996-2018 Texas Instruments Incorporated
llc.asm                                                              PAGE  105

    5328                      .dwattr $C$DW$T$9, DW_AT_byte_size(0x01)
    5329              
    5330                      .dwendtag $C$DW$TU$9
    5331              
    5332              
    5333              $C$DW$TU$10     .dwtag  DW_TAG_type_unit
    5334                      .dwmtype  $C$DW$T$10
    5335              $C$DW$T$10      .dwtag  DW_TAG_base_type
    5336                      .dwattr $C$DW$T$10, DW_AT_encoding(DW_ATE_signed)
    5337                      .dwattr $C$DW$T$10, DW_AT_name("int")
    5338                      .dwattr $C$DW$T$10, DW_AT_byte_size(0x01)
    5339              
    5340                      .dwendtag $C$DW$TU$10
    5341              
    5342              
    5343              $C$DW$TU$84     .dwtag  DW_TAG_type_unit
    5344                      .dwmtype  $C$DW$T$84
    5345              $C$DW$T$84      .dwtag  DW_TAG_typedef
    5346                      .dwattr $C$DW$T$84, DW_AT_name("__int16_t")
    5347                      .dwattr $C$DW$T$84, DW_AT_type(*$C$DW$T$10)
    5348                      .dwattr $C$DW$T$84, DW_AT_decl_file("C:/ti/ccs1250/ccs/tools/compiler/ti-cgt-c2000_22.6.1.LTS/include
    5349                      .dwattr $C$DW$T$84, DW_AT_decl_line(0x40)
    5350                      .dwattr $C$DW$T$84, DW_AT_decl_column(0x1d)
    5351              
    5352                      .dwendtag $C$DW$TU$84
    5353              
    5354              
    5355              $C$DW$TU$85     .dwtag  DW_TAG_type_unit
    5356                      .dwmtype  $C$DW$T$85
    5357              $C$DW$T$85      .dwtag  DW_TAG_typedef
    5358                      .dwattr $C$DW$T$85, DW_AT_name("int16_t")
    5359                      .dwattr $C$DW$T$85, DW_AT_type(*$C$DW$T$84)
    5360                      .dwattr $C$DW$T$85, DW_AT_decl_file("C:/ti/ccs1250/ccs/tools/compiler/ti-cgt-c2000_22.6.1.LTS/include
    5361                      .dwattr $C$DW$T$85, DW_AT_decl_line(0x2b)
    5362                      .dwattr $C$DW$T$85, DW_AT_decl_column(0x14)
    5363              
    5364                      .dwendtag $C$DW$TU$85
    5365              
    5366              
    5367              $C$DW$TU$11     .dwtag  DW_TAG_type_unit
    5368                      .dwmtype  $C$DW$T$11
    5369              $C$DW$T$11      .dwtag  DW_TAG_base_type
    5370                      .dwattr $C$DW$T$11, DW_AT_encoding(DW_ATE_unsigned)
    5371                      .dwattr $C$DW$T$11, DW_AT_name("unsigned int")
    5372                      .dwattr $C$DW$T$11, DW_AT_byte_size(0x01)
    5373              
    5374                      .dwendtag $C$DW$TU$11
    5375              
    5376              
    5377              $C$DW$TU$71     .dwtag  DW_TAG_type_unit
    5378                      .dwmtype  $C$DW$T$71
    5379              $C$DW$T$71      .dwtag  DW_TAG_typedef
    5380                      .dwattr $C$DW$T$71, DW_AT_name("__uint16_t")
    5381                      .dwattr $C$DW$T$71, DW_AT_type(*$C$DW$T$11)
    5382                      .dwattr $C$DW$T$71, DW_AT_decl_file("C:/ti/ccs1250/ccs/tools/compiler/ti-cgt-c2000_22.6.1.LTS/include
TMS320C2000 Assembler PC v22.6.1 Thu Mar 28 17:35:23 2024

Copyright (c) 1996-2018 Texas Instruments Incorporated
llc.asm                                                              PAGE  106

    5383                      .dwattr $C$DW$T$71, DW_AT_decl_line(0x41)
    5384                      .dwattr $C$DW$T$71, DW_AT_decl_column(0x1c)
    5385              
    5386                      .dwendtag $C$DW$TU$71
    5387              
    5388              
    5389              $C$DW$TU$72     .dwtag  DW_TAG_type_unit
    5390                      .dwmtype  $C$DW$T$72
    5391              $C$DW$T$72      .dwtag  DW_TAG_typedef
    5392                      .dwattr $C$DW$T$72, DW_AT_name("uint16_t")
    5393                      .dwattr $C$DW$T$72, DW_AT_type(*$C$DW$T$71)
    5394                      .dwattr $C$DW$T$72, DW_AT_decl_file("C:/ti/ccs1250/ccs/tools/compiler/ti-cgt-c2000_22.6.1.LTS/include
    5395                      .dwattr $C$DW$T$72, DW_AT_decl_line(0x41)
    5396                      .dwattr $C$DW$T$72, DW_AT_decl_column(0x15)
    5397              
    5398                      .dwendtag $C$DW$TU$72
    5399              
    5400              
    5401              $C$DW$TU$92     .dwtag  DW_TAG_type_unit
    5402                      .dwmtype  $C$DW$T$92
    5403              $C$DW$295       .dwtag  DW_TAG_TI_far_type
    5404                      .dwattr $C$DW$295, DW_AT_type(*$C$DW$T$72)
    5405              
    5406              $C$DW$296       .dwtag  DW_TAG_const_type
    5407                      .dwattr $C$DW$296, DW_AT_type(*$C$DW$295)
    5408              
    5409              $C$DW$T$92      .dwtag  DW_TAG_volatile_type
    5410                      .dwattr $C$DW$T$92, DW_AT_type(*$C$DW$296)
    5411              
    5412                      .dwendtag $C$DW$TU$92
    5413              
    5414              
    5415              $C$DW$TU$93     .dwtag  DW_TAG_type_unit
    5416                      .dwmtype  $C$DW$T$93
    5417              $C$DW$297       .dwtag  DW_TAG_TI_far_type
    5418                      .dwattr $C$DW$297, DW_AT_type(*$C$DW$T$72)
    5419              
    5420              $C$DW$T$93      .dwtag  DW_TAG_volatile_type
    5421                      .dwattr $C$DW$T$93, DW_AT_type(*$C$DW$297)
    5422              
    5423                      .dwendtag $C$DW$TU$93
    5424              
    5425              
    5426              $C$DW$TU$12     .dwtag  DW_TAG_type_unit
    5427                      .dwmtype  $C$DW$T$12
    5428              $C$DW$T$12      .dwtag  DW_TAG_base_type
    5429                      .dwattr $C$DW$T$12, DW_AT_encoding(DW_ATE_signed)
    5430                      .dwattr $C$DW$T$12, DW_AT_name("long")
    5431                      .dwattr $C$DW$T$12, DW_AT_byte_size(0x02)
    5432              
    5433                      .dwendtag $C$DW$TU$12
    5434              
    5435              
    5436              $C$DW$TU$94     .dwtag  DW_TAG_type_unit
    5437                      .dwmtype  $C$DW$T$94
TMS320C2000 Assembler PC v22.6.1 Thu Mar 28 17:35:23 2024

Copyright (c) 1996-2018 Texas Instruments Incorporated
llc.asm                                                              PAGE  107

    5438              $C$DW$298       .dwtag  DW_TAG_TI_far_type
    5439                      .dwattr $C$DW$298, DW_AT_type(*$C$DW$T$12)
    5440              
    5441              $C$DW$T$94      .dwtag  DW_TAG_const_type
    5442                      .dwattr $C$DW$T$94, DW_AT_type(*$C$DW$298)
    5443              
    5444                      .dwendtag $C$DW$TU$94
    5445              
    5446              
    5447              $C$DW$TU$22     .dwtag  DW_TAG_type_unit
    5448                      .dwmtype  $C$DW$T$22
    5449              $C$DW$T$22      .dwtag  DW_TAG_typedef
    5450                      .dwattr $C$DW$T$22, DW_AT_name("__int32_t")
    5451                      .dwattr $C$DW$T$22, DW_AT_type(*$C$DW$T$12)
    5452                      .dwattr $C$DW$T$22, DW_AT_decl_file("C:/ti/ccs1250/ccs/tools/compiler/ti-cgt-c2000_22.6.1.LTS/include
    5453                      .dwattr $C$DW$T$22, DW_AT_decl_line(0x42)
    5454                      .dwattr $C$DW$T$22, DW_AT_decl_column(0x1d)
    5455              
    5456                      .dwendtag $C$DW$TU$22
    5457              
    5458              
    5459              $C$DW$TU$23     .dwtag  DW_TAG_type_unit
    5460                      .dwmtype  $C$DW$T$23
    5461              $C$DW$T$23      .dwtag  DW_TAG_typedef
    5462                      .dwattr $C$DW$T$23, DW_AT_name("int32_t")
    5463                      .dwattr $C$DW$T$23, DW_AT_type(*$C$DW$T$22)
    5464                      .dwattr $C$DW$T$23, DW_AT_decl_file("C:/ti/ccs1250/ccs/tools/compiler/ti-cgt-c2000_22.6.1.LTS/include
    5465                      .dwattr $C$DW$T$23, DW_AT_decl_line(0x30)
    5466                      .dwattr $C$DW$T$23, DW_AT_decl_column(0x14)
    5467              
    5468                      .dwendtag $C$DW$TU$23
    5469              
    5470              
    5471              $C$DW$TU$13     .dwtag  DW_TAG_type_unit
    5472                      .dwmtype  $C$DW$T$13
    5473              $C$DW$T$13      .dwtag  DW_TAG_base_type
    5474                      .dwattr $C$DW$T$13, DW_AT_encoding(DW_ATE_unsigned)
    5475                      .dwattr $C$DW$T$13, DW_AT_name("unsigned long")
    5476                      .dwattr $C$DW$T$13, DW_AT_byte_size(0x02)
    5477              
    5478                      .dwendtag $C$DW$TU$13
    5479              
    5480              
    5481              $C$DW$TU$32     .dwtag  DW_TAG_type_unit
    5482                      .dwmtype  $C$DW$T$32
    5483              $C$DW$T$32      .dwtag  DW_TAG_typedef
    5484                      .dwattr $C$DW$T$32, DW_AT_name("__uint32_t")
    5485                      .dwattr $C$DW$T$32, DW_AT_type(*$C$DW$T$13)
    5486                      .dwattr $C$DW$T$32, DW_AT_decl_file("C:/ti/ccs1250/ccs/tools/compiler/ti-cgt-c2000_22.6.1.LTS/include
    5487                      .dwattr $C$DW$T$32, DW_AT_decl_line(0x43)
    5488                      .dwattr $C$DW$T$32, DW_AT_decl_column(0x1c)
    5489              
    5490                      .dwendtag $C$DW$TU$32
    5491              
    5492              
TMS320C2000 Assembler PC v22.6.1 Thu Mar 28 17:35:23 2024

Copyright (c) 1996-2018 Texas Instruments Incorporated
llc.asm                                                              PAGE  108

    5493              $C$DW$TU$33     .dwtag  DW_TAG_type_unit
    5494                      .dwmtype  $C$DW$T$33
    5495              $C$DW$T$33      .dwtag  DW_TAG_typedef
    5496                      .dwattr $C$DW$T$33, DW_AT_name("uint32_t")
    5497                      .dwattr $C$DW$T$33, DW_AT_type(*$C$DW$T$32)
    5498                      .dwattr $C$DW$T$33, DW_AT_decl_file("C:/ti/ccs1250/ccs/tools/compiler/ti-cgt-c2000_22.6.1.LTS/include
    5499                      .dwattr $C$DW$T$33, DW_AT_decl_line(0x46)
    5500                      .dwattr $C$DW$T$33, DW_AT_decl_column(0x15)
    5501              
    5502                      .dwendtag $C$DW$TU$33
    5503              
    5504              
    5505              $C$DW$TU$95     .dwtag  DW_TAG_type_unit
    5506                      .dwmtype  $C$DW$T$95
    5507              $C$DW$299       .dwtag  DW_TAG_TI_far_type
    5508                      .dwattr $C$DW$299, DW_AT_type(*$C$DW$T$33)
    5509              
    5510              $C$DW$T$95      .dwtag  DW_TAG_volatile_type
    5511                      .dwattr $C$DW$T$95, DW_AT_type(*$C$DW$299)
    5512              
    5513                      .dwendtag $C$DW$TU$95
    5514              
    5515              
    5516              $C$DW$TU$14     .dwtag  DW_TAG_type_unit
    5517                      .dwmtype  $C$DW$T$14
    5518              $C$DW$T$14      .dwtag  DW_TAG_base_type
    5519                      .dwattr $C$DW$T$14, DW_AT_encoding(DW_ATE_signed)
    5520                      .dwattr $C$DW$T$14, DW_AT_name("long long")
    5521                      .dwattr $C$DW$T$14, DW_AT_byte_size(0x04)
    5522              
    5523                      .dwendtag $C$DW$TU$14
    5524              
    5525              
    5526              $C$DW$TU$15     .dwtag  DW_TAG_type_unit
    5527                      .dwmtype  $C$DW$T$15
    5528              $C$DW$T$15      .dwtag  DW_TAG_base_type
    5529                      .dwattr $C$DW$T$15, DW_AT_encoding(DW_ATE_unsigned)
    5530                      .dwattr $C$DW$T$15, DW_AT_name("unsigned long long")
    5531                      .dwattr $C$DW$T$15, DW_AT_byte_size(0x04)
    5532              
    5533                      .dwendtag $C$DW$TU$15
    5534              
    5535              
    5536              $C$DW$TU$16     .dwtag  DW_TAG_type_unit
    5537                      .dwmtype  $C$DW$T$16
    5538              $C$DW$T$16      .dwtag  DW_TAG_base_type
    5539                      .dwattr $C$DW$T$16, DW_AT_encoding(DW_ATE_float)
    5540                      .dwattr $C$DW$T$16, DW_AT_name("float")
    5541                      .dwattr $C$DW$T$16, DW_AT_byte_size(0x02)
    5542              
    5543                      .dwendtag $C$DW$TU$16
    5544              
    5545              
    5546              $C$DW$TU$27     .dwtag  DW_TAG_type_unit
    5547                      .dwmtype  $C$DW$T$27
TMS320C2000 Assembler PC v22.6.1 Thu Mar 28 17:35:23 2024

Copyright (c) 1996-2018 Texas Instruments Incorporated
llc.asm                                                              PAGE  109

    5548              
    5549              $C$DW$T$27      .dwtag  DW_TAG_array_type
    5550                      .dwattr $C$DW$T$27, DW_AT_type(*$C$DW$T$16)
    5551                      .dwattr $C$DW$T$27, DW_AT_byte_size(0x04)
    5552              $C$DW$300       .dwtag  DW_TAG_subrange_type
    5553                      .dwattr $C$DW$300, DW_AT_upper_bound(0x01)
    5554              
    5555                      .dwendtag $C$DW$T$27
    5556              
    5557                      .dwendtag $C$DW$TU$27
    5558              
    5559              
    5560              $C$DW$TU$102    .dwtag  DW_TAG_type_unit
    5561                      .dwmtype  $C$DW$T$102
    5562              $C$DW$301       .dwtag  DW_TAG_TI_far_type
    5563                      .dwattr $C$DW$301, DW_AT_type(*$C$DW$T$16)
    5564              
    5565              $C$DW$T$102     .dwtag  DW_TAG_const_type
    5566                      .dwattr $C$DW$T$102, DW_AT_type(*$C$DW$301)
    5567              
    5568                      .dwendtag $C$DW$TU$102
    5569              
    5570              
    5571              $C$DW$TU$31     .dwtag  DW_TAG_type_unit
    5572                      .dwmtype  $C$DW$T$31
    5573              $C$DW$T$31      .dwtag  DW_TAG_typedef
    5574                      .dwattr $C$DW$T$31, DW_AT_name("float32_t")
    5575                      .dwattr $C$DW$T$31, DW_AT_type(*$C$DW$T$16)
    5576                      .dwattr $C$DW$T$31, DW_AT_decl_file("..\llc_settings.h")
    5577                      .dwattr $C$DW$T$31, DW_AT_decl_line(0x1e)
    5578                      .dwattr $C$DW$T$31, DW_AT_decl_column(0x1f)
    5579              
    5580                      .dwendtag $C$DW$TU$31
    5581              
    5582              
    5583              $C$DW$TU$76     .dwtag  DW_TAG_type_unit
    5584                      .dwmtype  $C$DW$T$76
    5585              $C$DW$T$76      .dwtag  DW_TAG_pointer_type
    5586                      .dwattr $C$DW$T$76, DW_AT_type(*$C$DW$T$31)
    5587                      .dwattr $C$DW$T$76, DW_AT_address_class(0x20)
    5588              
    5589                      .dwendtag $C$DW$TU$76
    5590              
    5591              
    5592              $C$DW$TU$104    .dwtag  DW_TAG_type_unit
    5593                      .dwmtype  $C$DW$T$104
    5594              $C$DW$302       .dwtag  DW_TAG_TI_far_type
    5595                      .dwattr $C$DW$302, DW_AT_type(*$C$DW$T$76)
    5596              
    5597              $C$DW$T$104     .dwtag  DW_TAG_const_type
    5598                      .dwattr $C$DW$T$104, DW_AT_type(*$C$DW$302)
    5599              
    5600                      .dwendtag $C$DW$TU$104
    5601              
    5602              
TMS320C2000 Assembler PC v22.6.1 Thu Mar 28 17:35:23 2024

Copyright (c) 1996-2018 Texas Instruments Incorporated
llc.asm                                                              PAGE  110

    5603              $C$DW$TU$105    .dwtag  DW_TAG_type_unit
    5604                      .dwmtype  $C$DW$T$105
    5605              $C$DW$303       .dwtag  DW_TAG_TI_far_type
    5606                      .dwattr $C$DW$303, DW_AT_type(*$C$DW$T$31)
    5607              
    5608              $C$DW$T$105     .dwtag  DW_TAG_volatile_type
    5609                      .dwattr $C$DW$T$105, DW_AT_type(*$C$DW$303)
    5610              
    5611                      .dwendtag $C$DW$TU$105
    5612              
    5613              
    5614              $C$DW$TU$106    .dwtag  DW_TAG_type_unit
    5615                      .dwmtype  $C$DW$T$106
    5616              $C$DW$304       .dwtag  DW_TAG_TI_far_type
    5617                      .dwattr $C$DW$304, DW_AT_type(*$C$DW$T$31)
    5618              
    5619              $C$DW$T$106     .dwtag  DW_TAG_const_type
    5620                      .dwattr $C$DW$T$106, DW_AT_type(*$C$DW$304)
    5621              
    5622                      .dwendtag $C$DW$TU$106
    5623              
    5624              
    5625              $C$DW$TU$17     .dwtag  DW_TAG_type_unit
    5626                      .dwmtype  $C$DW$T$17
    5627              $C$DW$T$17      .dwtag  DW_TAG_base_type
    5628                      .dwattr $C$DW$T$17, DW_AT_encoding(DW_ATE_float)
    5629                      .dwattr $C$DW$T$17, DW_AT_name("double")
    5630                      .dwattr $C$DW$T$17, DW_AT_byte_size(0x04)
    5631              
    5632                      .dwendtag $C$DW$TU$17
    5633              
    5634              
    5635              $C$DW$TU$25     .dwtag  DW_TAG_type_unit
    5636                      .dwmtype  $C$DW$T$25
    5637              
    5638              $C$DW$T$25      .dwtag  DW_TAG_array_type
    5639                      .dwattr $C$DW$T$25, DW_AT_type(*$C$DW$T$17)
    5640                      .dwattr $C$DW$T$25, DW_AT_byte_size(0x08)
    5641              $C$DW$305       .dwtag  DW_TAG_subrange_type
    5642                      .dwattr $C$DW$305, DW_AT_upper_bound(0x01)
    5643              
    5644                      .dwendtag $C$DW$T$25
    5645              
    5646                      .dwendtag $C$DW$TU$25
    5647              
    5648              
    5649              $C$DW$TU$107    .dwtag  DW_TAG_type_unit
    5650                      .dwmtype  $C$DW$T$107
    5651              $C$DW$T$107     .dwtag  DW_TAG_pointer_type
    5652                      .dwattr $C$DW$T$107, DW_AT_type(*$C$DW$T$17)
    5653                      .dwattr $C$DW$T$107, DW_AT_address_class(0x20)
    5654              
    5655                      .dwendtag $C$DW$TU$107
    5656              
    5657              
TMS320C2000 Assembler PC v22.6.1 Thu Mar 28 17:35:23 2024

Copyright (c) 1996-2018 Texas Instruments Incorporated
llc.asm                                                              PAGE  111

    5658              $C$DW$TU$108    .dwtag  DW_TAG_type_unit
    5659                      .dwmtype  $C$DW$T$108
    5660              $C$DW$306       .dwtag  DW_TAG_TI_far_type
    5661                      .dwattr $C$DW$306, DW_AT_type(*$C$DW$T$107)
    5662              
    5663              $C$DW$T$108     .dwtag  DW_TAG_const_type
    5664                      .dwattr $C$DW$T$108, DW_AT_type(*$C$DW$306)
    5665              
    5666                      .dwendtag $C$DW$TU$108
    5667              
    5668              
    5669              $C$DW$TU$18     .dwtag  DW_TAG_type_unit
    5670                      .dwmtype  $C$DW$T$18
    5671              $C$DW$T$18      .dwtag  DW_TAG_base_type
    5672                      .dwattr $C$DW$T$18, DW_AT_encoding(DW_ATE_float)
    5673                      .dwattr $C$DW$T$18, DW_AT_name("long double")
    5674                      .dwattr $C$DW$T$18, DW_AT_byte_size(0x04)
    5675              
    5676                      .dwendtag $C$DW$TU$18
    5677              
    5678              
    5679              $C$DW$TU$29     .dwtag  DW_TAG_type_unit
    5680                      .dwmtype  $C$DW$T$29
    5681              
    5682              $C$DW$T$29      .dwtag  DW_TAG_array_type
    5683                      .dwattr $C$DW$T$29, DW_AT_type(*$C$DW$T$18)
    5684                      .dwattr $C$DW$T$29, DW_AT_byte_size(0x08)
    5685              $C$DW$307       .dwtag  DW_TAG_subrange_type
    5686                      .dwattr $C$DW$307, DW_AT_upper_bound(0x01)
    5687              
    5688                      .dwendtag $C$DW$T$29
    5689              
    5690                      .dwendtag $C$DW$TU$29
    5691              
    5692              
    5693              $C$DW$TU$110    .dwtag  DW_TAG_type_unit
    5694                      .dwmtype  $C$DW$T$110
    5695              $C$DW$T$110     .dwtag  DW_TAG_pointer_type
    5696                      .dwattr $C$DW$T$110, DW_AT_type(*$C$DW$T$18)
    5697                      .dwattr $C$DW$T$110, DW_AT_address_class(0x20)
    5698              
    5699                      .dwendtag $C$DW$TU$110
    5700              
    5701              
    5702              $C$DW$TU$111    .dwtag  DW_TAG_type_unit
    5703                      .dwmtype  $C$DW$T$111
    5704              $C$DW$308       .dwtag  DW_TAG_TI_far_type
    5705                      .dwattr $C$DW$308, DW_AT_type(*$C$DW$T$110)
    5706              
    5707              $C$DW$T$111     .dwtag  DW_TAG_const_type
    5708                      .dwattr $C$DW$T$111, DW_AT_type(*$C$DW$308)
    5709              
    5710                      .dwendtag $C$DW$TU$111
    5711              
    5712              
TMS320C2000 Assembler PC v22.6.1 Thu Mar 28 17:35:23 2024

Copyright (c) 1996-2018 Texas Instruments Incorporated
llc.asm                                                              PAGE  112

    5713              $C$DW$TU$34     .dwtag  DW_TAG_type_unit
    5714                      .dwmtype  $C$DW$T$34
    5715              
    5716              $C$DW$T$34      .dwtag  DW_TAG_structure_type
    5717                      .dwattr $C$DW$T$34, DW_AT_name("dcl_css")
    5718                      .dwattr $C$DW$T$34, DW_AT_byte_size(0x0a)
    5719              $C$DW$309       .dwtag  DW_TAG_member
    5720                      .dwattr $C$DW$309, DW_AT_type(*$C$DW$T$31)
    5721                      .dwattr $C$DW$309, DW_AT_name("tpt")
    5722                      .dwattr $C$DW$309, DW_AT_accessibility(DW_ACCESS_public)
    5723                      .dwattr $C$DW$309, DW_AT_decl_file("C:\Users\Joel9\Downloads\llc_capstone_F28003\llc_capstone_F28003x
    5724                      .dwattr $C$DW$309, DW_AT_decl_line(0x95)
    5725                      .dwattr $C$DW$309, DW_AT_decl_column(0x0f)
    5726              
    5727              $C$DW$310       .dwtag  DW_TAG_member
    5728                      .dwattr $C$DW$310, DW_AT_type(*$C$DW$T$31)
    5729                      .dwattr $C$DW$310, DW_AT_name("T")
    5730                      .dwattr $C$DW$310, DW_AT_data_member_location[DW_OP_plus_uconst 0x2]
    5731                      .dwattr $C$DW$310, DW_AT_accessibility(DW_ACCESS_public)
    5732                      .dwattr $C$DW$310, DW_AT_decl_file("C:\Users\Joel9\Downloads\llc_capstone_F28003\llc_capstone_F28003x
    5733                      .dwattr $C$DW$310, DW_AT_decl_line(0x96)
    5734                      .dwattr $C$DW$310, DW_AT_decl_column(0x0f)
    5735              
    5736              $C$DW$311       .dwtag  DW_TAG_member
    5737                      .dwattr $C$DW$311, DW_AT_type(*$C$DW$T$33)
    5738                      .dwattr $C$DW$311, DW_AT_name("sts")
    5739                      .dwattr $C$DW$311, DW_AT_data_member_location[DW_OP_plus_uconst 0x4]
    5740                      .dwattr $C$DW$311, DW_AT_accessibility(DW_ACCESS_public)
    5741                      .dwattr $C$DW$311, DW_AT_decl_file("C:\Users\Joel9\Downloads\llc_capstone_F28003\llc_capstone_F28003x
    5742                      .dwattr $C$DW$311, DW_AT_decl_line(0x97)
    5743                      .dwattr $C$DW$311, DW_AT_decl_column(0x0e)
    5744              
    5745              $C$DW$312       .dwtag  DW_TAG_member
    5746                      .dwattr $C$DW$312, DW_AT_type(*$C$DW$T$33)
    5747                      .dwattr $C$DW$312, DW_AT_name("err")
    5748                      .dwattr $C$DW$312, DW_AT_data_member_location[DW_OP_plus_uconst 0x6]
    5749                      .dwattr $C$DW$312, DW_AT_accessibility(DW_ACCESS_public)
    5750                      .dwattr $C$DW$312, DW_AT_decl_file("C:\Users\Joel9\Downloads\llc_capstone_F28003\llc_capstone_F28003x
    5751                      .dwattr $C$DW$312, DW_AT_decl_line(0x98)
    5752                      .dwattr $C$DW$312, DW_AT_decl_column(0x0e)
    5753              
    5754              $C$DW$313       .dwtag  DW_TAG_member
    5755                      .dwattr $C$DW$313, DW_AT_type(*$C$DW$T$33)
    5756                      .dwattr $C$DW$313, DW_AT_name("loc")
    5757                      .dwattr $C$DW$313, DW_AT_data_member_location[DW_OP_plus_uconst 0x8]
    5758                      .dwattr $C$DW$313, DW_AT_accessibility(DW_ACCESS_public)
    5759                      .dwattr $C$DW$313, DW_AT_decl_file("C:\Users\Joel9\Downloads\llc_capstone_F28003\llc_capstone_F28003x
    5760                      .dwattr $C$DW$313, DW_AT_decl_line(0x99)
    5761                      .dwattr $C$DW$313, DW_AT_decl_column(0x0e)
    5762              
    5763                      .dwattr $C$DW$T$34, DW_AT_decl_file("C:\Users\Joel9\Downloads\llc_capstone_F28003\llc_capstone_F28003
    5764                      .dwattr $C$DW$T$34, DW_AT_decl_line(0x94)
    5765                      .dwattr $C$DW$T$34, DW_AT_decl_column(0x10)
    5766                      .dwendtag $C$DW$T$34
    5767              
TMS320C2000 Assembler PC v22.6.1 Thu Mar 28 17:35:23 2024

Copyright (c) 1996-2018 Texas Instruments Incorporated
llc.asm                                                              PAGE  113

    5768                      .dwendtag $C$DW$TU$34
    5769              
    5770              
    5771              $C$DW$TU$37     .dwtag  DW_TAG_type_unit
    5772                      .dwmtype  $C$DW$T$37
    5773              $C$DW$T$37      .dwtag  DW_TAG_typedef
    5774                      .dwattr $C$DW$T$37, DW_AT_name("DCL_CSS")
    5775                      .dwattr $C$DW$T$37, DW_AT_type(*$C$DW$T$34)
    5776                      .dwattr $C$DW$T$37, DW_AT_decl_file("C:\Users\Joel9\Downloads\llc_capstone_F28003\llc_capstone_F28003
    5777                      .dwattr $C$DW$T$37, DW_AT_decl_line(0x9a)
    5778                      .dwattr $C$DW$T$37, DW_AT_decl_column(0x03)
    5779              
    5780                      .dwendtag $C$DW$TU$37
    5781              
    5782              
    5783              $C$DW$TU$38     .dwtag  DW_TAG_type_unit
    5784                      .dwmtype  $C$DW$T$38
    5785              $C$DW$T$38      .dwtag  DW_TAG_pointer_type
    5786                      .dwattr $C$DW$T$38, DW_AT_type(*$C$DW$T$37)
    5787                      .dwattr $C$DW$T$38, DW_AT_address_class(0x20)
    5788              
    5789                      .dwendtag $C$DW$TU$38
    5790              
    5791              
    5792              $C$DW$TU$39     .dwtag  DW_TAG_type_unit
    5793                      .dwmtype  $C$DW$T$39
    5794              
    5795              $C$DW$T$39      .dwtag  DW_TAG_structure_type
    5796                      .dwattr $C$DW$T$39, DW_AT_name("dcl_df22")
    5797                      .dwattr $C$DW$T$39, DW_AT_byte_size(0x12)
    5798              $C$DW$314       .dwtag  DW_TAG_member
    5799                      .dwattr $C$DW$314, DW_AT_type(*$C$DW$T$31)
    5800                      .dwattr $C$DW$314, DW_AT_name("b0")
    5801                      .dwattr $C$DW$314, DW_AT_accessibility(DW_ACCESS_public)
    5802                      .dwattr $C$DW$314, DW_AT_decl_file("C:/Users/Joel9/Downloads/llc_capstone_F28003/llc_capstone_F28003x
    5803                      .dwattr $C$DW$314, DW_AT_decl_line(0x4c5)
    5804                      .dwattr $C$DW$314, DW_AT_decl_column(0x0f)
    5805              
    5806              $C$DW$315       .dwtag  DW_TAG_member
    5807                      .dwattr $C$DW$315, DW_AT_type(*$C$DW$T$31)
    5808                      .dwattr $C$DW$315, DW_AT_name("b1")
    5809                      .dwattr $C$DW$315, DW_AT_data_member_location[DW_OP_plus_uconst 0x2]
    5810                      .dwattr $C$DW$315, DW_AT_accessibility(DW_ACCESS_public)
    5811                      .dwattr $C$DW$315, DW_AT_decl_file("C:/Users/Joel9/Downloads/llc_capstone_F28003/llc_capstone_F28003x
    5812                      .dwattr $C$DW$315, DW_AT_decl_line(0x4c6)
    5813                      .dwattr $C$DW$315, DW_AT_decl_column(0x0f)
    5814              
    5815              $C$DW$316       .dwtag  DW_TAG_member
    5816                      .dwattr $C$DW$316, DW_AT_type(*$C$DW$T$31)
    5817                      .dwattr $C$DW$316, DW_AT_name("b2")
    5818                      .dwattr $C$DW$316, DW_AT_data_member_location[DW_OP_plus_uconst 0x4]
    5819                      .dwattr $C$DW$316, DW_AT_accessibility(DW_ACCESS_public)
    5820                      .dwattr $C$DW$316, DW_AT_decl_file("C:/Users/Joel9/Downloads/llc_capstone_F28003/llc_capstone_F28003x
    5821                      .dwattr $C$DW$316, DW_AT_decl_line(0x4c7)
    5822                      .dwattr $C$DW$316, DW_AT_decl_column(0x0f)
TMS320C2000 Assembler PC v22.6.1 Thu Mar 28 17:35:23 2024

Copyright (c) 1996-2018 Texas Instruments Incorporated
llc.asm                                                              PAGE  114

    5823              
    5824              $C$DW$317       .dwtag  DW_TAG_member
    5825                      .dwattr $C$DW$317, DW_AT_type(*$C$DW$T$31)
    5826                      .dwattr $C$DW$317, DW_AT_name("a1")
    5827                      .dwattr $C$DW$317, DW_AT_data_member_location[DW_OP_plus_uconst 0x6]
    5828                      .dwattr $C$DW$317, DW_AT_accessibility(DW_ACCESS_public)
    5829                      .dwattr $C$DW$317, DW_AT_decl_file("C:/Users/Joel9/Downloads/llc_capstone_F28003/llc_capstone_F28003x
    5830                      .dwattr $C$DW$317, DW_AT_decl_line(0x4c8)
    5831                      .dwattr $C$DW$317, DW_AT_decl_column(0x0f)
    5832              
    5833              $C$DW$318       .dwtag  DW_TAG_member
    5834                      .dwattr $C$DW$318, DW_AT_type(*$C$DW$T$31)
    5835                      .dwattr $C$DW$318, DW_AT_name("a2")
    5836                      .dwattr $C$DW$318, DW_AT_data_member_location[DW_OP_plus_uconst 0x8]
    5837                      .dwattr $C$DW$318, DW_AT_accessibility(DW_ACCESS_public)
    5838                      .dwattr $C$DW$318, DW_AT_decl_file("C:/Users/Joel9/Downloads/llc_capstone_F28003/llc_capstone_F28003x
    5839                      .dwattr $C$DW$318, DW_AT_decl_line(0x4c9)
    5840                      .dwattr $C$DW$318, DW_AT_decl_column(0x0f)
    5841              
    5842              $C$DW$319       .dwtag  DW_TAG_member
    5843                      .dwattr $C$DW$319, DW_AT_type(*$C$DW$T$31)
    5844                      .dwattr $C$DW$319, DW_AT_name("x1")
    5845                      .dwattr $C$DW$319, DW_AT_data_member_location[DW_OP_plus_uconst 0xa]
    5846                      .dwattr $C$DW$319, DW_AT_accessibility(DW_ACCESS_public)
    5847                      .dwattr $C$DW$319, DW_AT_decl_file("C:/Users/Joel9/Downloads/llc_capstone_F28003/llc_capstone_F28003x
    5848                      .dwattr $C$DW$319, DW_AT_decl_line(0x4ca)
    5849                      .dwattr $C$DW$319, DW_AT_decl_column(0x0f)
    5850              
    5851              $C$DW$320       .dwtag  DW_TAG_member
    5852                      .dwattr $C$DW$320, DW_AT_type(*$C$DW$T$31)
    5853                      .dwattr $C$DW$320, DW_AT_name("x2")
    5854                      .dwattr $C$DW$320, DW_AT_data_member_location[DW_OP_plus_uconst 0xc]
    5855                      .dwattr $C$DW$320, DW_AT_accessibility(DW_ACCESS_public)
    5856                      .dwattr $C$DW$320, DW_AT_decl_file("C:/Users/Joel9/Downloads/llc_capstone_F28003/llc_capstone_F28003x
    5857                      .dwattr $C$DW$320, DW_AT_decl_line(0x4cb)
    5858                      .dwattr $C$DW$320, DW_AT_decl_column(0x0f)
    5859              
    5860              $C$DW$321       .dwtag  DW_TAG_member
    5861                      .dwattr $C$DW$321, DW_AT_type(*$C$DW$T$36)
    5862                      .dwattr $C$DW$321, DW_AT_name("sps")
    5863                      .dwattr $C$DW$321, DW_AT_data_member_location[DW_OP_plus_uconst 0xe]
    5864                      .dwattr $C$DW$321, DW_AT_accessibility(DW_ACCESS_public)
    5865                      .dwattr $C$DW$321, DW_AT_decl_file("C:/Users/Joel9/Downloads/llc_capstone_F28003/llc_capstone_F28003x
    5866                      .dwattr $C$DW$321, DW_AT_decl_line(0x4cc)
    5867                      .dwattr $C$DW$321, DW_AT_decl_column(0x13)
    5868              
    5869              $C$DW$322       .dwtag  DW_TAG_member
    5870                      .dwattr $C$DW$322, DW_AT_type(*$C$DW$T$38)
    5871                      .dwattr $C$DW$322, DW_AT_name("css")
    5872                      .dwattr $C$DW$322, DW_AT_data_member_location[DW_OP_plus_uconst 0x10]
    5873                      .dwattr $C$DW$322, DW_AT_accessibility(DW_ACCESS_public)
    5874                      .dwattr $C$DW$322, DW_AT_decl_file("C:/Users/Joel9/Downloads/llc_capstone_F28003/llc_capstone_F28003x
    5875                      .dwattr $C$DW$322, DW_AT_decl_line(0x4cd)
    5876                      .dwattr $C$DW$322, DW_AT_decl_column(0x0e)
    5877              
TMS320C2000 Assembler PC v22.6.1 Thu Mar 28 17:35:23 2024

Copyright (c) 1996-2018 Texas Instruments Incorporated
llc.asm                                                              PAGE  115

    5878                      .dwattr $C$DW$T$39, DW_AT_decl_file("C:/Users/Joel9/Downloads/llc_capstone_F28003/llc_capstone_F28003
    5879                      .dwattr $C$DW$T$39, DW_AT_decl_line(0x4c4)
    5880                      .dwattr $C$DW$T$39, DW_AT_decl_column(0x10)
    5881                      .dwendtag $C$DW$T$39
    5882              
    5883                      .dwendtag $C$DW$TU$39
    5884              
    5885              
    5886              $C$DW$TU$113    .dwtag  DW_TAG_type_unit
    5887                      .dwmtype  $C$DW$T$113
    5888              $C$DW$T$113     .dwtag  DW_TAG_typedef
    5889                      .dwattr $C$DW$T$113, DW_AT_name("DCL_DF22")
    5890                      .dwattr $C$DW$T$113, DW_AT_type(*$C$DW$T$39)
    5891                      .dwattr $C$DW$T$113, DW_AT_decl_file("C:/Users/Joel9/Downloads/llc_capstone_F28003/llc_capstone_F2800
    5892                      .dwattr $C$DW$T$113, DW_AT_decl_line(0x4ce)
    5893                      .dwattr $C$DW$T$113, DW_AT_decl_column(0x03)
    5894              
    5895                      .dwendtag $C$DW$TU$113
    5896              
    5897              
    5898              $C$DW$TU$114    .dwtag  DW_TAG_type_unit
    5899                      .dwmtype  $C$DW$T$114
    5900              $C$DW$323       .dwtag  DW_TAG_TI_far_type
    5901                      .dwattr $C$DW$323, DW_AT_type(*$C$DW$T$113)
    5902              
    5903              $C$DW$T$114     .dwtag  DW_TAG_volatile_type
    5904                      .dwattr $C$DW$T$114, DW_AT_type(*$C$DW$323)
    5905              
    5906                      .dwendtag $C$DW$TU$114
    5907              
    5908              
    5909              $C$DW$TU$40     .dwtag  DW_TAG_type_unit
    5910                      .dwmtype  $C$DW$T$40
    5911              
    5912              $C$DW$T$40      .dwtag  DW_TAG_structure_type
    5913                      .dwattr $C$DW$T$40, DW_AT_name("dcl_df22_sps")
    5914                      .dwattr $C$DW$T$40, DW_AT_byte_size(0x0a)
    5915              $C$DW$324       .dwtag  DW_TAG_member
    5916                      .dwattr $C$DW$324, DW_AT_type(*$C$DW$T$31)
    5917                      .dwattr $C$DW$324, DW_AT_name("b0")
    5918                      .dwattr $C$DW$324, DW_AT_accessibility(DW_ACCESS_public)
    5919                      .dwattr $C$DW$324, DW_AT_decl_file("C:/Users/Joel9/Downloads/llc_capstone_F28003/llc_capstone_F28003x
    5920                      .dwattr $C$DW$324, DW_AT_decl_line(0x4b9)
    5921                      .dwattr $C$DW$324, DW_AT_decl_column(0x0f)
    5922              
    5923              $C$DW$325       .dwtag  DW_TAG_member
    5924                      .dwattr $C$DW$325, DW_AT_type(*$C$DW$T$31)
    5925                      .dwattr $C$DW$325, DW_AT_name("b1")
    5926                      .dwattr $C$DW$325, DW_AT_data_member_location[DW_OP_plus_uconst 0x2]
    5927                      .dwattr $C$DW$325, DW_AT_accessibility(DW_ACCESS_public)
    5928                      .dwattr $C$DW$325, DW_AT_decl_file("C:/Users/Joel9/Downloads/llc_capstone_F28003/llc_capstone_F28003x
    5929                      .dwattr $C$DW$325, DW_AT_decl_line(0x4ba)
    5930                      .dwattr $C$DW$325, DW_AT_decl_column(0x0f)
    5931              
    5932              $C$DW$326       .dwtag  DW_TAG_member
TMS320C2000 Assembler PC v22.6.1 Thu Mar 28 17:35:23 2024

Copyright (c) 1996-2018 Texas Instruments Incorporated
llc.asm                                                              PAGE  116

    5933                      .dwattr $C$DW$326, DW_AT_type(*$C$DW$T$31)
    5934                      .dwattr $C$DW$326, DW_AT_name("b2")
    5935                      .dwattr $C$DW$326, DW_AT_data_member_location[DW_OP_plus_uconst 0x4]
    5936                      .dwattr $C$DW$326, DW_AT_accessibility(DW_ACCESS_public)
    5937                      .dwattr $C$DW$326, DW_AT_decl_file("C:/Users/Joel9/Downloads/llc_capstone_F28003/llc_capstone_F28003x
    5938                      .dwattr $C$DW$326, DW_AT_decl_line(0x4bb)
    5939                      .dwattr $C$DW$326, DW_AT_decl_column(0x0f)
    5940              
    5941              $C$DW$327       .dwtag  DW_TAG_member
    5942                      .dwattr $C$DW$327, DW_AT_type(*$C$DW$T$31)
    5943                      .dwattr $C$DW$327, DW_AT_name("a1")
    5944                      .dwattr $C$DW$327, DW_AT_data_member_location[DW_OP_plus_uconst 0x6]
    5945                      .dwattr $C$DW$327, DW_AT_accessibility(DW_ACCESS_public)
    5946                      .dwattr $C$DW$327, DW_AT_decl_file("C:/Users/Joel9/Downloads/llc_capstone_F28003/llc_capstone_F28003x
    5947                      .dwattr $C$DW$327, DW_AT_decl_line(0x4bc)
    5948                      .dwattr $C$DW$327, DW_AT_decl_column(0x0f)
    5949              
    5950              $C$DW$328       .dwtag  DW_TAG_member
    5951                      .dwattr $C$DW$328, DW_AT_type(*$C$DW$T$31)
    5952                      .dwattr $C$DW$328, DW_AT_name("a2")
    5953                      .dwattr $C$DW$328, DW_AT_data_member_location[DW_OP_plus_uconst 0x8]
    5954                      .dwattr $C$DW$328, DW_AT_accessibility(DW_ACCESS_public)
    5955                      .dwattr $C$DW$328, DW_AT_decl_file("C:/Users/Joel9/Downloads/llc_capstone_F28003/llc_capstone_F28003x
    5956                      .dwattr $C$DW$328, DW_AT_decl_line(0x4bd)
    5957                      .dwattr $C$DW$328, DW_AT_decl_column(0x0f)
    5958              
    5959                      .dwattr $C$DW$T$40, DW_AT_decl_file("C:/Users/Joel9/Downloads/llc_capstone_F28003/llc_capstone_F28003
    5960                      .dwattr $C$DW$T$40, DW_AT_decl_line(0x4b8)
    5961                      .dwattr $C$DW$T$40, DW_AT_decl_column(0x10)
    5962                      .dwendtag $C$DW$T$40
    5963              
    5964                      .dwendtag $C$DW$TU$40
    5965              
    5966              
    5967              $C$DW$TU$35     .dwtag  DW_TAG_type_unit
    5968                      .dwmtype  $C$DW$T$35
    5969              $C$DW$T$35      .dwtag  DW_TAG_typedef
    5970                      .dwattr $C$DW$T$35, DW_AT_name("DCL_DF22_SPS")
    5971                      .dwattr $C$DW$T$35, DW_AT_type(*$C$DW$T$40)
    5972                      .dwattr $C$DW$T$35, DW_AT_decl_file("C:/Users/Joel9/Downloads/llc_capstone_F28003/llc_capstone_F28003
    5973                      .dwattr $C$DW$T$35, DW_AT_decl_line(0x4be)
    5974                      .dwattr $C$DW$T$35, DW_AT_decl_column(0x03)
    5975              
    5976                      .dwendtag $C$DW$TU$35
    5977              
    5978              
    5979              $C$DW$TU$36     .dwtag  DW_TAG_type_unit
    5980                      .dwmtype  $C$DW$T$36
    5981              $C$DW$T$36      .dwtag  DW_TAG_pointer_type
    5982                      .dwattr $C$DW$T$36, DW_AT_type(*$C$DW$T$35)
    5983                      .dwattr $C$DW$T$36, DW_AT_address_class(0x20)
    5984              
    5985                      .dwendtag $C$DW$TU$36
    5986              
    5987              
TMS320C2000 Assembler PC v22.6.1 Thu Mar 28 17:35:23 2024

Copyright (c) 1996-2018 Texas Instruments Incorporated
llc.asm                                                              PAGE  117

    5988              $C$DW$TU$43     .dwtag  DW_TAG_type_unit
    5989                      .dwmtype  $C$DW$T$43
    5990              
    5991              $C$DW$T$43      .dwtag  DW_TAG_structure_type
    5992                      .dwattr $C$DW$T$43, DW_AT_name("dcl_pid")
    5993                      .dwattr $C$DW$T$43, DW_AT_byte_size(0x1c)
    5994              $C$DW$329       .dwtag  DW_TAG_member
    5995                      .dwattr $C$DW$329, DW_AT_type(*$C$DW$T$31)
    5996                      .dwattr $C$DW$329, DW_AT_name("Kp")
    5997                      .dwattr $C$DW$329, DW_AT_accessibility(DW_ACCESS_public)
    5998                      .dwattr $C$DW$329, DW_AT_decl_file("C:/Users/Joel9/Downloads/llc_capstone_F28003/llc_capstone_F28003x
    5999                      .dwattr $C$DW$329, DW_AT_decl_line(0x35)
    6000                      .dwattr $C$DW$329, DW_AT_decl_column(0x0f)
    6001              
    6002              $C$DW$330       .dwtag  DW_TAG_member
    6003                      .dwattr $C$DW$330, DW_AT_type(*$C$DW$T$31)
    6004                      .dwattr $C$DW$330, DW_AT_name("Ki")
    6005                      .dwattr $C$DW$330, DW_AT_data_member_location[DW_OP_plus_uconst 0x2]
    6006                      .dwattr $C$DW$330, DW_AT_accessibility(DW_ACCESS_public)
    6007                      .dwattr $C$DW$330, DW_AT_decl_file("C:/Users/Joel9/Downloads/llc_capstone_F28003/llc_capstone_F28003x
    6008                      .dwattr $C$DW$330, DW_AT_decl_line(0x36)
    6009                      .dwattr $C$DW$330, DW_AT_decl_column(0x0f)
    6010              
    6011              $C$DW$331       .dwtag  DW_TAG_member
    6012                      .dwattr $C$DW$331, DW_AT_type(*$C$DW$T$31)
    6013                      .dwattr $C$DW$331, DW_AT_name("Kd")
    6014                      .dwattr $C$DW$331, DW_AT_data_member_location[DW_OP_plus_uconst 0x4]
    6015                      .dwattr $C$DW$331, DW_AT_accessibility(DW_ACCESS_public)
    6016                      .dwattr $C$DW$331, DW_AT_decl_file("C:/Users/Joel9/Downloads/llc_capstone_F28003/llc_capstone_F28003x
    6017                      .dwattr $C$DW$331, DW_AT_decl_line(0x37)
    6018                      .dwattr $C$DW$331, DW_AT_decl_column(0x0f)
    6019              
    6020              $C$DW$332       .dwtag  DW_TAG_member
    6021                      .dwattr $C$DW$332, DW_AT_type(*$C$DW$T$31)
    6022                      .dwattr $C$DW$332, DW_AT_name("Kr")
    6023                      .dwattr $C$DW$332, DW_AT_data_member_location[DW_OP_plus_uconst 0x6]
    6024                      .dwattr $C$DW$332, DW_AT_accessibility(DW_ACCESS_public)
    6025                      .dwattr $C$DW$332, DW_AT_decl_file("C:/Users/Joel9/Downloads/llc_capstone_F28003/llc_capstone_F28003x
    6026                      .dwattr $C$DW$332, DW_AT_decl_line(0x38)
    6027                      .dwattr $C$DW$332, DW_AT_decl_column(0x0f)
    6028              
    6029              $C$DW$333       .dwtag  DW_TAG_member
    6030                      .dwattr $C$DW$333, DW_AT_type(*$C$DW$T$31)
    6031                      .dwattr $C$DW$333, DW_AT_name("c1")
    6032                      .dwattr $C$DW$333, DW_AT_data_member_location[DW_OP_plus_uconst 0x8]
    6033                      .dwattr $C$DW$333, DW_AT_accessibility(DW_ACCESS_public)
    6034                      .dwattr $C$DW$333, DW_AT_decl_file("C:/Users/Joel9/Downloads/llc_capstone_F28003/llc_capstone_F28003x
    6035                      .dwattr $C$DW$333, DW_AT_decl_line(0x39)
    6036                      .dwattr $C$DW$333, DW_AT_decl_column(0x0f)
    6037              
    6038              $C$DW$334       .dwtag  DW_TAG_member
    6039                      .dwattr $C$DW$334, DW_AT_type(*$C$DW$T$31)
    6040                      .dwattr $C$DW$334, DW_AT_name("c2")
    6041                      .dwattr $C$DW$334, DW_AT_data_member_location[DW_OP_plus_uconst 0xa]
    6042                      .dwattr $C$DW$334, DW_AT_accessibility(DW_ACCESS_public)
TMS320C2000 Assembler PC v22.6.1 Thu Mar 28 17:35:23 2024

Copyright (c) 1996-2018 Texas Instruments Incorporated
llc.asm                                                              PAGE  118

    6043                      .dwattr $C$DW$334, DW_AT_decl_file("C:/Users/Joel9/Downloads/llc_capstone_F28003/llc_capstone_F28003x
    6044                      .dwattr $C$DW$334, DW_AT_decl_line(0x3a)
    6045                      .dwattr $C$DW$334, DW_AT_decl_column(0x0f)
    6046              
    6047              $C$DW$335       .dwtag  DW_TAG_member
    6048                      .dwattr $C$DW$335, DW_AT_type(*$C$DW$T$31)
    6049                      .dwattr $C$DW$335, DW_AT_name("d2")
    6050                      .dwattr $C$DW$335, DW_AT_data_member_location[DW_OP_plus_uconst 0xc]
    6051                      .dwattr $C$DW$335, DW_AT_accessibility(DW_ACCESS_public)
    6052                      .dwattr $C$DW$335, DW_AT_decl_file("C:/Users/Joel9/Downloads/llc_capstone_F28003/llc_capstone_F28003x
    6053                      .dwattr $C$DW$335, DW_AT_decl_line(0x3b)
    6054                      .dwattr $C$DW$335, DW_AT_decl_column(0x0f)
    6055              
    6056              $C$DW$336       .dwtag  DW_TAG_member
    6057                      .dwattr $C$DW$336, DW_AT_type(*$C$DW$T$31)
    6058                      .dwattr $C$DW$336, DW_AT_name("d3")
    6059                      .dwattr $C$DW$336, DW_AT_data_member_location[DW_OP_plus_uconst 0xe]
    6060                      .dwattr $C$DW$336, DW_AT_accessibility(DW_ACCESS_public)
    6061                      .dwattr $C$DW$336, DW_AT_decl_file("C:/Users/Joel9/Downloads/llc_capstone_F28003/llc_capstone_F28003x
    6062                      .dwattr $C$DW$336, DW_AT_decl_line(0x3c)
    6063                      .dwattr $C$DW$336, DW_AT_decl_column(0x0f)
    6064              
    6065              $C$DW$337       .dwtag  DW_TAG_member
    6066                      .dwattr $C$DW$337, DW_AT_type(*$C$DW$T$31)
    6067                      .dwattr $C$DW$337, DW_AT_name("i10")
    6068                      .dwattr $C$DW$337, DW_AT_data_member_location[DW_OP_plus_uconst 0x10]
    6069                      .dwattr $C$DW$337, DW_AT_accessibility(DW_ACCESS_public)
    6070                      .dwattr $C$DW$337, DW_AT_decl_file("C:/Users/Joel9/Downloads/llc_capstone_F28003/llc_capstone_F28003x
    6071                      .dwattr $C$DW$337, DW_AT_decl_line(0x3d)
    6072                      .dwattr $C$DW$337, DW_AT_decl_column(0x0f)
    6073              
    6074              $C$DW$338       .dwtag  DW_TAG_member
    6075                      .dwattr $C$DW$338, DW_AT_type(*$C$DW$T$31)
    6076                      .dwattr $C$DW$338, DW_AT_name("i14")
    6077                      .dwattr $C$DW$338, DW_AT_data_member_location[DW_OP_plus_uconst 0x12]
    6078                      .dwattr $C$DW$338, DW_AT_accessibility(DW_ACCESS_public)
    6079                      .dwattr $C$DW$338, DW_AT_decl_file("C:/Users/Joel9/Downloads/llc_capstone_F28003/llc_capstone_F28003x
    6080                      .dwattr $C$DW$338, DW_AT_decl_line(0x3e)
    6081                      .dwattr $C$DW$338, DW_AT_decl_column(0x0f)
    6082              
    6083              $C$DW$339       .dwtag  DW_TAG_member
    6084                      .dwattr $C$DW$339, DW_AT_type(*$C$DW$T$31)
    6085                      .dwattr $C$DW$339, DW_AT_name("Umax")
    6086                      .dwattr $C$DW$339, DW_AT_data_member_location[DW_OP_plus_uconst 0x14]
    6087                      .dwattr $C$DW$339, DW_AT_accessibility(DW_ACCESS_public)
    6088                      .dwattr $C$DW$339, DW_AT_decl_file("C:/Users/Joel9/Downloads/llc_capstone_F28003/llc_capstone_F28003x
    6089                      .dwattr $C$DW$339, DW_AT_decl_line(0x3f)
    6090                      .dwattr $C$DW$339, DW_AT_decl_column(0x0f)
    6091              
    6092              $C$DW$340       .dwtag  DW_TAG_member
    6093                      .dwattr $C$DW$340, DW_AT_type(*$C$DW$T$31)
    6094                      .dwattr $C$DW$340, DW_AT_name("Umin")
    6095                      .dwattr $C$DW$340, DW_AT_data_member_location[DW_OP_plus_uconst 0x16]
    6096                      .dwattr $C$DW$340, DW_AT_accessibility(DW_ACCESS_public)
    6097                      .dwattr $C$DW$340, DW_AT_decl_file("C:/Users/Joel9/Downloads/llc_capstone_F28003/llc_capstone_F28003x
TMS320C2000 Assembler PC v22.6.1 Thu Mar 28 17:35:23 2024

Copyright (c) 1996-2018 Texas Instruments Incorporated
llc.asm                                                              PAGE  119

    6098                      .dwattr $C$DW$340, DW_AT_decl_line(0x40)
    6099                      .dwattr $C$DW$340, DW_AT_decl_column(0x0f)
    6100              
    6101              $C$DW$341       .dwtag  DW_TAG_member
    6102                      .dwattr $C$DW$341, DW_AT_type(*$C$DW$T$42)
    6103                      .dwattr $C$DW$341, DW_AT_name("sps")
    6104                      .dwattr $C$DW$341, DW_AT_data_member_location[DW_OP_plus_uconst 0x18]
    6105                      .dwattr $C$DW$341, DW_AT_accessibility(DW_ACCESS_public)
    6106                      .dwattr $C$DW$341, DW_AT_decl_file("C:/Users/Joel9/Downloads/llc_capstone_F28003/llc_capstone_F28003x
    6107                      .dwattr $C$DW$341, DW_AT_decl_line(0x41)
    6108                      .dwattr $C$DW$341, DW_AT_decl_column(0x12)
    6109              
    6110              $C$DW$342       .dwtag  DW_TAG_member
    6111                      .dwattr $C$DW$342, DW_AT_type(*$C$DW$T$38)
    6112                      .dwattr $C$DW$342, DW_AT_name("css")
    6113                      .dwattr $C$DW$342, DW_AT_data_member_location[DW_OP_plus_uconst 0x1a]
    6114                      .dwattr $C$DW$342, DW_AT_accessibility(DW_ACCESS_public)
    6115                      .dwattr $C$DW$342, DW_AT_decl_file("C:/Users/Joel9/Downloads/llc_capstone_F28003/llc_capstone_F28003x
    6116                      .dwattr $C$DW$342, DW_AT_decl_line(0x42)
    6117                      .dwattr $C$DW$342, DW_AT_decl_column(0x0e)
    6118              
    6119                      .dwattr $C$DW$T$43, DW_AT_decl_file("C:/Users/Joel9/Downloads/llc_capstone_F28003/llc_capstone_F28003
    6120                      .dwattr $C$DW$T$43, DW_AT_decl_line(0x34)
    6121                      .dwattr $C$DW$T$43, DW_AT_decl_column(0x10)
    6122                      .dwendtag $C$DW$T$43
    6123              
    6124                      .dwendtag $C$DW$TU$43
    6125              
    6126              
    6127              $C$DW$TU$116    .dwtag  DW_TAG_type_unit
    6128                      .dwmtype  $C$DW$T$116
    6129              $C$DW$T$116     .dwtag  DW_TAG_typedef
    6130                      .dwattr $C$DW$T$116, DW_AT_name("DCL_PID")
    6131                      .dwattr $C$DW$T$116, DW_AT_type(*$C$DW$T$43)
    6132                      .dwattr $C$DW$T$116, DW_AT_decl_file("C:/Users/Joel9/Downloads/llc_capstone_F28003/llc_capstone_F2800
    6133                      .dwattr $C$DW$T$116, DW_AT_decl_line(0x43)
    6134                      .dwattr $C$DW$T$116, DW_AT_decl_column(0x03)
    6135              
    6136                      .dwendtag $C$DW$TU$116
    6137              
    6138              
    6139              $C$DW$TU$117    .dwtag  DW_TAG_type_unit
    6140                      .dwmtype  $C$DW$T$117
    6141              $C$DW$343       .dwtag  DW_TAG_TI_far_type
    6142                      .dwattr $C$DW$343, DW_AT_type(*$C$DW$T$116)
    6143              
    6144              $C$DW$T$117     .dwtag  DW_TAG_volatile_type
    6145                      .dwattr $C$DW$T$117, DW_AT_type(*$C$DW$343)
    6146              
    6147                      .dwendtag $C$DW$TU$117
    6148              
    6149              
    6150              $C$DW$TU$44     .dwtag  DW_TAG_type_unit
    6151                      .dwmtype  $C$DW$T$44
    6152              
TMS320C2000 Assembler PC v22.6.1 Thu Mar 28 17:35:23 2024

Copyright (c) 1996-2018 Texas Instruments Incorporated
llc.asm                                                              PAGE  120

    6153              $C$DW$T$44      .dwtag  DW_TAG_structure_type
    6154                      .dwattr $C$DW$T$44, DW_AT_name("dcl_pid_sps")
    6155                      .dwattr $C$DW$T$44, DW_AT_byte_size(0x10)
    6156              $C$DW$344       .dwtag  DW_TAG_member
    6157                      .dwattr $C$DW$344, DW_AT_type(*$C$DW$T$31)
    6158                      .dwattr $C$DW$344, DW_AT_name("Kp")
    6159                      .dwattr $C$DW$344, DW_AT_accessibility(DW_ACCESS_public)
    6160                      .dwattr $C$DW$344, DW_AT_decl_file("C:/Users/Joel9/Downloads/llc_capstone_F28003/llc_capstone_F28003x
    6161                      .dwattr $C$DW$344, DW_AT_decl_line(0x24)
    6162                      .dwattr $C$DW$344, DW_AT_decl_column(0x0f)
    6163              
    6164              $C$DW$345       .dwtag  DW_TAG_member
    6165                      .dwattr $C$DW$345, DW_AT_type(*$C$DW$T$31)
    6166                      .dwattr $C$DW$345, DW_AT_name("Ki")
    6167                      .dwattr $C$DW$345, DW_AT_data_member_location[DW_OP_plus_uconst 0x2]
    6168                      .dwattr $C$DW$345, DW_AT_accessibility(DW_ACCESS_public)
    6169                      .dwattr $C$DW$345, DW_AT_decl_file("C:/Users/Joel9/Downloads/llc_capstone_F28003/llc_capstone_F28003x
    6170                      .dwattr $C$DW$345, DW_AT_decl_line(0x25)
    6171                      .dwattr $C$DW$345, DW_AT_decl_column(0x0f)
    6172              
    6173              $C$DW$346       .dwtag  DW_TAG_member
    6174                      .dwattr $C$DW$346, DW_AT_type(*$C$DW$T$31)
    6175                      .dwattr $C$DW$346, DW_AT_name("Kd")
    6176                      .dwattr $C$DW$346, DW_AT_data_member_location[DW_OP_plus_uconst 0x4]
    6177                      .dwattr $C$DW$346, DW_AT_accessibility(DW_ACCESS_public)
    6178                      .dwattr $C$DW$346, DW_AT_decl_file("C:/Users/Joel9/Downloads/llc_capstone_F28003/llc_capstone_F28003x
    6179                      .dwattr $C$DW$346, DW_AT_decl_line(0x26)
    6180                      .dwattr $C$DW$346, DW_AT_decl_column(0x0f)
    6181              
    6182              $C$DW$347       .dwtag  DW_TAG_member
    6183                      .dwattr $C$DW$347, DW_AT_type(*$C$DW$T$31)
    6184                      .dwattr $C$DW$347, DW_AT_name("Kr")
    6185                      .dwattr $C$DW$347, DW_AT_data_member_location[DW_OP_plus_uconst 0x6]
    6186                      .dwattr $C$DW$347, DW_AT_accessibility(DW_ACCESS_public)
    6187                      .dwattr $C$DW$347, DW_AT_decl_file("C:/Users/Joel9/Downloads/llc_capstone_F28003/llc_capstone_F28003x
    6188                      .dwattr $C$DW$347, DW_AT_decl_line(0x27)
    6189                      .dwattr $C$DW$347, DW_AT_decl_column(0x0f)
    6190              
    6191              $C$DW$348       .dwtag  DW_TAG_member
    6192                      .dwattr $C$DW$348, DW_AT_type(*$C$DW$T$31)
    6193                      .dwattr $C$DW$348, DW_AT_name("c1")
    6194                      .dwattr $C$DW$348, DW_AT_data_member_location[DW_OP_plus_uconst 0x8]
    6195                      .dwattr $C$DW$348, DW_AT_accessibility(DW_ACCESS_public)
    6196                      .dwattr $C$DW$348, DW_AT_decl_file("C:/Users/Joel9/Downloads/llc_capstone_F28003/llc_capstone_F28003x
    6197                      .dwattr $C$DW$348, DW_AT_decl_line(0x28)
    6198                      .dwattr $C$DW$348, DW_AT_decl_column(0x0f)
    6199              
    6200              $C$DW$349       .dwtag  DW_TAG_member
    6201                      .dwattr $C$DW$349, DW_AT_type(*$C$DW$T$31)
    6202                      .dwattr $C$DW$349, DW_AT_name("c2")
    6203                      .dwattr $C$DW$349, DW_AT_data_member_location[DW_OP_plus_uconst 0xa]
    6204                      .dwattr $C$DW$349, DW_AT_accessibility(DW_ACCESS_public)
    6205                      .dwattr $C$DW$349, DW_AT_decl_file("C:/Users/Joel9/Downloads/llc_capstone_F28003/llc_capstone_F28003x
    6206                      .dwattr $C$DW$349, DW_AT_decl_line(0x29)
    6207                      .dwattr $C$DW$349, DW_AT_decl_column(0x0f)
TMS320C2000 Assembler PC v22.6.1 Thu Mar 28 17:35:23 2024

Copyright (c) 1996-2018 Texas Instruments Incorporated
llc.asm                                                              PAGE  121

    6208              
    6209              $C$DW$350       .dwtag  DW_TAG_member
    6210                      .dwattr $C$DW$350, DW_AT_type(*$C$DW$T$31)
    6211                      .dwattr $C$DW$350, DW_AT_name("Umax")
    6212                      .dwattr $C$DW$350, DW_AT_data_member_location[DW_OP_plus_uconst 0xc]
    6213                      .dwattr $C$DW$350, DW_AT_accessibility(DW_ACCESS_public)
    6214                      .dwattr $C$DW$350, DW_AT_decl_file("C:/Users/Joel9/Downloads/llc_capstone_F28003/llc_capstone_F28003x
    6215                      .dwattr $C$DW$350, DW_AT_decl_line(0x2a)
    6216                      .dwattr $C$DW$350, DW_AT_decl_column(0x0f)
    6217              
    6218              $C$DW$351       .dwtag  DW_TAG_member
    6219                      .dwattr $C$DW$351, DW_AT_type(*$C$DW$T$31)
    6220                      .dwattr $C$DW$351, DW_AT_name("Umin")
    6221                      .dwattr $C$DW$351, DW_AT_data_member_location[DW_OP_plus_uconst 0xe]
    6222                      .dwattr $C$DW$351, DW_AT_accessibility(DW_ACCESS_public)
    6223                      .dwattr $C$DW$351, DW_AT_decl_file("C:/Users/Joel9/Downloads/llc_capstone_F28003/llc_capstone_F28003x
    6224                      .dwattr $C$DW$351, DW_AT_decl_line(0x2b)
    6225                      .dwattr $C$DW$351, DW_AT_decl_column(0x0f)
    6226              
    6227                      .dwattr $C$DW$T$44, DW_AT_decl_file("C:/Users/Joel9/Downloads/llc_capstone_F28003/llc_capstone_F28003
    6228                      .dwattr $C$DW$T$44, DW_AT_decl_line(0x23)
    6229                      .dwattr $C$DW$T$44, DW_AT_decl_column(0x10)
    6230                      .dwendtag $C$DW$T$44
    6231              
    6232                      .dwendtag $C$DW$TU$44
    6233              
    6234              
    6235              $C$DW$TU$41     .dwtag  DW_TAG_type_unit
    6236                      .dwmtype  $C$DW$T$41
    6237              $C$DW$T$41      .dwtag  DW_TAG_typedef
    6238                      .dwattr $C$DW$T$41, DW_AT_name("DCL_PID_SPS")
    6239                      .dwattr $C$DW$T$41, DW_AT_type(*$C$DW$T$44)
    6240                      .dwattr $C$DW$T$41, DW_AT_decl_file("C:/Users/Joel9/Downloads/llc_capstone_F28003/llc_capstone_F28003
    6241                      .dwattr $C$DW$T$41, DW_AT_decl_line(0x2c)
    6242                      .dwattr $C$DW$T$41, DW_AT_decl_column(0x03)
    6243              
    6244                      .dwendtag $C$DW$TU$41
    6245              
    6246              
    6247              $C$DW$TU$42     .dwtag  DW_TAG_type_unit
    6248                      .dwmtype  $C$DW$T$42
    6249              $C$DW$T$42      .dwtag  DW_TAG_pointer_type
    6250                      .dwattr $C$DW$T$42, DW_AT_type(*$C$DW$T$41)
    6251                      .dwattr $C$DW$T$42, DW_AT_address_class(0x20)
    6252              
    6253                      .dwendtag $C$DW$TU$42
    6254              

No Assembly Errors, No Assembly Warnings
